	.file	"streamcluster.bc"
	.file	1 "streamcluster.cpp"
	.file	2 "/usr/lib/gcc/x86_64-linux-gnu/4.8/../../../../include/c++/4.8/bits/ios_base.h"
	.file	3 "/usr/lib/gcc/x86_64-linux-gnu/4.8/../../../../include/c++/4.8/bits/c++config.h"
	.file	4 "/usr/lib/gcc/x86_64-linux-gnu/4.8/../../../../include/c++/4.8/bits/postypes.h"
	.file	5 "/usr/lib/gcc/x86_64-linux-gnu/4.8/../../../../include/c++/4.8/bits/locale_classes.h"
	.file	6 "/usr/lib/gcc/x86_64-linux-gnu/4.8/../../../../include/c++/4.8/bits/basic_string.h"
	.file	7 "/usr/include/xlocale.h"
	.file	8 "/usr/lib/gcc/x86_64-linux-gnu/4.8/../../../../include/c++/4.8/bits/c++locale.h"
	.file	9 "/usr/lib/gcc/x86_64-linux-gnu/4.8/../../../../include/c++/4.8/ext/new_allocator.h"
	.file	10 "/usr/lib/gcc/x86_64-linux-gnu/4.8/../../../../include/c++/4.8/bits/allocator.h"
	.file	11 "/usr/lib/gcc/x86_64-linux-gnu/4.8/../../../../include/c++/4.8/bits/memoryfwd.h"
	.file	12 "/usr/lib/gcc/x86_64-linux-gnu/4.8/../../../../include/c++/4.8/bits/stl_iterator.h"
	.file	13 "/usr/lib/gcc/x86_64-linux-gnu/4.8/../../../../include/c++/4.8/bits/basic_string.tcc"
	.file	14 "/usr/lib/gcc/x86_64-linux-gnu/4.8/../../../../include/c++/4.8/bits/stringfwd.h"
	.file	15 "/usr/lib/gcc/x86_64-linux-gnu/4.8/../../../../include/c++/4.8/bits/char_traits.h"
	.file	16 "/usr/lib/gcc/x86_64-linux-gnu/4.8/../../../../include/c++/4.8/iostream"
	.file	17 "/usr/include/x86_64-linux-gnu/bits/pthreadtypes.h"
	.file	18 "/usr/include/libio.h"
	.text
.Ltext_begin:
	.data
	.section	.text.startup,"ax",@progbits
	.align	16, 0x90
	.type	__cxx_global_var_init,@function
__cxx_global_var_init:                  # @__cxx_global_var_init
	.cfi_startproc
.Lfunc_begin0:
	.loc	16 73 0                 # /usr/lib/gcc/x86_64-linux-gnu/4.8/../../../../include/c++/4.8/iostream:73:0
# BB#0:                                 # %entry
	.loc	16 73 0 prologue_end    # /usr/lib/gcc/x86_64-linux-gnu/4.8/../../../../include/c++/4.8/iostream:73:0
	pushq	%rax
.Ltmp1:
	.cfi_def_cfa_offset 16
	movl	$_ZStL8__ioinit, %edi
	callq	_ZNSt8ios_base4InitC1Ev
	movl	$_ZNSt8ios_base4InitD1Ev, %edi
	movl	$_ZStL8__ioinit, %esi
	movl	$__dso_handle, %edx
	callq	__cxa_atexit
	popq	%rax
	ret
.Ltmp2:
.Ltmp3:
	.size	__cxx_global_var_init, .Ltmp3-__cxx_global_var_init
.Lfunc_end0:
	.cfi_endproc

	.text
	.globl	_Z11isIdenticalPfS_i
	.align	16, 0x90
	.type	_Z11isIdenticalPfS_i,@function
_Z11isIdenticalPfS_i:                   # @_Z11isIdenticalPfS_i
	.cfi_startproc
.Lfunc_begin1:
	.loc	1 603 0                 # streamcluster.cpp:603:0
# BB#0:                                 # %entry
	movq	%rdi, -16(%rsp)
	movq	%rsi, -24(%rsp)
	movl	%edx, -28(%rsp)
	.loc	1 604 0 prologue_end    # streamcluster.cpp:604:0
.Ltmp4:
	movl	$0, -32(%rsp)
	.loc	1 605 0                 # streamcluster.cpp:605:0
	movl	$1, -36(%rsp)
	jmp	.LBB1_1
	.align	16, 0x90
.LBB1_6:                                # %if.else
                                        #   in Loop: Header=BB1_1 Depth=1
	.loc	1 609 0                 # streamcluster.cpp:609:0
.Ltmp5:
	incl	-32(%rsp)
.Ltmp6:
.LBB1_1:                                # %while.cond
                                        # =>This Inner Loop Header: Depth=1
	xorb	%al, %al
	.loc	1 607 0                 # streamcluster.cpp:607:0
	cmpl	$0, -36(%rsp)
	je	.LBB1_3
# BB#2:                                 # %land.rhs
                                        #   in Loop: Header=BB1_1 Depth=1
	movl	-32(%rsp), %eax
	cmpl	-28(%rsp), %eax
	setl	%al
.LBB1_3:                                # %land.end
                                        #   in Loop: Header=BB1_1 Depth=1
	cmpb	$1, %al
	jne	.LBB1_7
# BB#4:                                 # %while.body
                                        #   in Loop: Header=BB1_1 Depth=1
	.loc	1 608 0                 # streamcluster.cpp:608:0
.Ltmp7:
	movslq	-32(%rsp), %rax
	movq	-16(%rsp), %rcx
	vmovss	(%rcx,%rax,4), %xmm0
	movq	-24(%rsp), %rcx
	vucomiss	(%rcx,%rax,4), %xmm0
	jne	.LBB1_5
	jnp	.LBB1_6
.LBB1_5:                                # %if.then
                                        #   in Loop: Header=BB1_1 Depth=1
	movl	$0, -36(%rsp)
	jmp	.LBB1_1
.Ltmp8:
.LBB1_7:                                # %while.end
	.loc	1 611 0                 # streamcluster.cpp:611:0
	cmpl	$0, -36(%rsp)
	je	.LBB1_9
# BB#8:                                 # %if.then5
	movl	$1, -4(%rsp)
	.loc	1 614 0                 # streamcluster.cpp:614:0
	movl	-4(%rsp), %eax
	ret
.LBB1_9:                                # %if.else6
	.loc	1 612 0                 # streamcluster.cpp:612:0
	movl	$0, -4(%rsp)
	.loc	1 614 0                 # streamcluster.cpp:614:0
	movl	-4(%rsp), %eax
	ret
.Ltmp9:
.Ltmp10:
	.size	_Z11isIdenticalPfS_i, .Ltmp10-_Z11isIdenticalPfS_i
.Lfunc_end1:
	.cfi_endproc

	.globl	_Z7shuffleP6Points
	.align	16, 0x90
	.type	_Z7shuffleP6Points,@function
_Z7shuffleP6Points:                     # @_Z7shuffleP6Points
	.cfi_startproc
.Lfunc_begin2:
	.loc	1 629 0                 # streamcluster.cpp:629:0
# BB#0:                                 # %entry
	subq	$56, %rsp
.Ltmp12:
	.cfi_def_cfa_offset 64
	movq	%rdi, 48(%rsp)
	.loc	1 632 0 prologue_end    # streamcluster.cpp:632:0
.Ltmp13:
	movq	$0, 40(%rsp)
	jmp	.LBB2_1
	.align	16, 0x90
.LBB2_2:                                # %for.inc
                                        #   in Loop: Header=BB2_1 Depth=1
	.loc	1 633 0                 # streamcluster.cpp:633:0
.Ltmp14:
	callq	lrand48
	movq	48(%rsp), %rcx
	movq	(%rcx), %rsi
	movq	40(%rsp), %rcx
	subq	%rcx, %rsi
	cqto
	idivq	%rsi
	addq	%rcx, %rdx
	movq	%rdx, 32(%rsp)
	.loc	1 634 0                 # streamcluster.cpp:634:0
	movq	48(%rsp), %rax
	movq	16(%rax), %rax
	movq	40(%rsp), %rcx
	shlq	$5, %rcx
	movq	24(%rax,%rcx), %rdx
	movq	%rdx, 24(%rsp)
	movq	16(%rax,%rcx), %rdx
	movq	%rdx, 16(%rsp)
	movq	(%rax,%rcx), %rdx
	movq	8(%rax,%rcx), %rax
	movq	%rax, 8(%rsp)
	movq	%rdx, (%rsp)
	.loc	1 635 0                 # streamcluster.cpp:635:0
	movq	48(%rsp), %rax
	movq	16(%rax), %rax
	movq	32(%rsp), %rcx
	shlq	$5, %rcx
	movq	40(%rsp), %rdx
	movq	24(%rax,%rcx), %rsi
	shlq	$5, %rdx
	movq	%rsi, 24(%rax,%rdx)
	movq	16(%rax,%rcx), %rsi
	movq	%rsi, 16(%rax,%rdx)
	movq	(%rax,%rcx), %rsi
	movq	8(%rax,%rcx), %rcx
	movq	%rcx, 8(%rax,%rdx)
	movq	%rsi, (%rax,%rdx)
	.loc	1 636 0                 # streamcluster.cpp:636:0
	movq	48(%rsp), %rax
	movq	16(%rax), %rax
	movq	32(%rsp), %rcx
	shlq	$5, %rcx
	movq	24(%rsp), %rdx
	movq	%rdx, 24(%rax,%rcx)
	movq	16(%rsp), %rdx
	movq	%rdx, 16(%rax,%rcx)
	movq	(%rsp), %rdx
	movq	8(%rsp), %rsi
	movq	%rsi, 8(%rax,%rcx)
	movq	%rdx, (%rax,%rcx)
.Ltmp15:
	.loc	1 632 0                 # streamcluster.cpp:632:0
	incq	40(%rsp)
.LBB2_1:                                # %for.cond
                                        # =>This Inner Loop Header: Depth=1
	movq	48(%rsp), %rax
	movq	(%rax), %rax
	decq	%rax
	cmpq	%rax, 40(%rsp)
	jl	.LBB2_2
.Ltmp16:
# BB#3:                                 # %for.end
	.loc	1 638 0                 # streamcluster.cpp:638:0
	addq	$56, %rsp
	ret
.Ltmp17:
.Ltmp18:
	.size	_Z7shuffleP6Points, .Ltmp18-_Z7shuffleP6Points
.Lfunc_end2:
	.cfi_endproc

	.globl	_Z10intshufflePii
	.align	16, 0x90
	.type	_Z10intshufflePii,@function
_Z10intshufflePii:                      # @_Z10intshufflePii
	.cfi_startproc
.Lfunc_begin3:
	.loc	1 642 0                 # streamcluster.cpp:642:0
# BB#0:                                 # %entry
	subq	$40, %rsp
.Ltmp20:
	.cfi_def_cfa_offset 48
	movq	%rdi, 32(%rsp)
	movl	%esi, 28(%rsp)
	.loc	1 645 0 prologue_end    # streamcluster.cpp:645:0
.Ltmp21:
	movq	$0, 16(%rsp)
	jmp	.LBB3_1
	.align	16, 0x90
.LBB3_2:                                # %for.body
                                        #   in Loop: Header=BB3_1 Depth=1
	.loc	1 646 0                 # streamcluster.cpp:646:0
.Ltmp22:
	callq	lrand48
	movq	16(%rsp), %rcx
	movslq	28(%rsp), %rsi
	subq	%rcx, %rsi
	cqto
	idivq	%rsi
	addq	%rcx, %rdx
	movq	%rdx, 8(%rsp)
	.loc	1 647 0                 # streamcluster.cpp:647:0
	movq	16(%rsp), %rax
	movq	32(%rsp), %rcx
	movl	(%rcx,%rax,4), %eax
	movl	%eax, 4(%rsp)
	.loc	1 648 0                 # streamcluster.cpp:648:0
	movq	8(%rsp), %rcx
	movq	32(%rsp), %rax
	movl	(%rax,%rcx,4), %ecx
	movq	16(%rsp), %rdx
	movl	%ecx, (%rax,%rdx,4)
	.loc	1 649 0                 # streamcluster.cpp:649:0
	movq	32(%rsp), %rax
	movq	8(%rsp), %rcx
	movl	4(%rsp), %edx
	movl	%edx, (%rax,%rcx,4)
.Ltmp23:
	.loc	1 645 0                 # streamcluster.cpp:645:0
	incq	16(%rsp)
.LBB3_1:                                # %for.cond
                                        # =>This Inner Loop Header: Depth=1
	movslq	28(%rsp), %rax
	cmpq	%rax, 16(%rsp)
	jl	.LBB3_2
.Ltmp24:
# BB#3:                                 # %for.end
	.loc	1 651 0                 # streamcluster.cpp:651:0
	addq	$40, %rsp
	ret
.Ltmp25:
.Ltmp26:
	.size	_Z10intshufflePii, .Ltmp26-_Z10intshufflePii
.Lfunc_end3:
	.cfi_endproc

	.globl	_Z4dist5PointS_i
	.align	16, 0x90
	.type	_Z4dist5PointS_i,@function
_Z4dist5PointS_i:                       # @_Z4dist5PointS_i
	.cfi_startproc
.Lfunc_begin4:
	.loc	1 655 0                 # streamcluster.cpp:655:0
# BB#0:                                 # %entry
	#DEBUG_VALUE: dist:p1 <- [%rsp+$8]+$0
	#DEBUG_VALUE: dist:p2 <- [%rsp+$40]+$0
	movl	%edi, -4(%rsp)
	.loc	1 657 0 prologue_end    # streamcluster.cpp:657:0
.Ltmp27:
	movl	$0, -12(%rsp)
	.loc	1 658 0                 # streamcluster.cpp:658:0
.Ltmp28:
	movl	$0, -8(%rsp)
	leaq	40(%rsp), %rax
.Ltmp29:
	#DEBUG_VALUE: dist:p2 <- [%rsp+$40]+$0
	leaq	8(%rsp), %rcx
.Ltmp30:
	#DEBUG_VALUE: dist:p1 <- [%rsp+$8]+$0
	jmp	.LBB4_1
	.align	16, 0x90
.LBB4_2:                                # %for.body
                                        #   in Loop: Header=BB4_1 Depth=1
	.loc	1 659 0                 # streamcluster.cpp:659:0
	movq	8(%rcx), %rsi
	movslq	-8(%rsp), %rdx
	vmovss	(%rsi,%rdx,4), %xmm0
	movq	8(%rax), %rsi
	vsubss	(%rsi,%rdx,4), %xmm0, %xmm0
	vmulss	%xmm0, %xmm0, %xmm0
	vaddss	-12(%rsp), %xmm0, %xmm0
	vmovss	%xmm0, -12(%rsp)
	.loc	1 658 0                 # streamcluster.cpp:658:0
	incl	-8(%rsp)
.LBB4_1:                                # %for.cond
                                        # =>This Inner Loop Header: Depth=1
	movl	-8(%rsp), %edx
	cmpl	-4(%rsp), %edx
	jl	.LBB4_2
.Ltmp31:
# BB#3:                                 # %for.end
	.loc	1 660 0                 # streamcluster.cpp:660:0
	vmovss	-12(%rsp), %xmm0
	ret
.Ltmp32:
.Ltmp33:
	.size	_Z4dist5PointS_i, .Ltmp33-_Z4dist5PointS_i
.Lfunc_end4:
	.cfi_endproc

	.section	.rodata.cst4,"aM",@progbits,4
	.align	4
.LCPI5_0:
	.long	1325400064              # float 2.147484e+09
                                        #  (0x4f000000)
	.text
	.globl	_Z7pspeedyP6PointsfPliP17pthread_barrier_t
	.align	16, 0x90
	.type	_Z7pspeedyP6PointsfPliP17pthread_barrier_t,@function
_Z7pspeedyP6PointsfPliP17pthread_barrier_t: # @_Z7pspeedyP6PointsfPliP17pthread_barrier_t
	.cfi_startproc
.Lfunc_begin5:
	.loc	1 710 0                 # streamcluster.cpp:710:0
# BB#0:                                 # %entry
	subq	$376, %rsp              # imm = 0x178
.Ltmp35:
	.cfi_def_cfa_offset 384
	movq	%rdi, 368(%rsp)
	vmovss	%xmm0, 364(%rsp)
	movq	%rsi, 352(%rsp)
	movl	%edx, 348(%rsp)
	movq	%rcx, 336(%rsp)
	.loc	1 712 0 prologue_end    # streamcluster.cpp:712:0
.Ltmp36:
	movq	%rcx, %rdi
	callq	pthread_barrier_wait
	.loc	1 715 0                 # streamcluster.cpp:715:0
	movq	368(%rsp), %rax
	movq	(%rax), %rax
	movslq	_ZL5nproc(%rip), %rcx
	cqto
	idivq	%rcx
	movq	%rax, 328(%rsp)
	.loc	1 716 0                 # streamcluster.cpp:716:0
	movslq	348(%rsp), %rcx
	imulq	%rax, %rcx
	movq	%rcx, 320(%rsp)
	.loc	1 717 0                 # streamcluster.cpp:717:0
	addq	328(%rsp), %rcx
	movq	%rcx, 312(%rsp)
	.loc	1 718 0                 # streamcluster.cpp:718:0
	movl	_ZL5nproc(%rip), %eax
	decl	%eax
	cmpl	%eax, 348(%rsp)
	jne	.LBB5_2
# BB#1:                                 # %if.then
	movq	368(%rsp), %rax
	movq	(%rax), %rax
	movq	%rax, 312(%rsp)
.LBB5_2:                                # %if.end
.Ltmp37:
	#DEBUG_VALUE: k <- [%rsp+$308]+$0
	.loc	1 727 0                 # streamcluster.cpp:727:0
	movl	320(%rsp), %eax
	movl	%eax, 308(%rsp)
	jmp	.LBB5_3
	.align	16, 0x90
.LBB5_4:                                # %for.inc
                                        #   in Loop: Header=BB5_3 Depth=1
.Ltmp38:
	#DEBUG_VALUE: distance <- [%rsp+$304]+$0
	.loc	1 728 0                 # streamcluster.cpp:728:0
	movq	368(%rsp), %rax
	movq	16(%rax), %rax
	movslq	308(%rsp), %rcx
	shlq	$5, %rcx
	movq	24(%rax,%rcx), %rdx
	movq	%rdx, 296(%rsp)
	movq	16(%rax,%rcx), %rdx
	movq	%rdx, 288(%rsp)
	movq	(%rax,%rcx), %rdx
	movq	8(%rax,%rcx), %rax
	movq	%rax, 280(%rsp)
	movq	%rdx, 272(%rsp)
	movq	368(%rsp), %rax
	movq	16(%rax), %rax
	movq	24(%rax), %rcx
	movq	%rcx, 264(%rsp)
	movq	16(%rax), %rcx
	movq	%rcx, 256(%rsp)
	movq	(%rax), %rcx
	movq	8(%rax), %rax
	movq	%rax, 248(%rsp)
	movq	%rcx, 240(%rsp)
	movq	368(%rsp), %rax
	movl	8(%rax), %edi
	movq	240(%rsp), %rax
	movq	248(%rsp), %rcx
	movq	256(%rsp), %rdx
	movq	264(%rsp), %rsi
	movq	%rsi, 56(%rsp)
	movq	%rdx, 48(%rsp)
	movq	%rcx, 40(%rsp)
	movq	%rax, 32(%rsp)
	movq	296(%rsp), %rax
	movq	%rax, 24(%rsp)
	movq	288(%rsp), %rax
	movq	%rax, 16(%rsp)
	movq	272(%rsp), %rax
	movq	280(%rsp), %rcx
	movq	%rcx, 8(%rsp)
	movq	%rax, (%rsp)
	callq	_Z4dist5PointS_i
	vmovss	%xmm0, 304(%rsp)
	.loc	1 729 0                 # streamcluster.cpp:729:0
	movslq	308(%rsp), %rax
	shlq	$5, %rax
	movq	368(%rsp), %rcx
	movq	16(%rcx), %rcx
	vmulss	(%rcx,%rax), %xmm0, %xmm0
	vmovss	%xmm0, 24(%rcx,%rax)
	.loc	1 730 0                 # streamcluster.cpp:730:0
	movq	368(%rsp), %rax
	movq	16(%rax), %rax
	movslq	308(%rsp), %rcx
	shlq	$5, %rcx
	movq	$0, 16(%rax,%rcx)
.Ltmp39:
	.loc	1 727 0                 # streamcluster.cpp:727:0
	incl	308(%rsp)
.LBB5_3:                                # %for.cond
                                        # =>This Inner Loop Header: Depth=1
	movslq	308(%rsp), %rax
	cmpq	312(%rsp), %rax
	jl	.LBB5_4
.Ltmp40:
# BB#5:                                 # %for.end
	.loc	1 733 0                 # streamcluster.cpp:733:0
	cmpl	$0, 348(%rsp)
	jne	.LBB5_7
# BB#6:                                 # %if.then21
	.loc	1 734 0                 # streamcluster.cpp:734:0
.Ltmp41:
	movq	352(%rsp), %rax
	movq	$1, (%rax)
	.loc	1 735 0                 # streamcluster.cpp:735:0
	movslq	_ZL5nproc(%rip), %rdi
	shlq	$3, %rdi
	callq	malloc
	movq	%rax, _ZZ7pspeedyP6PointsfPliP17pthread_barrier_tE5costs(%rip)
.Ltmp42:
.LBB5_7:                                # %if.end25
	.loc	1 738 0                 # streamcluster.cpp:738:0
	cmpl	$0, 348(%rsp)
	jne	.LBB5_8
# BB#18:                                # %if.else
	.loc	1 762 0                 # streamcluster.cpp:762:0
.Ltmp43:
	movl	$1, _ZZ7pspeedyP6PointsfPliP17pthread_barrier_tE1i(%rip)
	jmp	.LBB5_19
.Ltmp44:
	.align	16, 0x90
.LBB5_17:                               # %for.end83
                                        #   in Loop: Header=BB5_8 Depth=1
	.loc	1 756 0                 # streamcluster.cpp:756:0
	movq	336(%rsp), %rdi
	callq	pthread_barrier_wait
	.loc	1 757 0                 # streamcluster.cpp:757:0
	movq	336(%rsp), %rdi
	callq	pthread_barrier_wait
.LBB5_8:                                # %while.body
                                        # =>This Loop Header: Depth=1
                                        #     Child Loop BB5_9 Depth 2
                                        #     Child Loop BB5_13 Depth 2
	.loc	1 741 0                 # streamcluster.cpp:741:0
	movl	$_ZL5mutex, %edi
	callq	pthread_mutex_lock
	jmp	.LBB5_9
	.align	16, 0x90
.LBB5_10:                               # %while.body30
                                        #   in Loop: Header=BB5_9 Depth=2
	.loc	1 742 0                 # streamcluster.cpp:742:0
	movl	$_ZL4cond, %edi
	.loc	1 741 0                 # streamcluster.cpp:741:0
	movl	$_ZL5mutex, %esi
	.loc	1 742 0                 # streamcluster.cpp:742:0
	callq	pthread_cond_wait
.LBB5_9:                                # %while.cond29
                                        #   Parent Loop BB5_8 Depth=1
                                        # =>  This Inner Loop Header: Depth=2
	movb	_ZZ7pspeedyP6PointsfPliP17pthread_barrier_tE4open(%rip), %al
	notb	%al
	testb	$1, %al
	jne	.LBB5_10
# BB#11:                                # %while.end
                                        #   in Loop: Header=BB5_8 Depth=1
	.loc	1 741 0                 # streamcluster.cpp:741:0
	movl	$_ZL5mutex, %edi
	.loc	1 743 0                 # streamcluster.cpp:743:0
	callq	pthread_mutex_unlock
	.loc	1 745 0                 # streamcluster.cpp:745:0
	movq	368(%rsp), %rax
	movslq	_ZZ7pspeedyP6PointsfPliP17pthread_barrier_tE1i(%rip), %rcx
	cmpq	(%rax), %rcx
	jge	.LBB5_29
# BB#12:                                # %if.end37
                                        #   in Loop: Header=BB5_8 Depth=1
.Ltmp45:
	#DEBUG_VALUE: k <- [%rsp+$236]+$0
	.loc	1 746 0                 # streamcluster.cpp:746:0
	movl	320(%rsp), %eax
	movl	%eax, 236(%rsp)
	jmp	.LBB5_13
	.align	16, 0x90
.LBB5_16:                               # %for.inc81
                                        #   in Loop: Header=BB5_13 Depth=2
	incl	236(%rsp)
.LBB5_13:                               # %for.cond40
                                        #   Parent Loop BB5_8 Depth=1
                                        # =>  This Inner Loop Header: Depth=2
	movslq	236(%rsp), %rax
	cmpq	312(%rsp), %rax
	jge	.LBB5_17
# BB#14:                                # %for.body43
                                        #   in Loop: Header=BB5_13 Depth=2
.Ltmp46:
	#DEBUG_VALUE: distance <- [%rsp+$232]+$0
	.loc	1 748 0                 # streamcluster.cpp:748:0
	movq	368(%rsp), %rax
	movq	16(%rax), %rax
	movslq	_ZZ7pspeedyP6PointsfPliP17pthread_barrier_tE1i(%rip), %rcx
	shlq	$5, %rcx
	movq	24(%rax,%rcx), %rdx
	movq	%rdx, 224(%rsp)
	movq	16(%rax,%rcx), %rdx
	movq	%rdx, 216(%rsp)
	movq	(%rax,%rcx), %rdx
	movq	8(%rax,%rcx), %rax
	movq	%rax, 208(%rsp)
	movq	%rdx, 200(%rsp)
	movq	368(%rsp), %rax
	movq	16(%rax), %rax
	movslq	236(%rsp), %rcx
	shlq	$5, %rcx
	movq	24(%rax,%rcx), %rdx
	movq	%rdx, 192(%rsp)
	movq	16(%rax,%rcx), %rdx
	movq	%rdx, 184(%rsp)
	movq	(%rax,%rcx), %rdx
	movq	8(%rax,%rcx), %rax
	movq	%rax, 176(%rsp)
	movq	%rdx, 168(%rsp)
	movq	368(%rsp), %rax
	movl	8(%rax), %edi
	movq	168(%rsp), %rax
	movq	176(%rsp), %rcx
	movq	184(%rsp), %rdx
	movq	192(%rsp), %rsi
	movq	%rsi, 56(%rsp)
	movq	%rdx, 48(%rsp)
	movq	%rcx, 40(%rsp)
	movq	%rax, 32(%rsp)
	movq	224(%rsp), %rax
	movq	%rax, 24(%rsp)
	movq	216(%rsp), %rax
	movq	%rax, 16(%rsp)
	movq	200(%rsp), %rax
	movq	208(%rsp), %rcx
	movq	%rcx, 8(%rsp)
	movq	%rax, (%rsp)
	callq	_Z4dist5PointS_i
	vmovss	%xmm0, 232(%rsp)
	.loc	1 749 0                 # streamcluster.cpp:749:0
	movslq	236(%rsp), %rax
	shlq	$5, %rax
	movq	368(%rsp), %rcx
	movq	16(%rcx), %rcx
	vmulss	(%rcx,%rax), %xmm0, %xmm0
	vmovss	24(%rcx,%rax), %xmm1
	vucomiss	%xmm0, %xmm1
	jbe	.LBB5_16
# BB#15:                                # %if.then65
                                        #   in Loop: Header=BB5_13 Depth=2
	.loc	1 751 0                 # streamcluster.cpp:751:0
.Ltmp47:
	movslq	236(%rsp), %rax
	shlq	$5, %rax
	movq	368(%rsp), %rcx
	movq	16(%rcx), %rcx
	vmovss	232(%rsp), %xmm0
	vmulss	(%rcx,%rax), %xmm0, %xmm0
	vmovss	%xmm0, 24(%rcx,%rax)
	.loc	1 752 0                 # streamcluster.cpp:752:0
	movq	368(%rsp), %rax
	movq	16(%rax), %rax
	movslq	236(%rsp), %rcx
	shlq	$5, %rcx
	movslq	_ZZ7pspeedyP6PointsfPliP17pthread_barrier_tE1i(%rip), %rdx
	movq	%rdx, 16(%rax,%rcx)
	jmp	.LBB5_16
.Ltmp48:
	.align	16, 0x90
.LBB5_27:                               # %for.inc156
                                        #   in Loop: Header=BB5_19 Depth=1
	.loc	1 762 0                 # streamcluster.cpp:762:0
	incl	_ZZ7pspeedyP6PointsfPliP17pthread_barrier_tE1i(%rip)
.LBB5_19:                               # %for.cond87
                                        # =>This Loop Header: Depth=1
                                        #     Child Loop BB5_22 Depth 2
	movq	368(%rsp), %rax
	movslq	_ZZ7pspeedyP6PointsfPliP17pthread_barrier_tE1i(%rip), %rcx
	cmpq	(%rax), %rcx
	jge	.LBB5_28
# BB#20:                                # %for.body91
                                        #   in Loop: Header=BB5_19 Depth=1
.Ltmp49:
	#DEBUG_VALUE: to_open <- [%rsp+$167]+$0
	.loc	1 763 0                 # streamcluster.cpp:763:0
	callq	lrand48
	vcvtsi2ssq	%rax, %xmm0, %xmm0
	vdivss	.LCPI5_0(%rip), %xmm0, %xmm0
	movslq	_ZZ7pspeedyP6PointsfPliP17pthread_barrier_tE1i(%rip), %rax
	shlq	$5, %rax
	movq	368(%rsp), %rcx
	movq	16(%rcx), %rcx
	vmovss	24(%rcx,%rax), %xmm1
	vdivss	364(%rsp), %xmm1, %xmm1
	vucomiss	%xmm0, %xmm1
	seta	167(%rsp)
	jbe	.LBB5_27
# BB#21:                                # %if.then102
                                        #   in Loop: Header=BB5_19 Depth=1
	.loc	1 765 0                 # streamcluster.cpp:765:0
.Ltmp50:
	movq	352(%rsp), %rax
	incq	(%rax)
	.loc	1 767 0                 # streamcluster.cpp:767:0
	movl	$_ZL5mutex, %edi
	callq	pthread_mutex_lock
	.loc	1 769 0                 # streamcluster.cpp:769:0
	movb	$1, _ZZ7pspeedyP6PointsfPliP17pthread_barrier_tE4open(%rip)
	.loc	1 767 0                 # streamcluster.cpp:767:0
	movl	$_ZL5mutex, %edi
	.loc	1 771 0                 # streamcluster.cpp:771:0
	callq	pthread_mutex_unlock
	.loc	1 772 0                 # streamcluster.cpp:772:0
	movl	$_ZL4cond, %edi
	callq	pthread_cond_broadcast
	.loc	1 774 0                 # streamcluster.cpp:774:0
.Ltmp51:
	movl	320(%rsp), %eax
	movl	%eax, 160(%rsp)
.Ltmp52:
	#DEBUG_VALUE: k <- [%rsp+$160]+$0
	jmp	.LBB5_22
	.align	16, 0x90
.LBB5_25:                               # %for.inc150
                                        #   in Loop: Header=BB5_22 Depth=2
	incl	160(%rsp)
.LBB5_22:                               # %for.cond109
                                        #   Parent Loop BB5_19 Depth=1
                                        # =>  This Inner Loop Header: Depth=2
	movslq	160(%rsp), %rax
	cmpq	312(%rsp), %rax
	jge	.LBB5_26
# BB#23:                                # %for.body112
                                        #   in Loop: Header=BB5_22 Depth=2
.Ltmp53:
	#DEBUG_VALUE: distance <- [%rsp+$156]+$0
	.loc	1 775 0                 # streamcluster.cpp:775:0
	movq	368(%rsp), %rax
	movq	16(%rax), %rax
	movslq	_ZZ7pspeedyP6PointsfPliP17pthread_barrier_tE1i(%rip), %rcx
	shlq	$5, %rcx
	movq	24(%rax,%rcx), %rdx
	movq	%rdx, 144(%rsp)
	movq	16(%rax,%rcx), %rdx
	movq	%rdx, 136(%rsp)
	movq	(%rax,%rcx), %rdx
	movq	8(%rax,%rcx), %rax
	movq	%rax, 128(%rsp)
	movq	%rdx, 120(%rsp)
	movq	368(%rsp), %rax
	movq	16(%rax), %rax
	movslq	160(%rsp), %rcx
	shlq	$5, %rcx
	movq	24(%rax,%rcx), %rdx
	movq	%rdx, 112(%rsp)
	movq	16(%rax,%rcx), %rdx
	movq	%rdx, 104(%rsp)
	movq	(%rax,%rcx), %rdx
	movq	8(%rax,%rcx), %rax
	movq	%rax, 96(%rsp)
	movq	%rdx, 88(%rsp)
	movq	368(%rsp), %rax
	movl	8(%rax), %edi
	movq	88(%rsp), %rax
	movq	96(%rsp), %rcx
	movq	104(%rsp), %rdx
	movq	112(%rsp), %rsi
	movq	%rsi, 56(%rsp)
	movq	%rdx, 48(%rsp)
	movq	%rcx, 40(%rsp)
	movq	%rax, 32(%rsp)
	movq	144(%rsp), %rax
	movq	%rax, 24(%rsp)
	movq	136(%rsp), %rax
	movq	%rax, 16(%rsp)
	movq	120(%rsp), %rax
	movq	128(%rsp), %rcx
	movq	%rcx, 8(%rsp)
	movq	%rax, (%rsp)
	callq	_Z4dist5PointS_i
	vmovss	%xmm0, 156(%rsp)
	.loc	1 776 0                 # streamcluster.cpp:776:0
	movslq	160(%rsp), %rax
	shlq	$5, %rax
	movq	368(%rsp), %rcx
	movq	16(%rcx), %rcx
	vmulss	(%rcx,%rax), %xmm0, %xmm0
	vmovss	24(%rcx,%rax), %xmm1
	vucomiss	%xmm0, %xmm1
	jbe	.LBB5_25
# BB#24:                                # %if.then134
                                        #   in Loop: Header=BB5_22 Depth=2
	.loc	1 777 0                 # streamcluster.cpp:777:0
.Ltmp54:
	movslq	160(%rsp), %rax
	shlq	$5, %rax
	movq	368(%rsp), %rcx
	movq	16(%rcx), %rcx
	vmovss	156(%rsp), %xmm0
	vmulss	(%rcx,%rax), %xmm0, %xmm0
	vmovss	%xmm0, 24(%rcx,%rax)
	.loc	1 778 0                 # streamcluster.cpp:778:0
	movq	368(%rsp), %rax
	movq	16(%rax), %rax
	movslq	160(%rsp), %rcx
	shlq	$5, %rcx
	movslq	_ZZ7pspeedyP6PointsfPliP17pthread_barrier_tE1i(%rip), %rdx
	movq	%rdx, 16(%rax,%rcx)
	jmp	.LBB5_25
.Ltmp55:
	.align	16, 0x90
.LBB5_26:                               # %for.end152
                                        #   in Loop: Header=BB5_19 Depth=1
	.loc	1 782 0                 # streamcluster.cpp:782:0
	movq	336(%rsp), %rdi
	callq	pthread_barrier_wait
	.loc	1 784 0                 # streamcluster.cpp:784:0
	movb	$0, _ZZ7pspeedyP6PointsfPliP17pthread_barrier_tE4open(%rip)
	.loc	1 786 0                 # streamcluster.cpp:786:0
	movq	336(%rsp), %rdi
	callq	pthread_barrier_wait
	jmp	.LBB5_27
.Ltmp56:
.LBB5_28:                               # %for.end158
	.loc	1 791 0                 # streamcluster.cpp:791:0
	movl	$_ZL5mutex, %edi
	callq	pthread_mutex_lock
	.loc	1 793 0                 # streamcluster.cpp:793:0
	movb	$1, _ZZ7pspeedyP6PointsfPliP17pthread_barrier_tE4open(%rip)
	.loc	1 791 0                 # streamcluster.cpp:791:0
	movl	$_ZL5mutex, %edi
	.loc	1 795 0                 # streamcluster.cpp:795:0
	callq	pthread_mutex_unlock
	.loc	1 796 0                 # streamcluster.cpp:796:0
	movl	$_ZL4cond, %edi
	callq	pthread_cond_broadcast
.Ltmp57:
.LBB5_29:                               # %if.end162
	.loc	1 800 0                 # streamcluster.cpp:800:0
	movq	336(%rsp), %rdi
	callq	pthread_barrier_wait
	.loc	1 802 0                 # streamcluster.cpp:802:0
	movb	$0, _ZZ7pspeedyP6PointsfPliP17pthread_barrier_tE4open(%rip)
	.loc	1 803 0                 # streamcluster.cpp:803:0
	movq	$0, 80(%rsp)
	.loc	1 804 0                 # streamcluster.cpp:804:0
.Ltmp58:
	movl	320(%rsp), %eax
	movl	%eax, 76(%rsp)
.Ltmp59:
	#DEBUG_VALUE: k <- [%rsp+$76]+$0
	#DEBUG_VALUE: mytotal <- [%rsp+$80]+$0
	jmp	.LBB5_30
	.align	16, 0x90
.LBB5_31:                               # %for.inc176
                                        #   in Loop: Header=BB5_30 Depth=1
	.loc	1 805 0                 # streamcluster.cpp:805:0
.Ltmp60:
	movslq	76(%rsp), %rax
	shlq	$5, %rax
	movq	368(%rsp), %rcx
	movq	16(%rcx), %rcx
	vmovss	24(%rcx,%rax), %xmm0
	vcvtss2sd	%xmm0, %xmm0, %xmm0
	vaddsd	80(%rsp), %xmm0, %xmm0
	vmovsd	%xmm0, 80(%rsp)
.Ltmp61:
	.loc	1 804 0                 # streamcluster.cpp:804:0
	incl	76(%rsp)
.LBB5_30:                               # %for.cond166
                                        # =>This Inner Loop Header: Depth=1
	movslq	76(%rsp), %rax
	cmpq	312(%rsp), %rax
	jl	.LBB5_31
.Ltmp62:
# BB#32:                                # %for.end178
	.loc	1 807 0                 # streamcluster.cpp:807:0
	movq	_ZZ7pspeedyP6PointsfPliP17pthread_barrier_tE5costs(%rip), %rax
	movslq	348(%rsp), %rcx
	vmovsd	80(%rsp), %xmm0
	vmovsd	%xmm0, (%rax,%rcx,8)
	.loc	1 809 0                 # streamcluster.cpp:809:0
	movq	336(%rsp), %rdi
	callq	pthread_barrier_wait
	.loc	1 812 0                 # streamcluster.cpp:812:0
	cmpl	$0, 348(%rsp)
	jne	.LBB5_37
# BB#33:                                # %if.then183
	.loc	1 814 0                 # streamcluster.cpp:814:0
.Ltmp63:
	movq	352(%rsp), %rax
	vcvtsi2ssq	(%rax), %xmm0, %xmm0
	vmulss	364(%rsp), %xmm0, %xmm0
	vcvtss2sd	%xmm0, %xmm0, %xmm0
	vmovsd	%xmm0, _ZZ7pspeedyP6PointsfPliP17pthread_barrier_tE9totalcost(%rip)
	.loc	1 815 0                 # streamcluster.cpp:815:0
.Ltmp64:
	movl	$0, 72(%rsp)
.Ltmp65:
	#DEBUG_VALUE: i <- [%rsp+$72]+$0
	jmp	.LBB5_34
	.align	16, 0x90
.LBB5_35:                               # %for.inc193
                                        #   in Loop: Header=BB5_34 Depth=1
	.loc	1 817 0                 # streamcluster.cpp:817:0
.Ltmp66:
	movslq	72(%rsp), %rax
	movq	_ZZ7pspeedyP6PointsfPliP17pthread_barrier_tE5costs(%rip), %rcx
	vmovsd	_ZZ7pspeedyP6PointsfPliP17pthread_barrier_tE9totalcost(%rip), %xmm0
	vaddsd	(%rcx,%rax,8), %xmm0, %xmm0
	vmovsd	%xmm0, _ZZ7pspeedyP6PointsfPliP17pthread_barrier_tE9totalcost(%rip)
.Ltmp67:
	.loc	1 815 0                 # streamcluster.cpp:815:0
	incl	72(%rsp)
.LBB5_34:                               # %for.cond187
                                        # =>This Inner Loop Header: Depth=1
	movl	72(%rsp), %eax
	cmpl	_ZL5nproc(%rip), %eax
	jl	.LBB5_35
.Ltmp68:
# BB#36:                                # %for.end195
	.loc	1 819 0                 # streamcluster.cpp:819:0
	movq	_ZZ7pspeedyP6PointsfPliP17pthread_barrier_tE5costs(%rip), %rdi
	callq	free
.Ltmp69:
.LBB5_37:                               # %if.end196
	.loc	1 822 0                 # streamcluster.cpp:822:0
	movq	336(%rsp), %rdi
	callq	pthread_barrier_wait
	.loc	1 825 0                 # streamcluster.cpp:825:0
	vmovsd	_ZZ7pspeedyP6PointsfPliP17pthread_barrier_tE9totalcost(%rip), %xmm0
	vcvtsd2ss	%xmm0, %xmm0, %xmm0
	addq	$376, %rsp              # imm = 0x178
	ret
.Ltmp70:
.Ltmp71:
	.size	_Z7pspeedyP6PointsfPliP17pthread_barrier_t, .Ltmp71-_Z7pspeedyP6PointsfPliP17pthread_barrier_t
.Lfunc_end5:
	.cfi_endproc

	.section	.rodata.cst16,"aM",@progbits,16
	.align	16
.LCPI6_0:
	.quad	-9223372036854775808    # double -0.000000e+00
	.quad	-9223372036854775808    # double -0.000000e+00
	.section	.rodata.cst8,"aM",@progbits,8
	.align	8
.LCPI6_1:
	.quad	0                       # double 0.000000e+00
                                        #  (0x0)
	.text
	.globl	_Z5pgainlP6PointsdPliP17pthread_barrier_t
	.align	16, 0x90
	.type	_Z5pgainlP6PointsdPliP17pthread_barrier_t,@function
_Z5pgainlP6PointsdPliP17pthread_barrier_t: # @_Z5pgainlP6PointsdPliP17pthread_barrier_t
	.cfi_startproc
.Lfunc_begin6:
	.loc	1 950 0                 # streamcluster.cpp:950:0
# BB#0:                                 # %entry
	subq	$392, %rsp              # imm = 0x188
.Ltmp73:
	.cfi_def_cfa_offset 400
	movq	%rdi, 384(%rsp)
	movq	%rsi, 376(%rsp)
	vmovsd	%xmm0, 368(%rsp)
	movq	%rdx, 360(%rsp)
	movl	%ecx, 356(%rsp)
	movq	%r8, 344(%rsp)
	.loc	1 953 0 prologue_end    # streamcluster.cpp:953:0
.Ltmp74:
	movq	%r8, %rdi
	callq	pthread_barrier_wait
	.loc	1 957 0                 # streamcluster.cpp:957:0
	movq	376(%rsp), %rax
	movq	(%rax), %rax
	movslq	_ZL5nproc(%rip), %rcx
	cqto
	idivq	%rcx
	movq	%rax, 336(%rsp)
	.loc	1 958 0                 # streamcluster.cpp:958:0
	movslq	356(%rsp), %rcx
	imulq	%rax, %rcx
	movq	%rcx, 328(%rsp)
	.loc	1 959 0                 # streamcluster.cpp:959:0
	addq	336(%rsp), %rcx
	movq	%rcx, 320(%rsp)
	.loc	1 960 0                 # streamcluster.cpp:960:0
	movl	_ZL5nproc(%rip), %eax
	decl	%eax
	cmpl	%eax, 356(%rsp)
	jne	.LBB6_2
# BB#1:                                 # %if.then
	movq	376(%rsp), %rax
	movq	(%rax), %rax
	movq	%rax, 320(%rsp)
.LBB6_2:                                # %if.end
.Ltmp75:
	#DEBUG_VALUE: i <- [%rsp+$316]+$0
	#DEBUG_VALUE: number_of_centers_to_close <- [%rsp+$312]+$0
	.loc	1 963 0                 # streamcluster.cpp:963:0
	movl	$0, 312(%rsp)
	.loc	1 970 0                 # streamcluster.cpp:970:0
	movq	360(%rsp), %rax
.Ltmp76:
	#DEBUG_VALUE: stride <- [%rsp+$308]+$0
	movl	(%rax), %eax
	addl	$2, %eax
	movl	%eax, 308(%rsp)
	.loc	1 972 0                 # streamcluster.cpp:972:0
	movl	$4, 304(%rsp)
.Ltmp77:
	#DEBUG_VALUE: cl <- [%rsp+$304]+$0
	.loc	1 973 0                 # streamcluster.cpp:973:0
	movl	308(%rsp), %eax
	movl	%eax, %ecx
	sarl	$31, %ecx
	shrl	$30, %ecx
	addl	%eax, %ecx
	andl	$-4, %ecx
	cmpl	%ecx, %eax
	je	.LBB6_4
# BB#3:                                 # %if.then6
	.loc	1 974 0                 # streamcluster.cpp:974:0
.Ltmp78:
	movl	308(%rsp), %eax
	movl	304(%rsp), %ecx
	cltd
	idivl	%ecx
	incl	%eax
	imull	%ecx, %eax
	movl	%eax, 308(%rsp)
.Ltmp79:
.LBB6_4:                                # %if.end10
	#DEBUG_VALUE: K <- [%rsp+$300]+$0
	.loc	1 976 0                 # streamcluster.cpp:976:0
	movl	308(%rsp), %eax
	addl	$-2, %eax
	movl	%eax, 300(%rsp)
	.loc	1 979 0                 # streamcluster.cpp:979:0
	movq	$0, 288(%rsp)
	.loc	1 981 0                 # streamcluster.cpp:981:0
	cmpl	$0, 356(%rsp)
.Ltmp80:
	#DEBUG_VALUE: cost_of_opening_x <- [%rsp+$288]+$0
	jne	.LBB6_6
# BB#5:                                 # %if.then13
	.loc	1 982 0                 # streamcluster.cpp:982:0
.Ltmp81:
	movl	_ZL5nproc(%rip), %eax
	incl	%eax
	imull	308(%rsp), %eax
	movslq	%eax, %rdi
	shlq	$3, %rdi
	callq	malloc
	movq	%rax, _ZZ5pgainlP6PointsdPliP17pthread_barrier_tE8work_mem(%rip)
	.loc	1 983 0                 # streamcluster.cpp:983:0
	movq	$0, _ZZ5pgainlP6PointsdPliP17pthread_barrier_tE20gl_cost_of_opening_x(%rip)
	.loc	1 984 0                 # streamcluster.cpp:984:0
	movl	$0, _ZZ5pgainlP6PointsdPliP17pthread_barrier_tE29gl_number_of_centers_to_close(%rip)
.Ltmp82:
.LBB6_6:                                # %if.end19
	.loc	1 988 0                 # streamcluster.cpp:988:0
	movq	344(%rsp), %rdi
	callq	pthread_barrier_wait
	.loc	1 996 0                 # streamcluster.cpp:996:0
	movl	$0, 284(%rsp)
.Ltmp83:
	#DEBUG_VALUE: count <- [%rsp+$284]+$0
	.loc	1 997 0                 # streamcluster.cpp:997:0
	movl	328(%rsp), %eax
	movl	%eax, 280(%rsp)
.Ltmp84:
	#DEBUG_VALUE: i <- [%rsp+$280]+$0
	jmp	.LBB6_7
	.align	16, 0x90
.LBB6_10:                               # %for.inc
                                        #   in Loop: Header=BB6_7 Depth=1
	incl	280(%rsp)
.LBB6_7:                                # %for.cond
                                        # =>This Inner Loop Header: Depth=1
	movslq	280(%rsp), %rax
	cmpq	320(%rsp), %rax
	jge	.LBB6_11
# BB#8:                                 # %for.body
                                        #   in Loop: Header=BB6_7 Depth=1
	.loc	1 998 0                 # streamcluster.cpp:998:0
.Ltmp85:
	movslq	280(%rsp), %rax
	movq	_ZL9is_center(%rip), %rcx
	testb	$1, (%rcx,%rax)
	je	.LBB6_10
# BB#9:                                 # %if.then25
                                        #   in Loop: Header=BB6_7 Depth=1
	.loc	1 999 0                 # streamcluster.cpp:999:0
.Ltmp86:
	movl	284(%rsp), %eax
	leal	1(%rax), %ecx
	movl	%ecx, 284(%rsp)
	movq	_ZL12center_table(%rip), %rcx
	movslq	280(%rsp), %rdx
	movl	%eax, (%rcx,%rdx,4)
	jmp	.LBB6_10
.Ltmp87:
.LBB6_11:                               # %for.end
	.loc	1 1002 0                # streamcluster.cpp:1002:0
	vcvtsi2sd	284(%rsp), %xmm0, %xmm0
	movl	356(%rsp), %eax
	imull	308(%rsp), %eax
	movslq	%eax, %rax
	movq	_ZZ5pgainlP6PointsdPliP17pthread_barrier_tE8work_mem(%rip), %rcx
	vmovsd	%xmm0, (%rcx,%rax,8)
	.loc	1 1005 0                # streamcluster.cpp:1005:0
	movq	344(%rsp), %rdi
	callq	pthread_barrier_wait
	.loc	1 1008 0                # streamcluster.cpp:1008:0
	cmpl	$0, 356(%rsp)
	jne	.LBB6_15
# BB#12:                                # %if.then36
.Ltmp88:
	#DEBUG_VALUE: accum <- [%rsp+$276]+$0
	.loc	1 1009 0                # streamcluster.cpp:1009:0
	movl	$0, 276(%rsp)
	.loc	1 1010 0                # streamcluster.cpp:1010:0
.Ltmp89:
	movl	$0, 272(%rsp)
.Ltmp90:
	#DEBUG_VALUE: p <- [%rsp+$272]+$0
	jmp	.LBB6_13
	.align	16, 0x90
.LBB6_14:                               # %for.inc49
                                        #   in Loop: Header=BB6_13 Depth=1
.Ltmp91:
	#DEBUG_VALUE: tmp <- [%rsp+$268]+$0
	.loc	1 1011 0                # streamcluster.cpp:1011:0
	movl	272(%rsp), %eax
	imull	308(%rsp), %eax
	movslq	%eax, %rax
	movq	_ZZ5pgainlP6PointsdPliP17pthread_barrier_tE8work_mem(%rip), %rcx
	vcvttsd2si	(%rcx,%rax,8), %eax
	movl	%eax, 268(%rsp)
	.loc	1 1012 0                # streamcluster.cpp:1012:0
	vcvtsi2sd	276(%rsp), %xmm0, %xmm0
	movl	272(%rsp), %eax
	imull	308(%rsp), %eax
	movslq	%eax, %rax
	movq	_ZZ5pgainlP6PointsdPliP17pthread_barrier_tE8work_mem(%rip), %rcx
	vmovsd	%xmm0, (%rcx,%rax,8)
	.loc	1 1013 0                # streamcluster.cpp:1013:0
	movl	268(%rsp), %eax
	addl	%eax, 276(%rsp)
.Ltmp92:
	.loc	1 1010 0                # streamcluster.cpp:1010:0
	incl	272(%rsp)
.LBB6_13:                               # %for.cond37
                                        # =>This Inner Loop Header: Depth=1
	movl	272(%rsp), %eax
	cmpl	_ZL5nproc(%rip), %eax
	jl	.LBB6_14
.Ltmp93:
.LBB6_15:                               # %if.end52
	.loc	1 1018 0                # streamcluster.cpp:1018:0
	movq	344(%rsp), %rdi
	callq	pthread_barrier_wait
	.loc	1 1021 0                # streamcluster.cpp:1021:0
.Ltmp94:
	movl	328(%rsp), %eax
	movl	%eax, 264(%rsp)
.Ltmp95:
	#DEBUG_VALUE: i <- [%rsp+$264]+$0
	jmp	.LBB6_16
	.align	16, 0x90
.LBB6_19:                               # %for.inc73
                                        #   in Loop: Header=BB6_16 Depth=1
	incl	264(%rsp)
.LBB6_16:                               # %for.cond57
                                        # =>This Inner Loop Header: Depth=1
	movslq	264(%rsp), %rax
	cmpq	320(%rsp), %rax
	jge	.LBB6_20
# BB#17:                                # %for.body60
                                        #   in Loop: Header=BB6_16 Depth=1
	.loc	1 1022 0                # streamcluster.cpp:1022:0
.Ltmp96:
	movslq	264(%rsp), %rax
	movq	_ZL9is_center(%rip), %rcx
	testb	$1, (%rcx,%rax)
	je	.LBB6_19
# BB#18:                                # %if.then64
                                        #   in Loop: Header=BB6_16 Depth=1
	.loc	1 1023 0                # streamcluster.cpp:1023:0
.Ltmp97:
	movl	356(%rsp), %eax
	imull	308(%rsp), %eax
	movslq	%eax, %rax
	movq	_ZZ5pgainlP6PointsdPliP17pthread_barrier_tE8work_mem(%rip), %rcx
	vcvttsd2si	(%rcx,%rax,8), %eax
	movq	_ZL12center_table(%rip), %rcx
	movslq	264(%rsp), %rdx
	addl	%eax, (%rcx,%rdx,4)
	jmp	.LBB6_19
.Ltmp98:
.LBB6_20:                               # %for.end75
	.loc	1 1028 0                # streamcluster.cpp:1028:0
	movq	328(%rsp), %rdi
	movq	320(%rsp), %rdx
	subq	%rdi, %rdx
	addq	_ZL17switch_membership(%rip), %rdi
	xorl	%esi, %esi
	callq	memset
	.loc	1 1029 0                # streamcluster.cpp:1029:0
	movslq	308(%rsp), %rdx
	movl	356(%rsp), %eax
	imull	%edx, %eax
	movslq	%eax, %rax
	movq	_ZZ5pgainlP6PointsdPliP17pthread_barrier_tE8work_mem(%rip), %rcx
	leaq	(%rcx,%rax,8), %rdi
	shlq	$3, %rdx
	xorl	%esi, %esi
	callq	memset
	.loc	1 1030 0                # streamcluster.cpp:1030:0
	cmpl	$0, 356(%rsp)
	jne	.LBB6_22
# BB#21:                                # %if.then83
	movslq	308(%rsp), %rdx
	movl	_ZL5nproc(%rip), %eax
	imull	%edx, %eax
	movslq	%eax, %rax
	movq	_ZZ5pgainlP6PointsdPliP17pthread_barrier_tE8work_mem(%rip), %rcx
	leaq	(%rcx,%rax,8), %rdi
	shlq	$3, %rdx
	xorl	%esi, %esi
	callq	memset
.LBB6_22:                               # %if.end89
	.loc	1 1033 0                # streamcluster.cpp:1033:0
	movq	344(%rsp), %rdi
	callq	pthread_barrier_wait
	.loc	1 1037 0                # streamcluster.cpp:1037:0
	movl	356(%rsp), %eax
.Ltmp99:
	#DEBUG_VALUE: lower <- [%rsp+$256]+$0
	imull	308(%rsp), %eax
	movslq	%eax, %rax
	shlq	$3, %rax
	addq	_ZZ5pgainlP6PointsdPliP17pthread_barrier_tE8work_mem(%rip), %rax
	movq	%rax, 256(%rsp)
	.loc	1 1039 0                # streamcluster.cpp:1039:0
	movl	_ZL5nproc(%rip), %eax
.Ltmp100:
	#DEBUG_VALUE: gl_lower <- [%rsp+$248]+$0
	imull	308(%rsp), %eax
	movslq	%eax, %rax
	shlq	$3, %rax
	addq	_ZZ5pgainlP6PointsdPliP17pthread_barrier_tE8work_mem(%rip), %rax
	movq	%rax, 248(%rsp)
	.loc	1 1041 0                # streamcluster.cpp:1041:0
.Ltmp101:
	movl	328(%rsp), %eax
	movl	%eax, 316(%rsp)
	jmp	.LBB6_23
	.align	16, 0x90
.LBB6_25:                               # %if.then121
                                        #   in Loop: Header=BB6_23 Depth=1
	.loc	1 1052 0                # streamcluster.cpp:1052:0
.Ltmp102:
	movq	_ZL17switch_membership(%rip), %rax
	movslq	316(%rsp), %rcx
	movb	$1, (%rax,%rcx)
	.loc	1 1053 0                # streamcluster.cpp:1053:0
	vmovss	244(%rsp), %xmm0
	vsubss	172(%rsp), %xmm0, %xmm0
	vcvtss2sd	%xmm0, %xmm0, %xmm0
	vaddsd	288(%rsp), %xmm0, %xmm0
	vmovsd	%xmm0, 288(%rsp)
.Ltmp103:
	.loc	1 1041 0                # streamcluster.cpp:1041:0
	incl	316(%rsp)
.LBB6_23:                               # %for.cond100
                                        # =>This Inner Loop Header: Depth=1
	movslq	316(%rsp), %rax
	cmpq	320(%rsp), %rax
	jge	.LBB6_27
# BB#24:                                # %for.body103
                                        #   in Loop: Header=BB6_23 Depth=1
.Ltmp104:
	#DEBUG_VALUE: x_cost <- [%rsp+$244]+$0
	.loc	1 1042 0                # streamcluster.cpp:1042:0
	movq	376(%rsp), %rax
	movq	16(%rax), %rax
	movslq	316(%rsp), %rcx
	shlq	$5, %rcx
	movq	24(%rax,%rcx), %rdx
	movq	%rdx, 232(%rsp)
	movq	16(%rax,%rcx), %rdx
	movq	%rdx, 224(%rsp)
	movq	(%rax,%rcx), %rdx
	movq	8(%rax,%rcx), %rax
	movq	%rax, 216(%rsp)
	movq	%rdx, 208(%rsp)
	movq	376(%rsp), %rax
	movq	16(%rax), %rax
	movq	384(%rsp), %rcx
	shlq	$5, %rcx
	movq	24(%rax,%rcx), %rdx
	movq	%rdx, 200(%rsp)
	movq	16(%rax,%rcx), %rdx
	movq	%rdx, 192(%rsp)
	movq	(%rax,%rcx), %rdx
	movq	8(%rax,%rcx), %rax
	movq	%rax, 184(%rsp)
	movq	%rdx, 176(%rsp)
	movq	376(%rsp), %rax
	movl	8(%rax), %edi
	movq	176(%rsp), %rax
	movq	184(%rsp), %rcx
	movq	192(%rsp), %rdx
	movq	200(%rsp), %rsi
	movq	%rsi, 56(%rsp)
	movq	%rdx, 48(%rsp)
	movq	%rcx, 40(%rsp)
	movq	%rax, 32(%rsp)
	movq	232(%rsp), %rax
	movq	%rax, 24(%rsp)
	movq	224(%rsp), %rax
	movq	%rax, 16(%rsp)
	movq	208(%rsp), %rax
	movq	216(%rsp), %rcx
	movq	%rcx, 8(%rsp)
	movq	%rax, (%rsp)
	callq	_Z4dist5PointS_i
	movslq	316(%rsp), %rax
	shlq	$5, %rax
	movq	376(%rsp), %rcx
	movq	16(%rcx), %rcx
	vmulss	(%rcx,%rax), %xmm0, %xmm0
	vmovss	%xmm0, 244(%rsp)
	.loc	1 1044 0                # streamcluster.cpp:1044:0
	movslq	316(%rsp), %rax
	shlq	$5, %rax
	movq	376(%rsp), %rcx
.Ltmp105:
	#DEBUG_VALUE: current_cost <- [%rsp+$172]+$0
	movq	16(%rcx), %rcx
	vmovss	24(%rcx,%rax), %xmm0
	vmovss	%xmm0, 172(%rsp)
	vucomiss	244(%rsp), %xmm0
	ja	.LBB6_25
# BB#26:                                # %if.else
                                        #   in Loop: Header=BB6_23 Depth=1
.Ltmp106:
	#DEBUG_VALUE: assign <- [%rsp+$168]+$0
	.loc	1 1064 0                # streamcluster.cpp:1064:0
	movslq	316(%rsp), %rax
	shlq	$5, %rax
	movq	376(%rsp), %rcx
	movq	16(%rcx), %rcx
	movl	16(%rcx,%rax), %eax
	movl	%eax, 168(%rsp)
	.loc	1 1065 0                # streamcluster.cpp:1065:0
	movslq	168(%rsp), %rax
	movq	_ZL12center_table(%rip), %rcx
	movslq	(%rcx,%rax,4), %rax
	vmovss	172(%rsp), %xmm0
	vsubss	244(%rsp), %xmm0, %xmm0
	vcvtss2sd	%xmm0, %xmm0, %xmm0
	movq	256(%rsp), %rcx
	vaddsd	(%rcx,%rax,8), %xmm0, %xmm0
	vmovsd	%xmm0, (%rcx,%rax,8)
.Ltmp107:
	.loc	1 1041 0                # streamcluster.cpp:1041:0
	incl	316(%rsp)
	jmp	.LBB6_23
.Ltmp108:
.LBB6_27:                               # %for.end143
	.loc	1 1070 0                # streamcluster.cpp:1070:0
	movq	344(%rsp), %rdi
	callq	pthread_barrier_wait
	.loc	1 1076 0                # streamcluster.cpp:1076:0
.Ltmp109:
	movl	328(%rsp), %eax
	movl	%eax, 164(%rsp)
.Ltmp110:
	#DEBUG_VALUE: i <- [%rsp+$164]+$0
	vxorpd	%xmm0, %xmm0, %xmm0
	jmp	.LBB6_28
	.align	16, 0x90
.LBB6_35:                               # %for.inc182
                                        #   in Loop: Header=BB6_28 Depth=1
	incl	164(%rsp)
.LBB6_28:                               # %for.cond148
                                        # =>This Loop Header: Depth=1
                                        #     Child Loop BB6_31 Depth 2
	movslq	164(%rsp), %rax
	cmpq	320(%rsp), %rax
	jge	.LBB6_36
# BB#29:                                # %for.body151
                                        #   in Loop: Header=BB6_28 Depth=1
	.loc	1 1077 0                # streamcluster.cpp:1077:0
.Ltmp111:
	movslq	164(%rsp), %rax
	movq	_ZL9is_center(%rip), %rcx
	testb	$1, (%rcx,%rax)
	je	.LBB6_35
# BB#30:                                # %if.then155
                                        #   in Loop: Header=BB6_28 Depth=1
.Ltmp112:
	#DEBUG_VALUE: low <- [%rsp+$152]+$0
	.loc	1 1078 0                # streamcluster.cpp:1078:0
	vmovsd	368(%rsp), %xmm1
	vmovsd	%xmm1, 152(%rsp)
	.loc	1 1080 0                # streamcluster.cpp:1080:0
.Ltmp113:
	movl	$0, 148(%rsp)
.Ltmp114:
	#DEBUG_VALUE: p <- [%rsp+$148]+$0
	jmp	.LBB6_31
	.align	16, 0x90
.LBB6_32:                               # %for.inc169
                                        #   in Loop: Header=BB6_31 Depth=2
	.loc	1 1081 0                # streamcluster.cpp:1081:0
.Ltmp115:
	movl	148(%rsp), %eax
	imull	308(%rsp), %eax
	movslq	164(%rsp), %rcx
	movq	_ZL12center_table(%rip), %rdx
	addl	(%rdx,%rcx,4), %eax
	movslq	%eax, %rax
	movq	_ZZ5pgainlP6PointsdPliP17pthread_barrier_tE8work_mem(%rip), %rcx
	vmovsd	152(%rsp), %xmm1
	vaddsd	(%rcx,%rax,8), %xmm1, %xmm1
	vmovsd	%xmm1, 152(%rsp)
.Ltmp116:
	.loc	1 1080 0                # streamcluster.cpp:1080:0
	incl	148(%rsp)
.LBB6_31:                               # %for.cond159
                                        #   Parent Loop BB6_28 Depth=1
                                        # =>  This Inner Loop Header: Depth=2
	movl	148(%rsp), %eax
	cmpl	_ZL5nproc(%rip), %eax
	jl	.LBB6_32
.Ltmp117:
# BB#33:                                # %for.end171
                                        #   in Loop: Header=BB6_28 Depth=1
	.loc	1 1083 0                # streamcluster.cpp:1083:0
	movslq	164(%rsp), %rax
	movq	_ZL12center_table(%rip), %rcx
	movslq	(%rcx,%rax,4), %rax
	movq	248(%rsp), %rcx
	vmovsd	152(%rsp), %xmm1
	vmovsd	%xmm1, (%rcx,%rax,8)
	.loc	1 1084 0                # streamcluster.cpp:1084:0
	vmovsd	152(%rsp), %xmm1
	vucomisd	%xmm0, %xmm1
	jbe	.LBB6_35
# BB#34:                                # %if.then177
                                        #   in Loop: Header=BB6_28 Depth=1
	.loc	1 1089 0                # streamcluster.cpp:1089:0
.Ltmp118:
	incl	312(%rsp)
	.loc	1 1090 0                # streamcluster.cpp:1090:0
	vmovsd	288(%rsp), %xmm1
	vsubsd	152(%rsp), %xmm1, %xmm1
	vmovsd	%xmm1, 288(%rsp)
	jmp	.LBB6_35
.Ltmp119:
.LBB6_36:                               # %for.end184
	.loc	1 1095 0                # streamcluster.cpp:1095:0
	vcvtsi2sd	312(%rsp), %xmm0, %xmm0
	movl	356(%rsp), %eax
	imull	308(%rsp), %eax
	addl	300(%rsp), %eax
	movslq	%eax, %rax
	movq	_ZZ5pgainlP6PointsdPliP17pthread_barrier_tE8work_mem(%rip), %rcx
	vmovsd	%xmm0, (%rcx,%rax,8)
	.loc	1 1096 0                # streamcluster.cpp:1096:0
	movl	356(%rsp), %eax
	imull	308(%rsp), %eax
	movl	300(%rsp), %ecx
	leal	1(%rax,%rcx), %eax
	movslq	%eax, %rax
	movq	_ZZ5pgainlP6PointsdPliP17pthread_barrier_tE8work_mem(%rip), %rcx
	vmovsd	288(%rsp), %xmm0
	vmovsd	%xmm0, (%rcx,%rax,8)
	.loc	1 1099 0                # streamcluster.cpp:1099:0
	movq	344(%rsp), %rdi
	callq	pthread_barrier_wait
	.loc	1 1103 0                # streamcluster.cpp:1103:0
	cmpl	$0, 356(%rsp)
	jne	.LBB6_40
# BB#37:                                # %if.then197
	.loc	1 1104 0                # streamcluster.cpp:1104:0
.Ltmp120:
	vmovsd	368(%rsp), %xmm0
	vmovsd	%xmm0, _ZZ5pgainlP6PointsdPliP17pthread_barrier_tE20gl_cost_of_opening_x(%rip)
	.loc	1 1106 0                # streamcluster.cpp:1106:0
.Ltmp121:
	movl	$0, 144(%rsp)
.Ltmp122:
	#DEBUG_VALUE: p <- [%rsp+$144]+$0
	jmp	.LBB6_38
	.align	16, 0x90
.LBB6_39:                               # %for.inc215
                                        #   in Loop: Header=BB6_38 Depth=1
	.loc	1 1107 0                # streamcluster.cpp:1107:0
.Ltmp123:
	movl	144(%rsp), %eax
	imull	308(%rsp), %eax
	addl	300(%rsp), %eax
	movslq	%eax, %rax
	movq	_ZZ5pgainlP6PointsdPliP17pthread_barrier_tE8work_mem(%rip), %rcx
	vcvttsd2si	(%rcx,%rax,8), %eax
	addl	%eax, _ZZ5pgainlP6PointsdPliP17pthread_barrier_tE29gl_number_of_centers_to_close(%rip)
	.loc	1 1108 0                # streamcluster.cpp:1108:0
	movl	144(%rsp), %eax
	imull	308(%rsp), %eax
	movl	300(%rsp), %ecx
	leal	1(%rax,%rcx), %eax
	movslq	%eax, %rax
	movq	_ZZ5pgainlP6PointsdPliP17pthread_barrier_tE8work_mem(%rip), %rcx
	vmovsd	_ZZ5pgainlP6PointsdPliP17pthread_barrier_tE20gl_cost_of_opening_x(%rip), %xmm0
	vaddsd	(%rcx,%rax,8), %xmm0, %xmm0
	vmovsd	%xmm0, _ZZ5pgainlP6PointsdPliP17pthread_barrier_tE20gl_cost_of_opening_x(%rip)
.Ltmp124:
	.loc	1 1106 0                # streamcluster.cpp:1106:0
	incl	144(%rsp)
.LBB6_38:                               # %for.cond200
                                        # =>This Inner Loop Header: Depth=1
	movl	144(%rsp), %eax
	cmpl	_ZL5nproc(%rip), %eax
	jl	.LBB6_39
.Ltmp125:
.LBB6_40:                               # %if.end218
	.loc	1 1112 0                # streamcluster.cpp:1112:0
	movq	344(%rsp), %rdi
	callq	pthread_barrier_wait
	vxorpd	%xmm0, %xmm0, %xmm0
	vucomisd	_ZZ5pgainlP6PointsdPliP17pthread_barrier_tE20gl_cost_of_opening_x(%rip), %xmm0
	.loc	1 1117 0                # streamcluster.cpp:1117:0
	jbe	.LBB6_58
# BB#41:                                # %if.then221
.Ltmp126:
	#DEBUG_VALUE: i <- [%rsp+$140]+$0
	.loc	1 1119 0                # streamcluster.cpp:1119:0
	movl	328(%rsp), %eax
	movl	%eax, 140(%rsp)
	jmp	.LBB6_42
	.align	16, 0x90
.LBB6_46:                               # %for.inc266
                                        #   in Loop: Header=BB6_42 Depth=1
	incl	140(%rsp)
.LBB6_42:                               # %for.cond225
                                        # =>This Inner Loop Header: Depth=1
	movslq	140(%rsp), %rax
	cmpq	320(%rsp), %rax
	jge	.LBB6_47
# BB#43:                                # %for.body228
                                        #   in Loop: Header=BB6_42 Depth=1
.Ltmp127:
	#DEBUG_VALUE: close_center <- [%rsp+$139]+$0
	.loc	1 1120 0                # streamcluster.cpp:1120:0
	movslq	140(%rsp), %rax
	shlq	$5, %rax
	movq	376(%rsp), %rcx
	movq	16(%rcx), %rcx
	movq	16(%rcx,%rax), %rax
	movq	_ZL12center_table(%rip), %rcx
	movslq	(%rcx,%rax,4), %rax
	movq	248(%rsp), %rcx
	vmovsd	(%rcx,%rax,8), %xmm0
	vucomisd	.LCPI6_1, %xmm0
	seta	139(%rsp)
	.loc	1 1121 0                # streamcluster.cpp:1121:0
	movslq	140(%rsp), %rax
	movq	_ZL17switch_membership(%rip), %rcx
	testb	$1, (%rcx,%rax)
	jne	.LBB6_45
# BB#44:                                # %lor.lhs.false
                                        #   in Loop: Header=BB6_42 Depth=1
	testb	$1, 139(%rsp)
	je	.LBB6_46
.LBB6_45:                               # %if.then242
                                        #   in Loop: Header=BB6_42 Depth=1
	.loc	1 1124 0                # streamcluster.cpp:1124:0
.Ltmp128:
	movslq	140(%rsp), %rax
	shlq	$5, %rax
	movq	376(%rsp), %rcx
	movq	16(%rcx), %rcx
	vmovss	(%rcx,%rax), %xmm0
	.loc	1 1125 0                # streamcluster.cpp:1125:0
	vmovss	%xmm0, 64(%rsp)         # 4-byte Spill
	movq	24(%rcx,%rax), %rdx
	movq	%rdx, 128(%rsp)
	movq	16(%rcx,%rax), %rdx
	movq	%rdx, 120(%rsp)
	movq	(%rcx,%rax), %rdx
	movq	8(%rcx,%rax), %rax
	movq	%rax, 112(%rsp)
	movq	%rdx, 104(%rsp)
	movq	376(%rsp), %rax
	movq	16(%rax), %rax
	movq	384(%rsp), %rcx
	shlq	$5, %rcx
	movq	24(%rax,%rcx), %rdx
	movq	%rdx, 96(%rsp)
	movq	16(%rax,%rcx), %rdx
	movq	%rdx, 88(%rsp)
	movq	(%rax,%rcx), %rdx
	movq	8(%rax,%rcx), %rax
	movq	%rax, 80(%rsp)
	movq	%rdx, 72(%rsp)
	movq	376(%rsp), %rax
	movl	8(%rax), %edi
	movq	72(%rsp), %rax
	movq	80(%rsp), %rcx
	movq	88(%rsp), %rdx
	movq	96(%rsp), %rsi
	movq	%rsi, 56(%rsp)
	movq	%rdx, 48(%rsp)
	movq	%rcx, 40(%rsp)
	movq	%rax, 32(%rsp)
	movq	128(%rsp), %rax
	movq	%rax, 24(%rsp)
	movq	120(%rsp), %rax
	movq	%rax, 16(%rsp)
	movq	104(%rsp), %rax
	movq	112(%rsp), %rcx
	movq	%rcx, 8(%rsp)
	movq	%rax, (%rsp)
	callq	_Z4dist5PointS_i
	vmovss	64(%rsp), %xmm1         # 4-byte Reload
	vmulss	%xmm0, %xmm1, %xmm0
	movq	376(%rsp), %rax
	movq	16(%rax), %rax
	movslq	140(%rsp), %rcx
	shlq	$5, %rcx
	vmovss	%xmm0, 24(%rax,%rcx)
	.loc	1 1126 0                # streamcluster.cpp:1126:0
	movq	376(%rsp), %rax
	movq	16(%rax), %rax
	movslq	140(%rsp), %rcx
	shlq	$5, %rcx
	movq	384(%rsp), %rdx
	movq	%rdx, 16(%rax,%rcx)
	jmp	.LBB6_46
.Ltmp129:
.LBB6_58:                               # %if.else303
	.loc	1 1143 0                # streamcluster.cpp:1143:0
	cmpl	$0, 356(%rsp)
	jne	.LBB6_60
# BB#59:                                # %if.then305
	.loc	1 1144 0                # streamcluster.cpp:1144:0
	movq	$0, _ZZ5pgainlP6PointsdPliP17pthread_barrier_tE20gl_cost_of_opening_x(%rip)
	jmp	.LBB6_60
.Ltmp130:
.LBB6_47:                               # %for.end268
	#DEBUG_VALUE: i <- [%rsp+$68]+$0
	.loc	1 1129 0                # streamcluster.cpp:1129:0
	movl	328(%rsp), %eax
	movl	%eax, 68(%rsp)
	vxorpd	%xmm0, %xmm0, %xmm0
	jmp	.LBB6_48
	.align	16, 0x90
.LBB6_52:                               # %for.inc288
                                        #   in Loop: Header=BB6_48 Depth=1
	incl	68(%rsp)
.LBB6_48:                               # %for.cond272
                                        # =>This Inner Loop Header: Depth=1
	movslq	68(%rsp), %rax
	cmpq	320(%rsp), %rax
	jge	.LBB6_53
# BB#49:                                # %for.body275
                                        #   in Loop: Header=BB6_48 Depth=1
	.loc	1 1130 0                # streamcluster.cpp:1130:0
.Ltmp131:
	movslq	68(%rsp), %rax
	movq	_ZL9is_center(%rip), %rcx
	testb	$1, (%rcx,%rax)
	je	.LBB6_52
# BB#50:                                # %land.lhs.true
                                        #   in Loop: Header=BB6_48 Depth=1
	movslq	68(%rsp), %rax
	movq	_ZL12center_table(%rip), %rcx
	movslq	(%rcx,%rax,4), %rax
	movq	248(%rsp), %rcx
	vmovsd	(%rcx,%rax,8), %xmm1
	vucomisd	%xmm0, %xmm1
	jbe	.LBB6_52
# BB#51:                                # %if.then284
                                        #   in Loop: Header=BB6_48 Depth=1
	.loc	1 1131 0                # streamcluster.cpp:1131:0
.Ltmp132:
	movq	_ZL9is_center(%rip), %rax
	movslq	68(%rsp), %rcx
	movb	$0, (%rax,%rcx)
	jmp	.LBB6_52
.Ltmp133:
.LBB6_53:                               # %for.end290
	.loc	1 1134 0                # streamcluster.cpp:1134:0
	movq	384(%rsp), %rax
	cmpq	328(%rsp), %rax
	jl	.LBB6_56
# BB#54:                                # %land.lhs.true292
	movq	384(%rsp), %rax
	cmpq	320(%rsp), %rax
	jge	.LBB6_56
# BB#55:                                # %if.then294
	.loc	1 1135 0                # streamcluster.cpp:1135:0
.Ltmp134:
	movq	_ZL9is_center(%rip), %rax
	movq	384(%rsp), %rcx
	movb	$1, (%rax,%rcx)
.Ltmp135:
.LBB6_56:                               # %if.end296
	.loc	1 1138 0                # streamcluster.cpp:1138:0
	cmpl	$0, 356(%rsp)
	jne	.LBB6_60
# BB#57:                                # %if.then298
	.loc	1 1139 0                # streamcluster.cpp:1139:0
.Ltmp136:
	movq	360(%rsp), %rax
	movq	(%rax), %rcx
	incq	%rcx
	movslq	_ZZ5pgainlP6PointsdPliP17pthread_barrier_tE29gl_number_of_centers_to_close(%rip), %rdx
	subq	%rdx, %rcx
	movq	%rcx, (%rax)
.Ltmp137:
.LBB6_60:                               # %if.end307
	.loc	1 1147 0                # streamcluster.cpp:1147:0
	movq	344(%rsp), %rdi
	callq	pthread_barrier_wait
	.loc	1 1149 0                # streamcluster.cpp:1149:0
	cmpl	$0, 356(%rsp)
	jne	.LBB6_62
# BB#61:                                # %if.then310
	.loc	1 1150 0                # streamcluster.cpp:1150:0
.Ltmp138:
	movq	_ZZ5pgainlP6PointsdPliP17pthread_barrier_tE8work_mem(%rip), %rdi
	callq	free
.Ltmp139:
.LBB6_62:                               # %if.end311
	.loc	1 1157 0                # streamcluster.cpp:1157:0
	vmovsd	_ZZ5pgainlP6PointsdPliP17pthread_barrier_tE20gl_cost_of_opening_x(%rip), %xmm0
	vxorpd	.LCPI6_0(%rip), %xmm0, %xmm0
	addq	$392, %rsp              # imm = 0x188
	ret
.Ltmp140:
.Ltmp141:
	.size	_Z5pgainlP6PointsdPliP17pthread_barrier_t, .Ltmp141-_Z5pgainlP6PointsdPliP17pthread_barrier_t
.Lfunc_end6:
	.cfi_endproc

	.globl	_Z3pFLP6PointsPiifPldlfiP17pthread_barrier_t
	.align	16, 0x90
	.type	_Z3pFLP6PointsPiifPldlfiP17pthread_barrier_t,@function
_Z3pFLP6PointsPiifPldlfiP17pthread_barrier_t: # @_Z3pFLP6PointsPiifPldlfiP17pthread_barrier_t
	.cfi_startproc
.Lfunc_begin7:
	.loc	1 1207 0                # streamcluster.cpp:1207:0
# BB#0:                                 # %entry
	subq	$104, %rsp
.Ltmp143:
	.cfi_def_cfa_offset 112
	movq	%rdi, 96(%rsp)
	movq	%rsi, 88(%rsp)
	movl	%edx, 84(%rsp)
	vmovss	%xmm0, 80(%rsp)
	movq	%rcx, 72(%rsp)
	vmovsd	%xmm1, 64(%rsp)
	movq	112(%rsp), %rdi
	movq	%r8, 56(%rsp)
	vmovss	%xmm2, 52(%rsp)
	movl	%r9d, 48(%rsp)
	movq	%rdi, 40(%rsp)
	.loc	1 1209 0 prologue_end   # streamcluster.cpp:1209:0
.Ltmp144:
	callq	pthread_barrier_wait
	.loc	1 1216 0                # streamcluster.cpp:1216:0
	vmovsd	64(%rsp), %xmm0
	vmovsd	%xmm0, 16(%rsp)
	jmp	.LBB7_1
	.align	16, 0x90
.LBB7_7:                                # %for.end
                                        #   in Loop: Header=BB7_1 Depth=1
	.loc	1 1234 0                # streamcluster.cpp:1234:0
.Ltmp145:
	vmovsd	64(%rsp), %xmm0
	vsubsd	16(%rsp), %xmm0, %xmm0
	vmovsd	%xmm0, 64(%rsp)
	.loc	1 1236 0                # streamcluster.cpp:1236:0
	movq	40(%rsp), %rdi
	callq	pthread_barrier_wait
.Ltmp146:
.LBB7_1:                                # %while.cond
                                        # =>This Loop Header: Depth=1
                                        #     Child Loop BB7_5 Depth 2
	.loc	1 1219 0                # streamcluster.cpp:1219:0
	vmovsd	16(%rsp), %xmm0
	vdivsd	64(%rsp), %xmm0, %xmm0
	vmovss	52(%rsp), %xmm1
	vcvtss2sd	%xmm1, %xmm0, %xmm1
	vucomisd	%xmm1, %xmm0
	jbe	.LBB7_8
# BB#2:                                 # %while.body
                                        #   in Loop: Header=BB7_1 Depth=1
	.loc	1 1220 0                # streamcluster.cpp:1220:0
.Ltmp147:
	movq	$0, 16(%rsp)
	.loc	1 1221 0                # streamcluster.cpp:1221:0
	movq	96(%rsp), %rax
	movq	(%rax), %rax
	movq	%rax, 8(%rsp)
	.loc	1 1224 0                # streamcluster.cpp:1224:0
	cmpl	$0, 48(%rsp)
	jne	.LBB7_4
# BB#3:                                 # %if.then
                                        #   in Loop: Header=BB7_1 Depth=1
	.loc	1 1225 0                # streamcluster.cpp:1225:0
.Ltmp148:
	movl	84(%rsp), %esi
	movq	88(%rsp), %rdi
	callq	_Z10intshufflePii
.Ltmp149:
.LBB7_4:                                # %if.end
                                        #   in Loop: Header=BB7_1 Depth=1
	.loc	1 1228 0                # streamcluster.cpp:1228:0
	movq	40(%rsp), %rdi
	callq	pthread_barrier_wait
	.loc	1 1230 0                # streamcluster.cpp:1230:0
.Ltmp150:
	movq	$0, 32(%rsp)
	jmp	.LBB7_5
	.align	16, 0x90
.LBB7_6:                                # %for.inc
                                        #   in Loop: Header=BB7_5 Depth=2
	.loc	1 1231 0                # streamcluster.cpp:1231:0
.Ltmp151:
	movq	32(%rsp), %rax
	movslq	84(%rsp), %rcx
	cqto
	idivq	%rcx
	movq	%rdx, 24(%rsp)
	.loc	1 1232 0                # streamcluster.cpp:1232:0
	vmovss	80(%rsp), %xmm0
	vcvtss2sd	%xmm0, %xmm0, %xmm0
	movq	88(%rsp), %rax
	movslq	(%rax,%rdx,4), %rdi
	movq	40(%rsp), %r8
	movl	48(%rsp), %ecx
	movq	72(%rsp), %rdx
	movq	96(%rsp), %rsi
	callq	_Z5pgainlP6PointsdPliP17pthread_barrier_t
	vaddsd	16(%rsp), %xmm0, %xmm0
	vmovsd	%xmm0, 16(%rsp)
.Ltmp152:
	.loc	1 1230 0                # streamcluster.cpp:1230:0
	incq	32(%rsp)
.LBB7_5:                                # %for.cond
                                        #   Parent Loop BB7_1 Depth=1
                                        # =>  This Inner Loop Header: Depth=2
	movq	32(%rsp), %rax
	cmpq	56(%rsp), %rax
	jge	.LBB7_7
	jmp	.LBB7_6
.Ltmp153:
.LBB7_8:                                # %while.end
	.loc	1 1239 0                # streamcluster.cpp:1239:0
	vmovsd	64(%rsp), %xmm0
	vcvtsd2ss	%xmm0, %xmm0, %xmm0
	addq	$104, %rsp
	ret
.Ltmp154:
.Ltmp155:
	.size	_Z3pFLP6PointsPiifPldlfiP17pthread_barrier_t, .Ltmp155-_Z3pFLP6PointsPiifPldlfiP17pthread_barrier_t
.Lfunc_end7:
	.cfi_endproc

	.section	.rodata.cst4,"aM",@progbits,4
	.align	4
.LCPI8_0:
	.long	1325400064              # float 2.147484e+09
                                        #  (0x4f000000)
	.text
	.globl	_Z19selectfeasible_fastP6PointsPPiiiP17pthread_barrier_t
	.align	16, 0x90
	.type	_Z19selectfeasible_fastP6PointsPPiiiP17pthread_barrier_t,@function
_Z19selectfeasible_fastP6PointsPPiiiP17pthread_barrier_t: # @_Z19selectfeasible_fastP6PointsPPiiiP17pthread_barrier_t
	.cfi_startproc
.Lfunc_begin8:
	.loc	1 1251 0                # streamcluster.cpp:1251:0
# BB#0:                                 # %entry
	pushq	%rbx
.Ltmp158:
	.cfi_def_cfa_offset 16
	subq	$128, %rsp
.Ltmp159:
	.cfi_def_cfa_offset 144
.Ltmp160:
	.cfi_offset %rbx, -16
	movq	%rdi, 112(%rsp)
	movq	%rsi, 104(%rsp)
	movl	%edx, 100(%rsp)
	movl	%ecx, 96(%rsp)
	movq	%r8, 88(%rsp)
	.loc	1 1252 0 prologue_end   # streamcluster.cpp:1252:0
.Ltmp161:
	movq	112(%rsp), %rax
	movl	(%rax), %ebx
	movl	%ebx, 84(%rsp)
	.loc	1 1253 0                # streamcluster.cpp:1253:0
	movl	100(%rsp), %eax
	leal	(%rax,%rax,2), %ecx
	vcvtsi2sd	%ecx, %xmm0, %xmm0
	vmovsd	%xmm0, 8(%rsp)          # 8-byte Spill
	vcvtsi2sd	%eax, %xmm0, %xmm0
	callq	log
	vmovsd	8(%rsp), %xmm1          # 8-byte Reload
	vmulsd	%xmm0, %xmm1, %xmm0
	vcvtsi2sd	%ebx, %xmm0, %xmm1
	vucomisd	%xmm0, %xmm1
	jbe	.LBB8_2
# BB#1:                                 # %if.then
	.loc	1 1254 0                # streamcluster.cpp:1254:0
	movl	100(%rsp), %eax
	leal	(%rax,%rax,2), %ecx
	vcvtsi2sd	%ecx, %xmm0, %xmm0
	vmovsd	%xmm0, 8(%rsp)          # 8-byte Spill
	vcvtsi2sd	%eax, %xmm0, %xmm0
	callq	log
	vmovsd	8(%rsp), %xmm1          # 8-byte Reload
	vmulsd	%xmm0, %xmm1, %xmm0
	vcvttsd2si	%xmm0, %eax
	movl	%eax, 84(%rsp)
.LBB8_2:                                # %if.end
	.loc	1 1255 0                # streamcluster.cpp:1255:0
	movslq	84(%rsp), %rdi
	shlq	$2, %rdi
	callq	malloc
	movq	104(%rsp), %rcx
	movq	%rax, (%rcx)
	.loc	1 1270 0                # streamcluster.cpp:1270:0
	movq	$0, 56(%rsp)
.Ltmp162:
	#DEBUG_VALUE: k1 <- [%rsp+$56]+$0
	#DEBUG_VALUE: totalweight <- [%rsp+$68]+$0
	#DEBUG_VALUE: accumweight <- [%rsp+$72]+$0
	.loc	1 1271 0                # streamcluster.cpp:1271:0
	movslq	84(%rsp), %rax
	movq	%rax, 48(%rsp)
.Ltmp163:
	#DEBUG_VALUE: k2 <- [%rsp+$48]+$0
	.loc	1 1277 0                # streamcluster.cpp:1277:0
	movq	112(%rsp), %rax
.Ltmp164:
	#DEBUG_VALUE: k <- [%rsp+$32]+$0
	#DEBUG_VALUE: r <- [%rsp+$36]+$0
	#DEBUG_VALUE: l <- [%rsp+$40]+$0
	#DEBUG_VALUE: w <- [%rsp+$44]+$0
	movslq	84(%rsp), %rcx
	cmpq	(%rax), %rcx
	jne	.LBB8_6
# BB#3:                                 # %if.then18
.Ltmp165:
	#DEBUG_VALUE: i <- [%rsp+$28]+$0
	.loc	1 1278 0                # streamcluster.cpp:1278:0
	movl	56(%rsp), %eax
	movl	%eax, 28(%rsp)
	jmp	.LBB8_4
	.align	16, 0x90
.LBB8_5:                                # %for.inc
                                        #   in Loop: Header=BB8_4 Depth=1
	.loc	1 1279 0                # streamcluster.cpp:1279:0
	movq	104(%rsp), %rax
	movq	(%rax), %rax
	movslq	28(%rsp), %rcx
	movl	%ecx, (%rax,%rcx,4)
	.loc	1 1278 0                # streamcluster.cpp:1278:0
	incl	28(%rsp)
.LBB8_4:                                # %for.cond
                                        # =>This Inner Loop Header: Depth=1
	movslq	28(%rsp), %rax
	cmpq	48(%rsp), %rax
	jge	.LBB8_19
	jmp	.LBB8_5
.Ltmp166:
.LBB8_6:                                # %if.end22
	.loc	1 1285 0                # streamcluster.cpp:1285:0
	movq	112(%rsp), %rax
	movq	(%rax), %rdi
	shlq	$2, %rdi
	callq	malloc
	movq	%rax, 72(%rsp)
	.loc	1 1288 0                # streamcluster.cpp:1288:0
	movq	112(%rsp), %rcx
	movq	16(%rcx), %rcx
	vmovss	(%rcx), %xmm0
	vmovss	%xmm0, (%rax)
	.loc	1 1289 0                # streamcluster.cpp:1289:0
	movl	$0, 68(%rsp)
	.loc	1 1290 0                # streamcluster.cpp:1290:0
.Ltmp167:
	movl	$1, 24(%rsp)
.Ltmp168:
	#DEBUG_VALUE: i <- [%rsp+$24]+$0
	jmp	.LBB8_7
	.align	16, 0x90
.LBB8_8:                                # %for.inc42
                                        #   in Loop: Header=BB8_7 Depth=1
	.loc	1 1291 0                # streamcluster.cpp:1291:0
.Ltmp169:
	movslq	24(%rsp), %rax
	leal	-1(%rax), %ecx
	movslq	%ecx, %rdx
	movq	72(%rsp), %rcx
	vmovss	(%rcx,%rdx,4), %xmm0
	movq	%rax, %rdx
	shlq	$5, %rdx
	movq	112(%rsp), %rsi
	movq	16(%rsi), %rsi
	vaddss	(%rsi,%rdx), %xmm0, %xmm0
	vmovss	%xmm0, (%rcx,%rax,4)
.Ltmp170:
	.loc	1 1290 0                # streamcluster.cpp:1290:0
	incl	24(%rsp)
.LBB8_7:                                # %for.cond29
                                        # =>This Inner Loop Header: Depth=1
	movq	112(%rsp), %rax
	movslq	24(%rsp), %rcx
	cmpq	(%rax), %rcx
	jl	.LBB8_8
.Ltmp171:
# BB#9:                                 # %for.end44
	.loc	1 1293 0                # streamcluster.cpp:1293:0
	movq	112(%rsp), %rax
	movq	(%rax), %rax
	movq	72(%rsp), %rcx
	vmovss	-4(%rcx,%rax,4), %xmm0
	vmovss	%xmm0, 68(%rsp)
	.loc	1 1295 0                # streamcluster.cpp:1295:0
.Ltmp172:
	movl	56(%rsp), %eax
	movl	%eax, 20(%rsp)
.Ltmp173:
	#DEBUG_VALUE: i <- [%rsp+$20]+$0
	jmp	.LBB8_10
	.align	16, 0x90
.LBB8_12:                               # %if.then62
                                        #   in Loop: Header=BB8_10 Depth=1
	.loc	1 1301 0                # streamcluster.cpp:1301:0
.Ltmp174:
	movq	104(%rsp), %rax
	movq	(%rax), %rax
	movslq	20(%rsp), %rcx
	movl	$0, (%rax,%rcx,4)
.Ltmp175:
	.loc	1 1295 0                # streamcluster.cpp:1295:0
	incl	20(%rsp)
.LBB8_10:                               # %for.cond50
                                        # =>This Loop Header: Depth=1
                                        #     Child Loop BB8_14 Depth 2
	movslq	20(%rsp), %rax
	cmpq	48(%rsp), %rax
	jge	.LBB8_18
# BB#11:                                # %for.body53
                                        #   in Loop: Header=BB8_10 Depth=1
	.loc	1 1296 0                # streamcluster.cpp:1296:0
.Ltmp176:
	callq	lrand48
	vcvtsi2ssq	%rax, %xmm0, %xmm0
	vdivss	.LCPI8_0(%rip), %xmm0, %xmm0
	vmulss	68(%rsp), %xmm0, %xmm0
	vmovss	%xmm0, 44(%rsp)
	.loc	1 1298 0                # streamcluster.cpp:1298:0
	movl	$0, 40(%rsp)
	.loc	1 1299 0                # streamcluster.cpp:1299:0
	movq	112(%rsp), %rax
	movl	(%rax), %eax
	decl	%eax
	movl	%eax, 36(%rsp)
	.loc	1 1300 0                # streamcluster.cpp:1300:0
	movq	72(%rsp), %rax
	vmovss	(%rax), %xmm0
	vucomiss	44(%rsp), %xmm0
	jbe	.LBB8_14
	jmp	.LBB8_12
	.align	16, 0x90
.LBB8_13:                               # %if.else
                                        #   in Loop: Header=BB8_14 Depth=2
	.loc	1 1310 0                # streamcluster.cpp:1310:0
.Ltmp177:
	movl	32(%rsp), %eax
	movl	%eax, 40(%rsp)
.Ltmp178:
.LBB8_14:                               # %while.cond
                                        #   Parent Loop BB8_10 Depth=1
                                        # =>  This Inner Loop Header: Depth=2
	.loc	1 1304 0                # streamcluster.cpp:1304:0
	movl	40(%rsp), %eax
	incl	%eax
	cmpl	36(%rsp), %eax
	jge	.LBB8_17
# BB#15:                                # %while.body
                                        #   in Loop: Header=BB8_14 Depth=2
	.loc	1 1305 0                # streamcluster.cpp:1305:0
.Ltmp179:
	movl	40(%rsp), %eax
	addl	36(%rsp), %eax
	movl	%eax, %ecx
	shrl	$31, %ecx
	addl	%eax, %ecx
	sarl	%ecx
	movl	%ecx, 32(%rsp)
	.loc	1 1306 0                # streamcluster.cpp:1306:0
	movslq	32(%rsp), %rax
	movq	72(%rsp), %rcx
	vmovss	(%rcx,%rax,4), %xmm0
	vucomiss	44(%rsp), %xmm0
	jbe	.LBB8_13
# BB#16:                                # %if.then73
                                        #   in Loop: Header=BB8_14 Depth=2
	.loc	1 1307 0                # streamcluster.cpp:1307:0
.Ltmp180:
	movl	32(%rsp), %eax
	movl	%eax, 36(%rsp)
	jmp	.LBB8_14
.Ltmp181:
	.align	16, 0x90
.LBB8_17:                               # %while.end
                                        #   in Loop: Header=BB8_10 Depth=1
	.loc	1 1313 0                # streamcluster.cpp:1313:0
	movq	104(%rsp), %rax
	movq	(%rax), %rax
	movslq	20(%rsp), %rcx
	movl	36(%rsp), %edx
	movl	%edx, (%rax,%rcx,4)
.Ltmp182:
	.loc	1 1295 0                # streamcluster.cpp:1295:0
	incl	20(%rsp)
	jmp	.LBB8_10
.Ltmp183:
.LBB8_18:                               # %for.end79
	.loc	1 1319 0                # streamcluster.cpp:1319:0
	movq	72(%rsp), %rdi
	callq	free
.LBB8_19:                               # %for.end79
	.loc	1 1322 0                # streamcluster.cpp:1322:0
	movl	84(%rsp), %eax
	movl	%eax, 124(%rsp)
	.loc	1 1323 0                # streamcluster.cpp:1323:0
	movl	124(%rsp), %eax
	addq	$128, %rsp
	popq	%rbx
	ret
.Ltmp184:
.Ltmp185:
	.size	_Z19selectfeasible_fastP6PointsPPiiiP17pthread_barrier_t, .Ltmp185-_Z19selectfeasible_fastP6PointsPPiiiP17pthread_barrier_t
.Lfunc_end8:
	.cfi_endproc

	.section	.rodata.cst8,"aM",@progbits,8
	.align	8
.LCPI9_0:
	.quad	4611686018427387904     # double 2.000000e+00
                                        #  (0x4000000000000000)
.LCPI9_2:
	.quad	4607632778762754458     # double 1.100000e+00
                                        #  (0x3ff199999999999a)
.LCPI9_3:
	.quad	4606281698874543309     # double 9.000000e-01
                                        #  (0x3feccccccccccccd)
.LCPI9_5:
	.quad	4607173411600762667     # double 9.990000e-01
                                        #  (0x3feff7ced916872b)
	.section	.rodata.cst4,"aM",@progbits,4
	.align	4
.LCPI9_1:
	.long	1036831949              # float 1.000000e-01
                                        #  (0x3dcccccd)
.LCPI9_4:
	.long	981668463               # float 1.000000e-03
                                        #  (0x3a83126f)
	.text
	.globl	_Z8pkmedianP6PointsllPliP17pthread_barrier_t
	.align	16, 0x90
	.type	_Z8pkmedianP6PointsllPliP17pthread_barrier_t,@function
_Z8pkmedianP6PointsllPliP17pthread_barrier_t: # @_Z8pkmedianP6PointsllPliP17pthread_barrier_t
	.cfi_startproc
.Lfunc_begin9:
	.loc	1 1477 0                # streamcluster.cpp:1477:0
# BB#0:                                 # %entry
	pushq	%rbp
.Ltmp191:
	.cfi_def_cfa_offset 16
	pushq	%r15
.Ltmp192:
	.cfi_def_cfa_offset 24
	pushq	%r14
.Ltmp193:
	.cfi_def_cfa_offset 32
	pushq	%rbx
.Ltmp194:
	.cfi_def_cfa_offset 40
	subq	$344, %rsp              # imm = 0x158
.Ltmp195:
	.cfi_def_cfa_offset 384
.Ltmp196:
	.cfi_offset %rbx, -40
.Ltmp197:
	.cfi_offset %r14, -32
.Ltmp198:
	.cfi_offset %r15, -24
.Ltmp199:
	.cfi_offset %rbp, -16
	movq	%rdi, 328(%rsp)
	movq	%rsi, 320(%rsp)
	movq	%rdx, 312(%rsp)
	movq	%rcx, 304(%rsp)
	movl	%r8d, 300(%rsp)
	movq	%r9, 288(%rsp)
	.loc	1 1488 0 prologue_end   # streamcluster.cpp:1488:0
.Ltmp200:
	cmpl	$0, 300(%rsp)
	jne	.LBB9_2
# BB#1:                                 # %if.then
	movslq	_ZL5nproc(%rip), %rdi
	movl	$8, %esi
	callq	calloc
	movq	%rax, _ZZ8pkmedianP6PointsllPliP17pthread_barrier_tE4hizs(%rip)
.LBB9_2:                                # %if.end
.Ltmp201:
	#DEBUG_VALUE: numberOfPoints <- [%rsp+$232]+$0
	.loc	1 1489 0                # streamcluster.cpp:1489:0
	movq	$0, 248(%rsp)
	movq	$0, 256(%rsp)
	.loc	1 1490 0                # streamcluster.cpp:1490:0
	movq	328(%rsp), %rax
	movq	(%rax), %rax
	movq	%rax, 232(%rsp)
	.loc	1 1491 0                # streamcluster.cpp:1491:0
	movq	328(%rsp), %rax
.Ltmp202:
	#DEBUG_VALUE: ptDimension <- [%rsp+$224]+$0
	movslq	8(%rax), %rax
	movq	%rax, 224(%rsp)
	.loc	1 1494 0                # streamcluster.cpp:1494:0
	movq	328(%rsp), %rax
.Ltmp203:
	#DEBUG_VALUE: bsize <- [%rsp+$216]+$0
	movq	(%rax), %rax
	movslq	_ZL5nproc(%rip), %rcx
	cqto
	idivq	%rcx
	movq	%rax, 216(%rsp)
	.loc	1 1495 0                # streamcluster.cpp:1495:0
	movslq	300(%rsp), %rcx
	imulq	%rax, %rcx
.Ltmp204:
	#DEBUG_VALUE: k1 <- [%rsp+$208]+$0
	movq	%rcx, 208(%rsp)
	.loc	1 1496 0                # streamcluster.cpp:1496:0
	addq	216(%rsp), %rcx
.Ltmp205:
	#DEBUG_VALUE: k2 <- [%rsp+$200]+$0
	movq	%rcx, 200(%rsp)
	.loc	1 1497 0                # streamcluster.cpp:1497:0
	movl	_ZL5nproc(%rip), %eax
	decl	%eax
	cmpl	%eax, 300(%rsp)
	jne	.LBB9_4
# BB#3:                                 # %if.then6
	movq	328(%rsp), %rax
	movq	(%rax), %rax
	movq	%rax, 200(%rsp)
.LBB9_4:                                # %if.end8
	.loc	1 1500 0                # streamcluster.cpp:1500:0
	movq	288(%rsp), %rdi
	callq	pthread_barrier_wait
	.loc	1 1503 0                # streamcluster.cpp:1503:0
	movq	$0, 192(%rsp)
	.loc	1 1504 0                # streamcluster.cpp:1504:0
.Ltmp206:
	movq	208(%rsp), %rax
.Ltmp207:
	#DEBUG_VALUE: kk <- [%rsp+$184]+$0
	#DEBUG_VALUE: myhiz <- [%rsp+$192]+$0
	movq	%rax, 184(%rsp)
	jmp	.LBB9_5
	.align	16, 0x90
.LBB9_6:                                # %for.inc
                                        #   in Loop: Header=BB9_5 Depth=1
	.loc	1 1505 0                # streamcluster.cpp:1505:0
.Ltmp208:
	movq	328(%rsp), %rax
	movq	16(%rax), %rax
	movq	184(%rsp), %rcx
	shlq	$5, %rcx
	movq	24(%rax,%rcx), %rdx
	movq	%rdx, 176(%rsp)
	movq	16(%rax,%rcx), %rdx
	movq	%rdx, 168(%rsp)
	movq	(%rax,%rcx), %rdx
	movq	8(%rax,%rcx), %rax
	movq	%rax, 160(%rsp)
	movq	%rdx, 152(%rsp)
	movq	328(%rsp), %rax
	movq	16(%rax), %rax
	movq	24(%rax), %rcx
	movq	%rcx, 144(%rsp)
	movq	16(%rax), %rcx
	movq	%rcx, 136(%rsp)
	movq	(%rax), %rcx
	movq	8(%rax), %rax
	movq	%rax, 128(%rsp)
	movq	%rcx, 120(%rsp)
	movl	224(%rsp), %edi
	movq	120(%rsp), %rax
	movq	128(%rsp), %rcx
	movq	136(%rsp), %rdx
	movq	144(%rsp), %rsi
	movq	%rsi, 56(%rsp)
	movq	%rdx, 48(%rsp)
	movq	%rcx, 40(%rsp)
	movq	%rax, 32(%rsp)
	movq	176(%rsp), %rax
	movq	%rax, 24(%rsp)
	movq	168(%rsp), %rax
	movq	%rax, 16(%rsp)
	movq	152(%rsp), %rax
	movq	160(%rsp), %rcx
	movq	%rcx, 8(%rsp)
	movq	%rax, (%rsp)
	callq	_Z4dist5PointS_i
	movq	184(%rsp), %rax
	shlq	$5, %rax
	movq	328(%rsp), %rcx
	movq	16(%rcx), %rcx
	vmulss	(%rcx,%rax), %xmm0, %xmm0
	vcvtss2sd	%xmm0, %xmm0, %xmm0
	vaddsd	192(%rsp), %xmm0, %xmm0
	vmovsd	%xmm0, 192(%rsp)
.Ltmp209:
	.loc	1 1504 0                # streamcluster.cpp:1504:0
	incq	184(%rsp)
.LBB9_5:                                # %for.cond
                                        # =>This Inner Loop Header: Depth=1
	movq	184(%rsp), %rax
	cmpq	200(%rsp), %rax
	jl	.LBB9_6
.Ltmp210:
# BB#7:                                 # %for.end
	.loc	1 1508 0                # streamcluster.cpp:1508:0
	movq	_ZZ8pkmedianP6PointsllPliP17pthread_barrier_tE4hizs(%rip), %rax
	movslq	300(%rsp), %rcx
	vmovsd	192(%rsp), %xmm0
	vmovsd	%xmm0, (%rax,%rcx,8)
	.loc	1 1511 0                # streamcluster.cpp:1511:0
	movq	288(%rsp), %rdi
	callq	pthread_barrier_wait
	.loc	1 1514 0                # streamcluster.cpp:1514:0
.Ltmp211:
	movl	$0, 116(%rsp)
.Ltmp212:
	#DEBUG_VALUE: i <- [%rsp+$116]+$0
	jmp	.LBB9_8
	.align	16, 0x90
.LBB9_9:                                # %for.inc30
                                        #   in Loop: Header=BB9_8 Depth=1
	.loc	1 1515 0                # streamcluster.cpp:1515:0
.Ltmp213:
	movslq	116(%rsp), %rax
	movq	_ZZ8pkmedianP6PointsllPliP17pthread_barrier_tE4hizs(%rip), %rcx
	vmovsd	256(%rsp), %xmm0
	vaddsd	(%rcx,%rax,8), %xmm0, %xmm0
	vmovsd	%xmm0, 256(%rsp)
.Ltmp214:
	.loc	1 1514 0                # streamcluster.cpp:1514:0
	incl	116(%rsp)
.LBB9_8:                                # %for.cond24
                                        # =>This Inner Loop Header: Depth=1
	movl	116(%rsp), %eax
	cmpl	_ZL5nproc(%rip), %eax
	jl	.LBB9_9
.Ltmp215:
# BB#10:                                # %for.end32
	.loc	1 1518 0                # streamcluster.cpp:1518:0
	movq	$0, 248(%rsp)
	vxorps	%xmm0, %xmm0, %xmm0
	vaddsd	256(%rsp), %xmm0, %xmm0
	vdivsd	.LCPI9_0(%rip), %xmm0, %xmm0
	vmovsd	%xmm0, 240(%rsp)
	.loc	1 1520 0                # streamcluster.cpp:1520:0
	movq	328(%rsp), %rax
	movq	(%rax), %rax
	cmpq	312(%rsp), %rax
	jg	.LBB9_15
# BB#11:                                # %if.then37
.Ltmp216:
	#DEBUG_VALUE: kk <- [%rsp+$104]+$0
	.loc	1 1522 0                # streamcluster.cpp:1522:0
	movq	208(%rsp), %rax
	movq	%rax, 104(%rsp)
	jmp	.LBB9_12
	.align	16, 0x90
.LBB9_13:                               # %for.inc47
                                        #   in Loop: Header=BB9_12 Depth=1
	.loc	1 1523 0                # streamcluster.cpp:1523:0
.Ltmp217:
	movq	328(%rsp), %rax
	movq	16(%rax), %rax
	movq	104(%rsp), %rcx
	movq	%rcx, %rdx
	shlq	$5, %rdx
	movq	%rcx, 16(%rax,%rdx)
	.loc	1 1524 0                # streamcluster.cpp:1524:0
	movq	328(%rsp), %rax
	movq	16(%rax), %rax
	movq	104(%rsp), %rcx
	shlq	$5, %rcx
	movl	$0, 24(%rax,%rcx)
.Ltmp218:
	.loc	1 1522 0                # streamcluster.cpp:1522:0
	incq	104(%rsp)
.LBB9_12:                               # %for.cond39
                                        # =>This Inner Loop Header: Depth=1
	movq	104(%rsp), %rax
	cmpq	200(%rsp), %rax
	jl	.LBB9_13
.Ltmp219:
# BB#14:                                # %for.end49
	.loc	1 1526 0                # streamcluster.cpp:1526:0
	movq	$0, 272(%rsp)
	.loc	1 1527 0                # streamcluster.cpp:1527:0
	cmpl	$0, 300(%rsp)
	jne	.LBB9_47
	jmp	.LBB9_46
.Ltmp220:
.LBB9_15:                               # %if.end54
	.loc	1 1534 0                # streamcluster.cpp:1534:0
	cmpl	$0, 300(%rsp)
	jne	.LBB9_17
# BB#16:                                # %if.then56
	movq	328(%rsp), %rdi
	callq	_Z7shuffleP6Points
.LBB9_17:                               # %if.end57
	.loc	1 1535 0                # streamcluster.cpp:1535:0
	movq	288(%rsp), %rcx
	movl	300(%rsp), %edx
	movq	328(%rsp), %rdi
	vmovsd	240(%rsp), %xmm0
	vcvtsd2ss	%xmm0, %xmm0, %xmm0
	movl	$_ZZ8pkmedianP6PointsllPliP17pthread_barrier_tE1k, %esi
	callq	_Z7pspeedyP6PointsfPliP17pthread_barrier_t
	vcvtss2sd	%xmm0, %xmm0, %xmm0
	vmovsd	%xmm0, 272(%rsp)
	.loc	1 1537 0                # streamcluster.cpp:1537:0
	movl	$0, 284(%rsp)
	jmp	.LBB9_18
	.align	16, 0x90
.LBB9_21:                               # %while.body
                                        #   in Loop: Header=BB9_18 Depth=1
	.loc	1 1540 0                # streamcluster.cpp:1540:0
.Ltmp221:
	movq	288(%rsp), %rcx
	movl	300(%rsp), %edx
	movq	328(%rsp), %rdi
	vmovsd	240(%rsp), %xmm0
	vcvtsd2ss	%xmm0, %xmm0, %xmm0
.Ltmp222:
	.loc	1 1535 0                # streamcluster.cpp:1535:0
	movl	$_ZZ8pkmedianP6PointsllPliP17pthread_barrier_tE1k, %esi
	.loc	1 1540 0                # streamcluster.cpp:1540:0
.Ltmp223:
	callq	_Z7pspeedyP6PointsfPliP17pthread_barrier_t
	vcvtss2sd	%xmm0, %xmm0, %xmm0
	vmovsd	%xmm0, 272(%rsp)
	.loc	1 1541 0                # streamcluster.cpp:1541:0
	incl	284(%rsp)
.Ltmp224:
.LBB9_18:                               # %while.cond
                                        # =>This Inner Loop Header: Depth=1
	xorb	%al, %al
	.loc	1 1539 0                # streamcluster.cpp:1539:0
	movq	_ZZ8pkmedianP6PointsllPliP17pthread_barrier_tE1k(%rip), %rcx
	cmpq	320(%rsp), %rcx
	jge	.LBB9_20
# BB#19:                                # %land.rhs
                                        #   in Loop: Header=BB9_18 Depth=1
	cmpl	$0, 284(%rsp)
	setle	%al
.LBB9_20:                               # %land.end
                                        #   in Loop: Header=BB9_18 Depth=1
	cmpb	$1, %al
	jne	.LBB9_22
	jmp	.LBB9_21
	.align	16, 0x90
.LBB9_27:                               # %if.end77
                                        #   in Loop: Header=BB9_22 Depth=1
	.loc	1 1548 0                # streamcluster.cpp:1548:0
.Ltmp225:
	movq	288(%rsp), %rcx
	movl	300(%rsp), %edx
	movq	328(%rsp), %rdi
	vmovsd	240(%rsp), %xmm0
	vcvtsd2ss	%xmm0, %xmm0, %xmm0
	movl	$_ZZ8pkmedianP6PointsllPliP17pthread_barrier_tE1k, %esi
	callq	_Z7pspeedyP6PointsfPliP17pthread_barrier_t
	vcvtss2sd	%xmm0, %xmm0, %xmm0
	vmovsd	%xmm0, 272(%rsp)
	.loc	1 1549 0                # streamcluster.cpp:1549:0
	incl	284(%rsp)
.Ltmp226:
.LBB9_22:                               # %while.cond67
                                        # =>This Inner Loop Header: Depth=1
	.loc	1 1545 0                # streamcluster.cpp:1545:0
	movq	_ZZ8pkmedianP6PointsllPliP17pthread_barrier_tE1k(%rip), %rax
	cmpq	320(%rsp), %rax
	jge	.LBB9_28
# BB#23:                                # %while.body69
                                        #   in Loop: Header=BB9_22 Depth=1
	.loc	1 1546 0                # streamcluster.cpp:1546:0
.Ltmp227:
	cmpl	$0, 284(%rsp)
	jle	.LBB9_25
# BB#24:                                # %if.then71
                                        #   in Loop: Header=BB9_22 Depth=1
	.loc	1 1546 0                # streamcluster.cpp:1546:0
.Ltmp228:
	vmovsd	240(%rsp), %xmm0
	vmovsd	%xmm0, 256(%rsp)
	vaddsd	248(%rsp), %xmm0, %xmm0
	vdivsd	.LCPI9_0(%rip), %xmm0, %xmm0
	vmovsd	%xmm0, 240(%rsp)
	movl	$0, 284(%rsp)
.Ltmp229:
.LBB9_25:                               # %if.end74
                                        #   in Loop: Header=BB9_22 Depth=1
	.loc	1 1547 0                # streamcluster.cpp:1547:0
	cmpl	$0, 300(%rsp)
	jne	.LBB9_27
# BB#26:                                # %if.then76
                                        #   in Loop: Header=BB9_22 Depth=1
	movq	328(%rsp), %rdi
	callq	_Z7shuffleP6Points
	jmp	.LBB9_27
.Ltmp230:
.LBB9_28:                               # %while.end82
	.loc	1 1557 0                # streamcluster.cpp:1557:0
	cmpl	$0, 300(%rsp)
	jne	.LBB9_32
# BB#29:                                # %if.then84
	.loc	1 1559 0                # streamcluster.cpp:1559:0
.Ltmp231:
	movq	288(%rsp), %r8
	movl	300(%rsp), %ecx
	movl	320(%rsp), %edx
	movq	328(%rsp), %rdi
	movl	$_ZZ8pkmedianP6PointsllPliP17pthread_barrier_tE8feasible, %esi
	callq	_Z19selectfeasible_fastP6PointsPPiiiP17pthread_barrier_t
	movl	%eax, _ZZ8pkmedianP6PointsllPliP17pthread_barrier_tE11numfeasible(%rip)
	.loc	1 1560 0                # streamcluster.cpp:1560:0
.Ltmp232:
	movl	$0, 100(%rsp)
.Ltmp233:
	#DEBUG_VALUE: i <- [%rsp+$100]+$0
	jmp	.LBB9_30
	.align	16, 0x90
.LBB9_31:                               # %for.inc98
                                        #   in Loop: Header=BB9_30 Depth=1
	.loc	1 1561 0                # streamcluster.cpp:1561:0
.Ltmp234:
	movslq	100(%rsp), %rax
	shlq	$5, %rax
	movq	328(%rsp), %rcx
	movq	16(%rcx), %rcx
	movq	16(%rcx,%rax), %rax
	movq	_ZL9is_center(%rip), %rcx
	movb	$1, (%rcx,%rax)
.Ltmp235:
	.loc	1 1560 0                # streamcluster.cpp:1560:0
	incl	100(%rsp)
.LBB9_30:                               # %for.cond88
                                        # =>This Inner Loop Header: Depth=1
	movq	328(%rsp), %rax
	movslq	100(%rsp), %rcx
	cmpq	(%rax), %rcx
	jl	.LBB9_31
.Ltmp236:
	.align	16, 0x90
.LBB9_32:                               # %if.end101
                                        # =>This Inner Loop Header: Depth=1
	.loc	1 1566 0                # streamcluster.cpp:1566:0
	movq	288(%rsp), %rdi
	callq	pthread_barrier_wait
	.loc	1 1571 0                # streamcluster.cpp:1571:0
.Ltmp237:
	vmovsd	272(%rsp), %xmm0
	vmovsd	%xmm0, 264(%rsp)
	.loc	1 1572 0                # streamcluster.cpp:1572:0
	movq	312(%rsp), %rax
	leaq	(%rax,%rax,2), %rcx
	vcvtsi2sdq	%rcx, %xmm0, %xmm0
	.loc	1 1573 0                # streamcluster.cpp:1573:0
	vmovsd	%xmm0, 80(%rsp)         # 8-byte Spill
	vcvtsi2sdq	%rax, %xmm0, %xmm0
	.loc	1 1572 0                # streamcluster.cpp:1572:0
	vmovsd	272(%rsp), %xmm1
	vmovsd	%xmm1, 88(%rsp)         # 8-byte Spill
	movl	_ZZ8pkmedianP6PointsllPliP17pthread_barrier_tE11numfeasible(%rip), %r14d
	movq	_ZZ8pkmedianP6PointsllPliP17pthread_barrier_tE8feasible(%rip), %rbp
	movq	328(%rsp), %rbx
	vmovsd	240(%rsp), %xmm1
	vmovsd	%xmm1, 72(%rsp)         # 8-byte Spill
	.loc	1 1573 0                # streamcluster.cpp:1573:0
	callq	log
	vmovsd	80(%rsp), %xmm1         # 8-byte Reload
	vmulsd	%xmm0, %xmm1, %xmm0
	movl	300(%rsp), %r9d
	movq	288(%rsp), %rax
	vcvttsd2siq	%xmm0, %r8
	.loc	1 1572 0                # streamcluster.cpp:1572:0
	vmovsd	72(%rsp), %xmm0         # 8-byte Reload
	vcvtsd2ss	%xmm0, %xmm0, %xmm0
	.loc	1 1573 0                # streamcluster.cpp:1573:0
	movq	%rax, (%rsp)
	movq	%rbx, %rdi
	movq	%rbp, %rsi
	movl	%r14d, %edx
	movl	$_ZZ8pkmedianP6PointsllPliP17pthread_barrier_tE1k, %ecx
	vmovsd	88(%rsp), %xmm1         # 8-byte Reload
	vmovss	.LCPI9_1(%rip), %xmm2
	callq	_Z3pFLP6PointsPiifPldlfiP17pthread_barrier_t
	vcvtss2sd	%xmm0, %xmm0, %xmm0
	vmovsd	%xmm0, 272(%rsp)
	.loc	1 1576 0                # streamcluster.cpp:1576:0
	vcvtsi2sdq	_ZZ8pkmedianP6PointsllPliP17pthread_barrier_tE1k(%rip), %xmm0, %xmm0
	vcvtsi2sdq	312(%rsp), %xmm0, %xmm1
	vmulsd	.LCPI9_2(%rip), %xmm1, %xmm1
	vucomisd	%xmm0, %xmm1
	jb	.LBB9_34
# BB#33:                                # %land.lhs.true
                                        #   in Loop: Header=BB9_32 Depth=1
	vcvtsi2sdq	_ZZ8pkmedianP6PointsllPliP17pthread_barrier_tE1k(%rip), %xmm0, %xmm0
	vcvtsi2sdq	320(%rsp), %xmm0, %xmm1
	vmulsd	.LCPI9_3(%rip), %xmm1, %xmm1
	vucomisd	%xmm1, %xmm0
	jae	.LBB9_36
.LBB9_34:                               # %lor.lhs.false
                                        #   in Loop: Header=BB9_32 Depth=1
	movq	312(%rsp), %rax
	addq	$2, %rax
	cmpq	%rax, _ZZ8pkmedianP6PointsllPliP17pthread_barrier_tE1k(%rip)
	jg	.LBB9_37
# BB#35:                                # %land.lhs.true124
                                        #   in Loop: Header=BB9_32 Depth=1
	movq	320(%rsp), %rax
	addq	$-2, %rax
	cmpq	%rax, _ZZ8pkmedianP6PointsllPliP17pthread_barrier_tE1k(%rip)
	jl	.LBB9_37
.LBB9_36:                               # %if.then127
                                        #   in Loop: Header=BB9_32 Depth=1
	.loc	1 1581 0                # streamcluster.cpp:1581:0
.Ltmp238:
	movq	312(%rsp), %rbx
	.loc	1 1582 0                # streamcluster.cpp:1582:0
	vcvtsi2sdq	%rbx, %xmm0, %xmm0
	.loc	1 1581 0                # streamcluster.cpp:1581:0
	vmovsd	272(%rsp), %xmm1
	vmovsd	%xmm1, 88(%rsp)         # 8-byte Spill
	movl	_ZZ8pkmedianP6PointsllPliP17pthread_barrier_tE11numfeasible(%rip), %r14d
	movq	_ZZ8pkmedianP6PointsllPliP17pthread_barrier_tE8feasible(%rip), %r15
	movq	328(%rsp), %rbp
	vmovsd	240(%rsp), %xmm1
	vmovsd	%xmm1, 80(%rsp)         # 8-byte Spill
	.loc	1 1582 0                # streamcluster.cpp:1582:0
	callq	log
	movl	300(%rsp), %r9d
	movq	288(%rsp), %rax
	movq	%rax, (%rsp)
	.loc	1 1581 0                # streamcluster.cpp:1581:0
	leaq	(%rbx,%rbx,2), %rax
	vcvtsi2sdq	%rax, %xmm0, %xmm1
	.loc	1 1582 0                # streamcluster.cpp:1582:0
	vmulsd	%xmm0, %xmm1, %xmm0
	vcvttsd2siq	%xmm0, %r8
	.loc	1 1581 0                # streamcluster.cpp:1581:0
	vmovsd	80(%rsp), %xmm0         # 8-byte Reload
	vcvtsd2ss	%xmm0, %xmm0, %xmm0
	.loc	1 1582 0                # streamcluster.cpp:1582:0
	movq	%rbp, %rdi
	movq	%r15, %rsi
	movl	%r14d, %edx
.Ltmp239:
	.loc	1 1573 0                # streamcluster.cpp:1573:0
	movl	$_ZZ8pkmedianP6PointsllPliP17pthread_barrier_tE1k, %ecx
	.loc	1 1582 0                # streamcluster.cpp:1582:0
.Ltmp240:
	vmovsd	88(%rsp), %xmm1         # 8-byte Reload
	vmovss	.LCPI9_4(%rip), %xmm2
	callq	_Z3pFLP6PointsPiifPldlfiP17pthread_barrier_t
	vcvtss2sd	%xmm0, %xmm0, %xmm0
	vmovsd	%xmm0, 272(%rsp)
.Ltmp241:
.LBB9_37:                               # %if.end137
                                        #   in Loop: Header=BB9_32 Depth=1
	.loc	1 1585 0                # streamcluster.cpp:1585:0
	movq	_ZZ8pkmedianP6PointsllPliP17pthread_barrier_tE1k(%rip), %rax
	cmpq	312(%rsp), %rax
	jle	.LBB9_39
# BB#38:                                # %if.then139
                                        #   in Loop: Header=BB9_32 Depth=1
	.loc	1 1588 0                # streamcluster.cpp:1588:0
.Ltmp242:
	vmovsd	240(%rsp), %xmm0
	vmovsd	%xmm0, 248(%rsp)
	vaddsd	256(%rsp), %xmm0, %xmm0
	vdivsd	.LCPI9_0(%rip), %xmm0, %xmm0
	vmovsd	%xmm0, 240(%rsp)
	.loc	1 1589 0                # streamcluster.cpp:1589:0
	vcvtsi2sdq	_ZZ8pkmedianP6PointsllPliP17pthread_barrier_tE1k(%rip), %xmm0, %xmm1
	vsubsd	248(%rsp), %xmm0, %xmm0
	vmulsd	%xmm1, %xmm0, %xmm0
	vaddsd	272(%rsp), %xmm0, %xmm0
	vmovsd	%xmm0, 272(%rsp)
.Ltmp243:
.LBB9_39:                               # %if.end146
                                        #   in Loop: Header=BB9_32 Depth=1
	.loc	1 1591 0                # streamcluster.cpp:1591:0
	movq	_ZZ8pkmedianP6PointsllPliP17pthread_barrier_tE1k(%rip), %rax
	cmpq	320(%rsp), %rax
	jge	.LBB9_41
# BB#40:                                # %if.then148
                                        #   in Loop: Header=BB9_32 Depth=1
	.loc	1 1594 0                # streamcluster.cpp:1594:0
.Ltmp244:
	vmovsd	240(%rsp), %xmm0
	vmovsd	%xmm0, 256(%rsp)
	vaddsd	248(%rsp), %xmm0, %xmm0
	vdivsd	.LCPI9_0(%rip), %xmm0, %xmm0
	vmovsd	%xmm0, 240(%rsp)
	.loc	1 1595 0                # streamcluster.cpp:1595:0
	vcvtsi2sdq	_ZZ8pkmedianP6PointsllPliP17pthread_barrier_tE1k(%rip), %xmm0, %xmm1
	vsubsd	256(%rsp), %xmm0, %xmm0
	vmulsd	%xmm1, %xmm0, %xmm0
	vaddsd	272(%rsp), %xmm0, %xmm0
	vmovsd	%xmm0, 272(%rsp)
.Ltmp245:
.LBB9_41:                               # %if.end155
                                        #   in Loop: Header=BB9_32 Depth=1
	.loc	1 1600 0                # streamcluster.cpp:1600:0
	movq	_ZZ8pkmedianP6PointsllPliP17pthread_barrier_tE1k(%rip), %rax
	cmpq	312(%rsp), %rax
	jg	.LBB9_43
# BB#42:                                # %land.lhs.true157
                                        #   in Loop: Header=BB9_32 Depth=1
	movq	_ZZ8pkmedianP6PointsllPliP17pthread_barrier_tE1k(%rip), %rax
	cmpq	320(%rsp), %rax
	jge	.LBB9_44
.LBB9_43:                               # %lor.lhs.false159
                                        #   in Loop: Header=BB9_32 Depth=1
	vmovsd	.LCPI9_5(%rip), %xmm0
	vmulsd	256(%rsp), %xmm0, %xmm0
	vmovsd	248(%rsp), %xmm1
	vucomisd	%xmm0, %xmm1
	jb	.LBB9_32
.Ltmp246:
.LBB9_44:                               # %while.end165
	.loc	1 1610 0                # streamcluster.cpp:1610:0
	cmpl	$0, 300(%rsp)
	jne	.LBB9_47
# BB#45:                                # %if.then167
	.loc	1 1611 0                # streamcluster.cpp:1611:0
.Ltmp247:
	movq	_ZZ8pkmedianP6PointsllPliP17pthread_barrier_tE8feasible(%rip), %rdi
	callq	free
.LBB9_46:                               # %if.then167
	.loc	1 1612 0                # streamcluster.cpp:1612:0
	movq	_ZZ8pkmedianP6PointsllPliP17pthread_barrier_tE4hizs(%rip), %rdi
	callq	free
	.loc	1 1613 0                # streamcluster.cpp:1613:0
	movq	304(%rsp), %rax
	movq	_ZZ8pkmedianP6PointsllPliP17pthread_barrier_tE1k(%rip), %rcx
	movq	%rcx, (%rax)
.Ltmp248:
.LBB9_47:                               # %if.end168
	.loc	1 1616 0                # streamcluster.cpp:1616:0
	vmovsd	272(%rsp), %xmm0
	vcvtsd2ss	%xmm0, %xmm0, %xmm0
	vmovss	%xmm0, 340(%rsp)
	.loc	1 1617 0                # streamcluster.cpp:1617:0
	vmovss	340(%rsp), %xmm0
	addq	$344, %rsp              # imm = 0x158
	popq	%rbx
	popq	%r14
	popq	%r15
	popq	%rbp
	ret
.Ltmp249:
.Ltmp250:
	.size	_Z8pkmedianP6PointsllPliP17pthread_barrier_t, .Ltmp250-_Z8pkmedianP6PointsllPliP17pthread_barrier_t
.Lfunc_end9:
	.cfi_endproc

	.section	.rodata.cst8,"aM",@progbits,8
	.align	8
.LCPI10_0:
	.quad	4607182418800017408     # double 1.000000e+00
                                        #  (0x3ff0000000000000)
	.text
	.globl	_Z11contcentersP6Points
	.align	16, 0x90
	.type	_Z11contcentersP6Points,@function
_Z11contcentersP6Points:                # @_Z11contcentersP6Points
	.cfi_startproc
.Lfunc_begin10:
	.loc	1 1626 0                # streamcluster.cpp:1626:0
# BB#0:                                 # %entry
	movq	%rdi, -8(%rsp)
	.loc	1 1630 0 prologue_end   # streamcluster.cpp:1630:0
.Ltmp251:
	movq	$0, -16(%rsp)
	vmovsd	.LCPI10_0(%rip), %xmm0
	jmp	.LBB10_1
	.align	16, 0x90
.LBB10_7:                               # %for.inc48
                                        #   in Loop: Header=BB10_1 Depth=1
	incq	-16(%rsp)
.LBB10_1:                               # %for.cond
                                        # =>This Loop Header: Depth=1
                                        #     Child Loop BB10_4 Depth 2
	movq	-8(%rsp), %rax
	movq	-16(%rsp), %rcx
	cmpq	(%rax), %rcx
	jge	.LBB10_8
# BB#2:                                 # %for.body
                                        #   in Loop: Header=BB10_1 Depth=1
	.loc	1 1632 0                # streamcluster.cpp:1632:0
.Ltmp252:
	movq	-16(%rsp), %rax
	movq	%rax, %rcx
	shlq	$5, %rcx
	movq	-8(%rsp), %rdx
	movq	16(%rdx), %rdx
	cmpq	%rax, 16(%rdx,%rcx)
	je	.LBB10_7
# BB#3:                                 # %if.then
                                        #   in Loop: Header=BB10_1 Depth=1
	.loc	1 1633 0                # streamcluster.cpp:1633:0
.Ltmp253:
	movq	-16(%rsp), %rax
	shlq	$5, %rax
	movq	-8(%rsp), %rcx
	movq	16(%rcx), %rcx
	movq	16(%rcx,%rax), %rdx
	shlq	$5, %rdx
	vmovss	(%rcx,%rdx), %xmm1
	vaddss	(%rcx,%rax), %xmm1, %xmm1
	vmovss	%xmm1, -28(%rsp)
	.loc	1 1634 0                # streamcluster.cpp:1634:0
	movq	-16(%rsp), %rax
	shlq	$5, %rax
	movq	-8(%rsp), %rcx
	movq	16(%rcx), %rcx
	vmovss	(%rcx,%rax), %xmm2
	vdivss	%xmm1, %xmm2, %xmm1
	vmovss	%xmm1, -28(%rsp)
	.loc	1 1635 0                # streamcluster.cpp:1635:0
.Ltmp254:
	movq	$0, -24(%rsp)
	jmp	.LBB10_4
	.align	16, 0x90
.LBB10_5:                               # %for.inc
                                        #   in Loop: Header=BB10_4 Depth=2
	.loc	1 1636 0                # streamcluster.cpp:1636:0
.Ltmp255:
	vmovss	-28(%rsp), %xmm1
	vcvtss2sd	%xmm1, %xmm0, %xmm1
	movq	-16(%rsp), %rax
	vsubsd	%xmm1, %xmm0, %xmm1
	shlq	$5, %rax
	movq	-8(%rsp), %rcx
	movq	16(%rcx), %rcx
	movq	16(%rcx,%rax), %rax
	shlq	$5, %rax
	movq	8(%rcx,%rax), %rax
	movq	-24(%rsp), %rcx
	vmovss	(%rax,%rcx,4), %xmm2
	vcvtss2sd	%xmm2, %xmm0, %xmm2
	vmulsd	%xmm1, %xmm2, %xmm1
	vcvtsd2ss	%xmm1, %xmm1, %xmm1
	vmovss	%xmm1, (%rax,%rcx,4)
	.loc	1 1637 0                # streamcluster.cpp:1637:0
	movq	-16(%rsp), %rax
	shlq	$5, %rax
	movq	-8(%rsp), %rcx
	movq	16(%rcx), %rdx
	movq	8(%rdx,%rax), %rcx
	movq	16(%rdx,%rax), %rax
	shlq	$5, %rax
	movq	8(%rdx,%rax), %rax
	movq	-24(%rsp), %rdx
	vmovss	(%rcx,%rdx,4), %xmm1
	vmulss	-28(%rsp), %xmm1, %xmm1
	vaddss	(%rax,%rdx,4), %xmm1, %xmm1
	vmovss	%xmm1, (%rax,%rdx,4)
.Ltmp256:
	.loc	1 1635 0                # streamcluster.cpp:1635:0
	incq	-24(%rsp)
.LBB10_4:                               # %for.cond13
                                        #   Parent Loop BB10_1 Depth=1
                                        # =>  This Inner Loop Header: Depth=2
	movq	-8(%rsp), %rax
	movslq	8(%rax), %rax
	cmpq	%rax, -24(%rsp)
	jl	.LBB10_5
.Ltmp257:
# BB#6:                                 # %for.end
                                        #   in Loop: Header=BB10_1 Depth=1
	.loc	1 1640 0                # streamcluster.cpp:1640:0
	movq	-16(%rsp), %rax
	shlq	$5, %rax
	movq	-8(%rsp), %rcx
	movq	16(%rcx), %rcx
	movq	16(%rcx,%rax), %rdx
	shlq	$5, %rdx
	vmovss	(%rcx,%rdx), %xmm1
	vaddss	(%rcx,%rax), %xmm1, %xmm1
	vmovss	%xmm1, (%rcx,%rdx)
	jmp	.LBB10_7
.Ltmp258:
.LBB10_8:                               # %for.end50
	xorl	%eax, %eax
	.loc	1 1644 0                # streamcluster.cpp:1644:0
	ret
.Ltmp259:
.Ltmp260:
	.size	_Z11contcentersP6Points, .Ltmp260-_Z11contcentersP6Points
.Lfunc_end10:
	.cfi_endproc

	.globl	_Z11copycentersP6PointsS0_Pll
	.align	16, 0x90
	.type	_Z11copycentersP6PointsS0_Pll,@function
_Z11copycentersP6PointsS0_Pll:          # @_Z11copycentersP6PointsS0_Pll
	.cfi_startproc
.Lfunc_begin11:
	.loc	1 1649 0                # streamcluster.cpp:1649:0
# BB#0:                                 # %entry
	subq	$56, %rsp
.Ltmp262:
	.cfi_def_cfa_offset 64
	movq	%rdi, 48(%rsp)
	movq	%rsi, 40(%rsp)
	movq	%rdx, 32(%rsp)
	movq	%rcx, 24(%rsp)
	.loc	1 1653 0 prologue_end   # streamcluster.cpp:1653:0
.Ltmp263:
	movq	48(%rsp), %rax
	movq	(%rax), %rdi
	movl	$1, %esi
	callq	calloc
	movq	%rax, (%rsp)
	.loc	1 1656 0                # streamcluster.cpp:1656:0
.Ltmp264:
	movq	$0, 16(%rsp)
	jmp	.LBB11_1
	.align	16, 0x90
.LBB11_2:                               # %for.inc
                                        #   in Loop: Header=BB11_1 Depth=1
	.loc	1 1657 0                # streamcluster.cpp:1657:0
.Ltmp265:
	movq	16(%rsp), %rax
	shlq	$5, %rax
	movq	48(%rsp), %rcx
	movq	16(%rcx), %rcx
	movq	16(%rcx,%rax), %rax
	movq	(%rsp), %rcx
	movb	$1, (%rcx,%rax)
.Ltmp266:
	.loc	1 1656 0                # streamcluster.cpp:1656:0
	incq	16(%rsp)
.LBB11_1:                               # %for.cond
                                        # =>This Inner Loop Header: Depth=1
	movq	48(%rsp), %rax
	movq	16(%rsp), %rcx
	cmpq	(%rax), %rcx
	jl	.LBB11_2
.Ltmp267:
# BB#3:                                 # %for.end
	.loc	1 1660 0                # streamcluster.cpp:1660:0
	movq	40(%rsp), %rax
	movq	(%rax), %rax
	movq	%rax, 8(%rsp)
	.loc	1 1663 0                # streamcluster.cpp:1663:0
.Ltmp268:
	movq	$0, 16(%rsp)
	jmp	.LBB11_4
	.align	16, 0x90
.LBB11_7:                               # %for.inc21
                                        #   in Loop: Header=BB11_4 Depth=1
	incq	16(%rsp)
.LBB11_4:                               # %for.cond4
                                        # =>This Inner Loop Header: Depth=1
	movq	48(%rsp), %rax
	movq	16(%rsp), %rcx
	cmpq	(%rax), %rcx
	jge	.LBB11_8
# BB#5:                                 # %for.body7
                                        #   in Loop: Header=BB11_4 Depth=1
	.loc	1 1664 0                # streamcluster.cpp:1664:0
.Ltmp269:
	movq	16(%rsp), %rax
	movq	(%rsp), %rcx
	testb	$1, (%rcx,%rax)
	je	.LBB11_7
# BB#6:                                 # %if.then
                                        #   in Loop: Header=BB11_4 Depth=1
	.loc	1 1665 0                # streamcluster.cpp:1665:0
.Ltmp270:
	movq	16(%rsp), %rcx
	shlq	$5, %rcx
	movq	48(%rsp), %rax
	movq	16(%rax), %rdx
	movq	8(%rdx,%rcx), %rsi
	movq	8(%rsp), %rcx
	shlq	$5, %rcx
	movq	40(%rsp), %rdx
	movq	16(%rdx), %rdx
	movq	8(%rdx,%rcx), %rdi
	movslq	8(%rax), %rdx
	shlq	$2, %rdx
	callq	memcpy
	.loc	1 1666 0                # streamcluster.cpp:1666:0
	movq	16(%rsp), %rax
	shlq	$5, %rax
	movq	48(%rsp), %rcx
	movq	16(%rcx), %rcx
	vmovss	(%rcx,%rax), %xmm0
	movq	40(%rsp), %rax
	movq	16(%rax), %rax
	movq	8(%rsp), %rcx
	shlq	$5, %rcx
	vmovss	%xmm0, (%rax,%rcx)
	.loc	1 1667 0                # streamcluster.cpp:1667:0
	movq	16(%rsp), %rax
	addq	24(%rsp), %rax
	movq	32(%rsp), %rcx
	movq	8(%rsp), %rdx
	movq	%rax, (%rcx,%rdx,8)
	.loc	1 1668 0                # streamcluster.cpp:1668:0
	incq	8(%rsp)
	jmp	.LBB11_7
.Ltmp271:
.LBB11_8:                               # %for.end23
	.loc	1 1672 0                # streamcluster.cpp:1672:0
	movq	40(%rsp), %rax
	movq	8(%rsp), %rcx
	movq	%rcx, (%rax)
	.loc	1 1674 0                # streamcluster.cpp:1674:0
	movq	(%rsp), %rdi
	callq	free
	.loc	1 1675 0                # streamcluster.cpp:1675:0
	addq	$56, %rsp
	ret
.Ltmp272:
.Ltmp273:
	.size	_Z11copycentersP6PointsS0_Pll, .Ltmp273-_Z11copycentersP6PointsS0_Pll
.Lfunc_end11:
	.cfi_endproc

	.globl	_Z14localSearchSubPv
	.align	16, 0x90
	.type	_Z14localSearchSubPv,@function
_Z14localSearchSubPv:                   # @_Z14localSearchSubPv
	.cfi_startproc
.Lfunc_begin12:
	.loc	1 1687 0                # streamcluster.cpp:1687:0
# BB#0:                                 # %entry
	subq	$24, %rsp
.Ltmp275:
	.cfi_def_cfa_offset 32
	movq	%rdi, 16(%rsp)
	.loc	1 1689 0 prologue_end   # streamcluster.cpp:1689:0
.Ltmp276:
	movq	%rdi, 8(%rsp)
	.loc	1 1690 0                # streamcluster.cpp:1690:0
	movq	40(%rdi), %r9
	movl	32(%rdi), %r8d
	movq	24(%rdi), %rcx
	movq	16(%rdi), %rdx
	movq	(%rdi), %rax
	movq	8(%rdi), %rsi
	movq	%rax, %rdi
	callq	_Z8pkmedianP6PointsllPliP17pthread_barrier_t
	xorl	%eax, %eax
	.loc	1 1692 0                # streamcluster.cpp:1692:0
	addq	$24, %rsp
	ret
.Ltmp277:
.Ltmp278:
	.size	_Z14localSearchSubPv, .Ltmp278-_Z14localSearchSubPv
.Lfunc_end12:
	.cfi_endproc

	.globl	_Z11localSearchP6PointsllPl
	.align	16, 0x90
	.type	_Z11localSearchP6PointsllPl,@function
_Z11localSearchP6PointsllPl:            # @_Z11localSearchP6PointsllPl
	.cfi_startproc
.Lfunc_begin13:
	.loc	1 1707 0                # streamcluster.cpp:1707:0
# BB#0:                                 # %entry
	pushq	%rbx
.Ltmp281:
	.cfi_def_cfa_offset 16
	subq	$96, %rsp
.Ltmp282:
	.cfi_def_cfa_offset 112
.Ltmp283:
	.cfi_offset %rbx, -16
	movq	%rdi, 88(%rsp)
	movq	%rsi, 80(%rsp)
	movq	%rdx, 72(%rsp)
	movq	%rcx, 64(%rsp)
	movq	$-1, %rbx
	movl	$8, %ecx
	.loc	1 1709 0 prologue_end   # streamcluster.cpp:1709:0
.Ltmp284:
	movslq	_ZL5nproc(%rip), %rax
	mulq	%rcx
	cmovoq	%rbx, %rax
	movq	%rax, %rdi
	callq	_Znam
	movl	$48, %ecx
	movq	%rax, 24(%rsp)
	.loc	1 1710 0                # streamcluster.cpp:1710:0
	movslq	_ZL5nproc(%rip), %rax
	mulq	%rcx
	cmovnoq	%rax, %rbx
	movq	%rbx, %rdi
	callq	_Znam
	leaq	32(%rsp), %rbx
	movq	%rax, 16(%rsp)
	.loc	1 1713 0                # streamcluster.cpp:1713:0
	movl	_ZL5nproc(%rip), %edx
	movq	%rbx, %rdi
	xorl	%esi, %esi
	callq	pthread_barrier_init
	.loc	1 1715 0                # streamcluster.cpp:1715:0
.Ltmp285:
	movl	$0, 12(%rsp)
	jmp	.LBB13_1
	.align	16, 0x90
.LBB13_2:                               # %for.inc
                                        #   in Loop: Header=BB13_1 Depth=1
	.loc	1 1716 0                # streamcluster.cpp:1716:0
.Ltmp286:
	movslq	12(%rsp), %rax
	leaq	(%rax,%rax,2), %rax
	shlq	$4, %rax
	movq	16(%rsp), %rcx
	movq	88(%rsp), %rdx
	movq	%rdx, (%rcx,%rax)
	.loc	1 1717 0                # streamcluster.cpp:1717:0
	movslq	12(%rsp), %rax
	leaq	(%rax,%rax,2), %rax
	shlq	$4, %rax
	movq	16(%rsp), %rcx
	movq	80(%rsp), %rdx
	movq	%rdx, 8(%rcx,%rax)
	.loc	1 1718 0                # streamcluster.cpp:1718:0
	movslq	12(%rsp), %rax
	leaq	(%rax,%rax,2), %rax
	shlq	$4, %rax
	movq	16(%rsp), %rcx
	movq	72(%rsp), %rdx
	movq	%rdx, 16(%rcx,%rax)
	.loc	1 1719 0                # streamcluster.cpp:1719:0
	movslq	12(%rsp), %rax
	leaq	(%rax,%rax,2), %rcx
	shlq	$4, %rcx
	movq	16(%rsp), %rdx
	movl	%eax, 32(%rdx,%rcx)
	.loc	1 1720 0                # streamcluster.cpp:1720:0
	movslq	12(%rsp), %rax
	leaq	(%rax,%rax,2), %rax
	shlq	$4, %rax
	movq	16(%rsp), %rcx
	movq	64(%rsp), %rdx
	movq	%rdx, 24(%rcx,%rax)
	.loc	1 1722 0                # streamcluster.cpp:1722:0
	movslq	12(%rsp), %rax
	leaq	(%rax,%rax,2), %rax
	shlq	$4, %rax
	movq	16(%rsp), %rcx
	movq	%rbx, 40(%rcx,%rax)
	.loc	1 1724 0                # streamcluster.cpp:1724:0
	movslq	12(%rsp), %rdi
	leaq	(%rdi,%rdi,2), %rcx
	shlq	$4, %rcx
	addq	16(%rsp), %rcx
	shlq	$3, %rdi
	addq	24(%rsp), %rdi
	xorl	%esi, %esi
	movl	$_Z14localSearchSubPv, %edx
	callq	pthread_create
.Ltmp287:
	.loc	1 1715 0                # streamcluster.cpp:1715:0
	incl	12(%rsp)
.LBB13_1:                               # %for.cond
                                        # =>This Inner Loop Header: Depth=1
	movl	12(%rsp), %eax
	cmpl	_ZL5nproc(%rip), %eax
	jl	.LBB13_2
.Ltmp288:
# BB#3:                                 # %for.end
	#DEBUG_VALUE: i <- [%rsp+$8]+$0
	.loc	1 1731 0                # streamcluster.cpp:1731:0
	movl	$0, 8(%rsp)
	jmp	.LBB13_4
	.align	16, 0x90
.LBB13_5:                               # %for.inc28
                                        #   in Loop: Header=BB13_4 Depth=1
	.loc	1 1732 0                # streamcluster.cpp:1732:0
.Ltmp289:
	movslq	8(%rsp), %rax
	movq	24(%rsp), %rcx
	movq	(%rcx,%rax,8), %rdi
	xorl	%esi, %esi
	callq	pthread_join
.Ltmp290:
	.loc	1 1731 0                # streamcluster.cpp:1731:0
	incl	8(%rsp)
.LBB13_4:                               # %for.cond22
                                        # =>This Inner Loop Header: Depth=1
	movl	8(%rsp), %eax
	cmpl	_ZL5nproc(%rip), %eax
	jl	.LBB13_5
.Ltmp291:
# BB#6:                                 # %for.end30
	.loc	1 1736 0                # streamcluster.cpp:1736:0
	movq	24(%rsp), %rdi
	testq	%rdi, %rdi
	je	.LBB13_8
# BB#7:                                 # %delete.notnull
	callq	_ZdaPv
.LBB13_8:                               # %delete.end
	.loc	1 1737 0                # streamcluster.cpp:1737:0
	movq	16(%rsp), %rdi
	testq	%rdi, %rdi
	je	.LBB13_10
# BB#9:                                 # %delete.notnull32
	callq	_ZdaPv
.LBB13_10:                              # %delete.end33
	leaq	32(%rsp), %rdi
	.loc	1 1739 0                # streamcluster.cpp:1739:0
	callq	pthread_barrier_destroy
	.loc	1 1741 0                # streamcluster.cpp:1741:0
	addq	$96, %rsp
	popq	%rbx
	ret
.Ltmp292:
.Ltmp293:
	.size	_Z11localSearchP6PointsllPl, .Ltmp293-_Z11localSearchP6PointsllPl
.Lfunc_end13:
	.cfi_endproc

	.globl	_Z12outcenterIDsP6PointsPlPc
	.align	16, 0x90
	.type	_Z12outcenterIDsP6PointsPlPc,@function
_Z12outcenterIDsP6PointsPlPc:           # @_Z12outcenterIDsP6PointsPlPc
	.cfi_startproc
.Lfunc_begin14:
	.loc	1 1809 0                # streamcluster.cpp:1809:0
# BB#0:                                 # %entry
	subq	$56, %rsp
.Ltmp295:
	.cfi_def_cfa_offset 64
	movq	%rdi, 48(%rsp)
	movq	%rsi, 40(%rsp)
	movq	%rdx, 32(%rsp)
	.loc	1 1810 0 prologue_end   # streamcluster.cpp:1810:0
.Ltmp296:
	movq	%rdx, %rdi
	movl	$.L.str, %esi
	callq	fopen
	movq	%rax, 24(%rsp)
	testq	%rax, %rax
	.loc	1 1811 0                # streamcluster.cpp:1811:0
	je	.LBB14_13
# BB#1:                                 # %if.end
.Ltmp297:
	#DEBUG_VALUE: is_a_median <- [%rsp+$16]+$0
	.loc	1 1815 0                # streamcluster.cpp:1815:0
	movq	48(%rsp), %rax
	movq	(%rax), %rsi
	movl	$4, %edi
	callq	calloc
	movq	%rax, 16(%rsp)
	.loc	1 1816 0                # streamcluster.cpp:1816:0
.Ltmp298:
	movl	$0, 12(%rsp)
.Ltmp299:
	#DEBUG_VALUE: i <- [%rsp+$12]+$0
	jmp	.LBB14_2
	.align	16, 0x90
.LBB14_3:                               # %for.inc
                                        #   in Loop: Header=BB14_2 Depth=1
	.loc	1 1817 0                # streamcluster.cpp:1817:0
.Ltmp300:
	movslq	12(%rsp), %rax
	shlq	$5, %rax
	movq	48(%rsp), %rcx
	movq	16(%rcx), %rcx
	movq	16(%rcx,%rax), %rax
	movq	16(%rsp), %rcx
	movl	$1, (%rcx,%rax,4)
.Ltmp301:
	.loc	1 1816 0                # streamcluster.cpp:1816:0
	incl	12(%rsp)
.LBB14_2:                               # %for.cond
                                        # =>This Inner Loop Header: Depth=1
	movq	48(%rsp), %rax
	movslq	12(%rsp), %rcx
	cmpq	(%rax), %rcx
	jl	.LBB14_3
.Ltmp302:
# BB#4:                                 # %for.end
	#DEBUG_VALUE: i <- [%rsp+$8]+$0
	.loc	1 1820 0                # streamcluster.cpp:1820:0
	movl	$0, 8(%rsp)
	jmp	.LBB14_5
	.align	16, 0x90
.LBB14_11:                              # %for.inc38
                                        #   in Loop: Header=BB14_5 Depth=1
	incl	8(%rsp)
.LBB14_5:                               # %for.cond7
                                        # =>This Loop Header: Depth=1
                                        #     Child Loop BB14_8 Depth 2
	movq	48(%rsp), %rax
	movslq	8(%rsp), %rcx
	cmpq	(%rax), %rcx
	jge	.LBB14_12
# BB#6:                                 # %for.body11
                                        #   in Loop: Header=BB14_5 Depth=1
	.loc	1 1821 0                # streamcluster.cpp:1821:0
.Ltmp303:
	movslq	8(%rsp), %rax
	movq	16(%rsp), %rcx
	cmpl	$0, (%rcx,%rax,4)
	je	.LBB14_11
# BB#7:                                 # %if.then14
                                        #   in Loop: Header=BB14_5 Depth=1
	.loc	1 1822 0                # streamcluster.cpp:1822:0
.Ltmp304:
	movslq	8(%rsp), %rax
	movq	40(%rsp), %rcx
	movq	(%rcx,%rax,8), %rdx
	movq	24(%rsp), %rdi
	movl	$.L.str2, %esi
	xorb	%al, %al
	callq	fprintf
	.loc	1 1823 0                # streamcluster.cpp:1823:0
	movslq	8(%rsp), %rax
	shlq	$5, %rax
	movq	48(%rsp), %rcx
	movq	16(%rcx), %rcx
	vmovss	(%rcx,%rax), %xmm0
	movq	24(%rsp), %rdi
	vcvtss2sd	%xmm0, %xmm0, %xmm0
	movl	$.L.str3, %esi
	movb	$1, %al
	callq	fprintf
	.loc	1 1824 0                # streamcluster.cpp:1824:0
.Ltmp305:
	movl	$0, 4(%rsp)
.Ltmp306:
	#DEBUG_VALUE: k <- [%rsp+$4]+$0
	jmp	.LBB14_8
	.align	16, 0x90
.LBB14_9:                               # %for.inc33
                                        #   in Loop: Header=BB14_8 Depth=2
	.loc	1 1825 0                # streamcluster.cpp:1825:0
.Ltmp307:
	movslq	8(%rsp), %rax
	shlq	$5, %rax
	movq	48(%rsp), %rcx
	movq	16(%rcx), %rcx
	movq	8(%rcx,%rax), %rax
	movslq	4(%rsp), %rcx
	vmovss	(%rax,%rcx,4), %xmm0
	vcvtss2sd	%xmm0, %xmm0, %xmm0
	movq	24(%rsp), %rdi
	movl	$.L.str4, %esi
	movb	$1, %al
	callq	fprintf
.Ltmp308:
	.loc	1 1824 0                # streamcluster.cpp:1824:0
	incl	4(%rsp)
.LBB14_8:                               # %for.cond23
                                        #   Parent Loop BB14_5 Depth=1
                                        # =>  This Inner Loop Header: Depth=2
	movq	48(%rsp), %rax
	movl	4(%rsp), %ecx
	cmpl	8(%rax), %ecx
	jl	.LBB14_9
.Ltmp309:
# BB#10:                                # %for.end35
                                        #   in Loop: Header=BB14_5 Depth=1
	.loc	1 1827 0                # streamcluster.cpp:1827:0
	movq	24(%rsp), %rdi
	movl	$.L.str5, %esi
	xorb	%al, %al
	callq	fprintf
	jmp	.LBB14_11
.Ltmp310:
.LBB14_12:                              # %for.end40
	.loc	1 1830 0                # streamcluster.cpp:1830:0
	movq	24(%rsp), %rdi
	callq	fclose
	.loc	1 1831 0                # streamcluster.cpp:1831:0
	addq	$56, %rsp
	ret
.LBB14_13:                              # %if.then
	.loc	1 1812 0                # streamcluster.cpp:1812:0
.Ltmp311:
	movq	32(%rsp), %rdx
	movq	stderr(%rip), %rdi
	movl	$.L.str1, %esi
	xorb	%al, %al
	callq	fprintf
	movl	$1, %edi
	.loc	1 1813 0                # streamcluster.cpp:1813:0
	callq	exit
.Ltmp312:
.Ltmp313:
	.size	_Z12outcenterIDsP6PointsPlPc, .Ltmp313-_Z12outcenterIDsP6PointsPlPc
.Lfunc_end14:
	.cfi_endproc

	.globl	_Z13streamClusterP7PStreamllillPc
	.align	16, 0x90
	.type	_Z13streamClusterP7PStreamllillPc,@function
_Z13streamClusterP7PStreamllillPc:      # @_Z13streamClusterP7PStreamllillPc
	.cfi_startproc
.Lfunc_begin15:
	.loc	1 1836 0                # streamcluster.cpp:1836:0
# BB#0:                                 # %entry
	pushq	%r14
.Ltmp317:
	.cfi_def_cfa_offset 16
	pushq	%rbx
.Ltmp318:
	.cfi_def_cfa_offset 24
	subq	$168, %rsp
.Ltmp319:
	.cfi_def_cfa_offset 192
.Ltmp320:
	.cfi_offset %rbx, -24
.Ltmp321:
	.cfi_offset %r14, -16
	movq	%rdi, 160(%rsp)
	movq	%rsi, 152(%rsp)
	movq	%rdx, 144(%rsp)
	movl	%ecx, 140(%rsp)
	movq	%r8, 128(%rsp)
	movq	%r9, 120(%rsp)
	movq	192(%rsp), %rax
	movq	%rax, 112(%rsp)
	.loc	1 1843 0 prologue_end   # streamcluster.cpp:1843:0
.Ltmp322:
	movslq	140(%rsp), %rdi
	imulq	128(%rsp), %rdi
	shlq	$2, %rdi
	callq	malloc
	movq	%rax, 104(%rsp)
	.loc	1 1844 0                # streamcluster.cpp:1844:0
	movslq	140(%rsp), %rdi
	imulq	120(%rsp), %rdi
	shlq	$2, %rdi
	callq	malloc
	movq	%rax, 96(%rsp)
	.loc	1 1845 0                # streamcluster.cpp:1845:0
	movslq	140(%rsp), %rdi
	imulq	120(%rsp), %rdi
	shlq	$3, %rdi
	callq	malloc
	movq	%rax, 88(%rsp)
	.loc	1 1848 0                # streamcluster.cpp:1848:0
	cmpq	$0, 104(%rsp)
	je	.LBB15_1
# BB#3:                                 # %if.end
.Ltmp323:
	#DEBUG_VALUE: points <- [%rsp+$64]+$0
	.loc	1 1854 0                # streamcluster.cpp:1854:0
	movl	140(%rsp), %eax
	movl	%eax, 72(%rsp)
	.loc	1 1855 0                # streamcluster.cpp:1855:0
	movq	128(%rsp), %rax
	movq	%rax, 64(%rsp)
	.loc	1 1860 0                # streamcluster.cpp:1860:0
	movq	128(%rsp), %rdi
	shlq	$5, %rdi
	callq	malloc
	movq	%rax, 80(%rsp)
	.loc	1 1863 0                # streamcluster.cpp:1863:0
.Ltmp324:
	movl	$0, 60(%rsp)
.Ltmp325:
	#DEBUG_VALUE: i <- [%rsp+$60]+$0
	jmp	.LBB15_4
	.align	16, 0x90
.LBB15_5:                               # %for.inc
                                        #   in Loop: Header=BB15_4 Depth=1
	.loc	1 1864 0                # streamcluster.cpp:1864:0
.Ltmp326:
	movslq	60(%rsp), %rax
	movl	140(%rsp), %ecx
	imull	%eax, %ecx
	movslq	%ecx, %rcx
	shlq	$2, %rcx
	addq	104(%rsp), %rcx
	shlq	$5, %rax
	movq	80(%rsp), %rdx
	movq	%rcx, 8(%rdx,%rax)
.Ltmp327:
	.loc	1 1863 0                # streamcluster.cpp:1863:0
	incl	60(%rsp)
.LBB15_4:                               # %for.cond
                                        # =>This Inner Loop Header: Depth=1
	movslq	60(%rsp), %rax
	cmpq	128(%rsp), %rax
	jl	.LBB15_5
.Ltmp328:
# BB#6:                                 # %for.end
	#DEBUG_VALUE: centers <- [%rsp+$32]+$0
	.loc	1 1868 0                # streamcluster.cpp:1868:0
	movl	140(%rsp), %eax
	movl	%eax, 40(%rsp)
	.loc	1 1873 0                # streamcluster.cpp:1873:0
	movq	120(%rsp), %rdi
	shlq	$5, %rdi
	callq	malloc
	movq	%rax, 48(%rsp)
	.loc	1 1875 0                # streamcluster.cpp:1875:0
	movq	$0, 32(%rsp)
	.loc	1 1877 0                # streamcluster.cpp:1877:0
.Ltmp329:
	movl	$0, 28(%rsp)
.Ltmp330:
	#DEBUG_VALUE: i <- [%rsp+$28]+$0
	jmp	.LBB15_7
	.align	16, 0x90
.LBB15_8:                               # %for.inc40
                                        #   in Loop: Header=BB15_7 Depth=1
	.loc	1 1878 0                # streamcluster.cpp:1878:0
.Ltmp331:
	movslq	28(%rsp), %rax
	movl	140(%rsp), %ecx
	imull	%eax, %ecx
	movslq	%ecx, %rcx
	shlq	$2, %rcx
	addq	96(%rsp), %rcx
	shlq	$5, %rax
	movq	48(%rsp), %rdx
	movq	%rcx, 8(%rdx,%rax)
	.loc	1 1879 0                # streamcluster.cpp:1879:0
	movslq	28(%rsp), %rax
	shlq	$5, %rax
	movq	48(%rsp), %rcx
	movl	$1065353216, (%rcx,%rax) # imm = 0x3F800000
.Ltmp332:
	.loc	1 1877 0                # streamcluster.cpp:1877:0
	incl	28(%rsp)
.LBB15_7:                               # %for.cond26
                                        # =>This Inner Loop Header: Depth=1
	movslq	28(%rsp), %rax
	cmpq	120(%rsp), %rax
	jl	.LBB15_8
.Ltmp333:
# BB#9:                                 # %for.end42
	#DEBUG_VALUE: IDoffset <- [%rsp+$16]+$0
	.loc	1 1882 0                # streamcluster.cpp:1882:0
	movq	$0, 16(%rsp)
	leaq	64(%rsp), %rbx
	leaq	32(%rsp), %r14
	.align	16, 0x90
.LBB15_10:                              # %while.body
                                        # =>This Loop Header: Depth=1
                                        #     Child Loop BB15_15 Depth 2
.Ltmp334:
	#DEBUG_VALUE: numRead <- [%rsp+$8]+$0
	.loc	1 1886 0                # streamcluster.cpp:1886:0
	movq	160(%rsp), %rdi
	movq	(%rdi), %rax
	movl	128(%rsp), %ecx
	movl	140(%rsp), %edx
	movq	104(%rsp), %rsi
	callq	*(%rax)
	movq	%rax, 8(%rsp)
	.loc	1 1887 0                # streamcluster.cpp:1887:0
	movq	stderr(%rip), %rdi
	movl	$.L.str7, %esi
	movq	%rax, %rdx
	xorb	%al, %al
	callq	fprintf
	.loc	1 1889 0                # streamcluster.cpp:1889:0
	movq	160(%rsp), %rdi
	movq	(%rdi), %rax
	callq	*8(%rax)
	testl	%eax, %eax
	jne	.LBB15_13
# BB#11:                                # %lor.lhs.false
                                        #   in Loop: Header=BB15_10 Depth=1
	movl	128(%rsp), %eax
	cmpq	%rax, 8(%rsp)
	jae	.LBB15_14
# BB#12:                                # %land.lhs.true
                                        #   in Loop: Header=BB15_10 Depth=1
	movq	160(%rsp), %rdi
	movq	(%rdi), %rax
	callq	*16(%rax)
	testl	%eax, %eax
	je	.LBB15_13
.LBB15_14:                              # %if.end58
                                        #   in Loop: Header=BB15_10 Depth=1
	.loc	1 1894 0                # streamcluster.cpp:1894:0
	movq	8(%rsp), %rax
	movq	%rax, 64(%rsp)
	.loc	1 1895 0                # streamcluster.cpp:1895:0
.Ltmp335:
	movl	$0, 4(%rsp)
.Ltmp336:
	#DEBUG_VALUE: i <- [%rsp+$4]+$0
	jmp	.LBB15_15
	.align	16, 0x90
.LBB15_16:                              # %for.inc70
                                        #   in Loop: Header=BB15_15 Depth=2
	.loc	1 1896 0                # streamcluster.cpp:1896:0
.Ltmp337:
	movslq	4(%rsp), %rax
	shlq	$5, %rax
	movq	80(%rsp), %rcx
	movl	$1065353216, (%rcx,%rax) # imm = 0x3F800000
.Ltmp338:
	.loc	1 1895 0                # streamcluster.cpp:1895:0
	incl	4(%rsp)
.LBB15_15:                              # %for.cond61
                                        #   Parent Loop BB15_10 Depth=1
                                        # =>  This Inner Loop Header: Depth=2
	movslq	4(%rsp), %rax
	cmpq	64(%rsp), %rax
	jl	.LBB15_16
.Ltmp339:
# BB#17:                                # %for.end72
                                        #   in Loop: Header=BB15_10 Depth=1
	.loc	1 1904 0                # streamcluster.cpp:1904:0
	movq	64(%rsp), %rdi
	callq	malloc
	movq	%rax, _ZL17switch_membership(%rip)
	.loc	1 1905 0                # streamcluster.cpp:1905:0
	movq	64(%rsp), %rdi
	movl	$1, %esi
	callq	calloc
	movq	%rax, _ZL9is_center(%rip)
	.loc	1 1906 0                # streamcluster.cpp:1906:0
	movq	64(%rsp), %rdi
	shlq	$2, %rdi
	callq	malloc
	movq	%rax, _ZL12center_table(%rip)
	.loc	1 1913 0                # streamcluster.cpp:1913:0
	movq	144(%rsp), %rdx
	movq	152(%rsp), %rsi
	movq	%rbx, %rdi
	movl	$_ZZ13streamClusterP7PStreamllillPcE6kfinal, %ecx
	callq	_Z11localSearchP6PointsllPl
	.loc	1 1916 0                # streamcluster.cpp:1916:0
	movq	%rbx, %rdi
	callq	_Z11contcentersP6Points
	.loc	1 1917 0                # streamcluster.cpp:1917:0
	movq	_ZZ13streamClusterP7PStreamllillPcE6kfinal(%rip), %rax
	addq	32(%rsp), %rax
	cmpq	120(%rsp), %rax
	jg	.LBB15_18
# BB#19:                                # %if.end86
                                        #   in Loop: Header=BB15_10 Depth=1
	.loc	1 1923 0                # streamcluster.cpp:1923:0
	movq	16(%rsp), %rcx
	movq	88(%rsp), %rdx
	movq	%rbx, %rdi
	movq	%r14, %rsi
	callq	_Z11copycentersP6PointsS0_Pll
	.loc	1 1924 0                # streamcluster.cpp:1924:0
	movq	8(%rsp), %rax
	addq	%rax, 16(%rsp)
	.loc	1 1931 0                # streamcluster.cpp:1931:0
	movq	_ZL9is_center(%rip), %rdi
	callq	free
	.loc	1 1932 0                # streamcluster.cpp:1932:0
	movq	_ZL17switch_membership(%rip), %rdi
	callq	free
	.loc	1 1933 0                # streamcluster.cpp:1933:0
	movq	_ZL12center_table(%rip), %rdi
	callq	free
	.loc	1 1936 0                # streamcluster.cpp:1936:0
	movq	160(%rsp), %rdi
	movq	(%rdi), %rax
	callq	*16(%rax)
	testl	%eax, %eax
	je	.LBB15_10
.Ltmp340:
# BB#20:                                # %while.end
	.loc	1 1947 0                # streamcluster.cpp:1947:0
	movq	32(%rsp), %rdi
	callq	malloc
	movq	%rax, _ZL17switch_membership(%rip)
	.loc	1 1948 0                # streamcluster.cpp:1948:0
	movq	32(%rsp), %rdi
	movl	$1, %esi
	callq	calloc
	movq	%rax, _ZL9is_center(%rip)
	.loc	1 1949 0                # streamcluster.cpp:1949:0
	movq	32(%rsp), %rdi
	shlq	$2, %rdi
	callq	malloc
	leaq	32(%rsp), %rbx
	movq	%rax, _ZL12center_table(%rip)
	.loc	1 1952 0                # streamcluster.cpp:1952:0
	movq	144(%rsp), %rdx
	movq	152(%rsp), %rsi
	movq	%rbx, %rdi
	movl	$_ZZ13streamClusterP7PStreamllillPcE6kfinal, %ecx
	callq	_Z11localSearchP6PointsllPl
	.loc	1 1953 0                # streamcluster.cpp:1953:0
	movq	%rbx, %rdi
	callq	_Z11contcentersP6Points
	.loc	1 1954 0                # streamcluster.cpp:1954:0
	movq	112(%rsp), %rdx
	movq	88(%rsp), %rsi
	movq	%rbx, %rdi
	callq	_Z12outcenterIDsP6PointsPlPc
	.loc	1 1955 0                # streamcluster.cpp:1955:0
	addq	$168, %rsp
	popq	%rbx
	popq	%r14
	ret
.LBB15_1:                               # %if.then
	.loc	1 1849 0                # streamcluster.cpp:1849:0
.Ltmp341:
	movq	stderr(%rip), %rdi
	movl	$.L.str6, %esi
	jmp	.LBB15_2
.Ltmp342:
.LBB15_13:                              # %if.then56
	.loc	1 1890 0                # streamcluster.cpp:1890:0
	movq	stderr(%rip), %rdi
	movl	$.L.str8, %esi
	jmp	.LBB15_2
.Ltmp343:
.LBB15_18:                              # %if.then84
	.loc	1 1919 0                # streamcluster.cpp:1919:0
	movq	stderr(%rip), %rdi
	movl	$.L.str9, %esi
.Ltmp344:
.LBB15_2:                               # %if.then
	xorb	%al, %al
	.loc	1 1849 0                # streamcluster.cpp:1849:0
.Ltmp345:
	callq	fprintf
	movl	$1, %edi
	.loc	1 1850 0                # streamcluster.cpp:1850:0
	callq	exit
.Ltmp346:
.Ltmp347:
	.size	_Z13streamClusterP7PStreamllillPc, .Ltmp347-_Z13streamClusterP7PStreamllillPc
.Lfunc_end15:
	.cfi_endproc

	.globl	main
	.align	16, 0x90
	.type	main,@function
main:                                   # @main
	.cfi_startproc
	.cfi_personality 3, __gxx_personality_v0
.Leh_func_begin16:
	.cfi_lsda 3, .Lexception16
.Lfunc_begin16:
	.loc	1 1958 0                # streamcluster.cpp:1958:0
# BB#0:                                 # %entry
	pushq	%rbx
.Ltmp356:
	.cfi_def_cfa_offset 16
	subq	$112, %rsp
.Ltmp357:
	.cfi_def_cfa_offset 128
.Ltmp358:
	.cfi_offset %rbx, -16
	movl	$0, 108(%rsp)
	movl	%edi, 104(%rsp)
	movq	%rsi, 96(%rsp)
	movl	$1024, %edi             # imm = 0x400
	.loc	1 1959 0 prologue_end   # streamcluster.cpp:1959:0
.Ltmp359:
	callq	_Znam
	movq	%rax, 88(%rsp)
	movl	$1024, %edi             # imm = 0x400
	.loc	1 1960 0                # streamcluster.cpp:1960:0
	callq	_Znam
	movq	%rax, 80(%rsp)
	.loc	1 1970 0                # streamcluster.cpp:1970:0
	movq	stderr(%rip), %rdi
	movl	$.L.str10, %esi
	xorb	%al, %al
	callq	fprintf
	xorl	%edi, %edi
	.loc	1 1971 0                # streamcluster.cpp:1971:0
	callq	fflush
	.loc	1 1977 0                # streamcluster.cpp:1977:0
	cmpl	$9, 104(%rsp)
	jle	.LBB16_9
# BB#1:                                 # %if.end
	.loc	1 1996 0                # streamcluster.cpp:1996:0
	movq	96(%rsp), %rax
	movq	8(%rax), %rdi
	callq	atoi
	movslq	%eax, %rax
	movq	%rax, 72(%rsp)
	.loc	1 1997 0                # streamcluster.cpp:1997:0
	movq	96(%rsp), %rax
	movq	16(%rax), %rdi
	callq	atoi
	movslq	%eax, %rax
	movq	%rax, 64(%rsp)
	.loc	1 1998 0                # streamcluster.cpp:1998:0
	movq	96(%rsp), %rax
	movq	24(%rax), %rdi
	callq	atoi
	movl	%eax, 36(%rsp)
	.loc	1 1999 0                # streamcluster.cpp:1999:0
	movq	96(%rsp), %rax
	movq	32(%rax), %rdi
	callq	atoi
	movslq	%eax, %rax
	movq	%rax, 56(%rsp)
	.loc	1 2000 0                # streamcluster.cpp:2000:0
	movq	96(%rsp), %rax
	movq	40(%rax), %rdi
	callq	atoi
	movslq	%eax, %rax
	movq	%rax, 48(%rsp)
	.loc	1 2001 0                # streamcluster.cpp:2001:0
	movq	96(%rsp), %rax
	movq	48(%rax), %rdi
	callq	atoi
	movslq	%eax, %rax
	movq	%rax, 40(%rsp)
	.loc	1 2002 0                # streamcluster.cpp:2002:0
	movq	96(%rsp), %rax
	movq	56(%rax), %rsi
	movq	80(%rsp), %rdi
	callq	strcpy
	.loc	1 2003 0                # streamcluster.cpp:2003:0
	movq	96(%rsp), %rax
	movq	64(%rax), %rsi
	movq	88(%rsp), %rdi
	callq	strcpy
	.loc	1 2004 0                # streamcluster.cpp:2004:0
	movq	96(%rsp), %rax
	movq	72(%rax), %rdi
	callq	atoi
	movl	%eax, _ZL5nproc(%rip)
	movl	$1, %edi
	.loc	1 2013 0                # streamcluster.cpp:2013:0
	callq	srand48
	.loc	1 2015 0                # streamcluster.cpp:2015:0
	cmpq	$0, 56(%rsp)
.Ltmp360:
	#DEBUG_VALUE: stream <- [%rsp+$24]+$0
	movl	$16, %edi
	jle	.LBB16_5
# BB#2:                                 # %if.then39
	.loc	1 2016 0                # streamcluster.cpp:2016:0
.Ltmp361:
	callq	_Znwm
	movq	%rax, %rbx
	movq	56(%rsp), %rsi
.Ltmp351:
	movq	%rbx, %rdi
	callq	_ZN9SimStreamC1El
.Ltmp352:
	jmp	.LBB16_6
.Ltmp362:
.LBB16_3:                               # %lpad
.Ltmp353:
	jmp	.LBB16_4
.LBB16_5:                               # %if.else
	.loc	1 2019 0                # streamcluster.cpp:2019:0
.Ltmp363:
	callq	_Znwm
	movq	%rax, %rbx
	movq	80(%rsp), %rsi
.Ltmp348:
	movq	%rbx, %rdi
	callq	_ZN10FileStreamC1EPc
.Ltmp349:
.LBB16_6:                               # %invoke.cont43
	movq	%rbx, 24(%rsp)
.Ltmp364:
	.loc	1 2028 0                # streamcluster.cpp:2028:0
	movl	$_ZL5mutex, %edi
	xorl	%esi, %esi
	callq	pthread_mutex_init
	.loc	1 2029 0                # streamcluster.cpp:2029:0
	movl	$_ZL4cond, %edi
	xorl	%esi, %esi
	callq	pthread_cond_init
	.loc	1 2032 0                # streamcluster.cpp:2032:0
	movq	40(%rsp), %r9
	movq	48(%rsp), %r8
	movl	36(%rsp), %ecx
	movq	64(%rsp), %rdx
	movq	72(%rsp), %rsi
	movq	24(%rsp), %rdi
	movq	88(%rsp), %rax
	movq	%rax, (%rsp)
	callq	_Z13streamClusterP7PStreamllillPc
	.loc	1 2038 0                # streamcluster.cpp:2038:0
	movq	24(%rsp), %rdi
	testq	%rdi, %rdi
	je	.LBB16_8
# BB#7:                                 # %delete.notnull
	movq	(%rdi), %rax
	callq	*32(%rax)
.LBB16_8:                               # %delete.end
	xorl	%eax, %eax
	.loc	1 2044 0                # streamcluster.cpp:2044:0
	addq	$112, %rsp
	popq	%rbx
	ret
.LBB16_9:                               # %if.then
	.loc	1 1978 0                # streamcluster.cpp:1978:0
.Ltmp365:
	movq	96(%rsp), %rax
	movq	(%rax), %rdx
	movq	stderr(%rip), %rdi
	movl	$.L.str11, %esi
	xorb	%al, %al
	callq	fprintf
	.loc	1 1980 0                # streamcluster.cpp:1980:0
	movq	stderr(%rip), %rdi
	movl	$.L.str12, %esi
	xorb	%al, %al
	callq	fprintf
	.loc	1 1981 0                # streamcluster.cpp:1981:0
	movq	stderr(%rip), %rdi
	movl	$.L.str13, %esi
	xorb	%al, %al
	callq	fprintf
	.loc	1 1982 0                # streamcluster.cpp:1982:0
	movq	stderr(%rip), %rdi
	movl	$.L.str14, %esi
	xorb	%al, %al
	callq	fprintf
	.loc	1 1983 0                # streamcluster.cpp:1983:0
	movq	stderr(%rip), %rdi
	movl	$.L.str15, %esi
	xorb	%al, %al
	callq	fprintf
	.loc	1 1984 0                # streamcluster.cpp:1984:0
	movq	stderr(%rip), %rdi
	movl	$.L.str16, %esi
	xorb	%al, %al
	callq	fprintf
	.loc	1 1985 0                # streamcluster.cpp:1985:0
	movq	stderr(%rip), %rdi
	movl	$.L.str17, %esi
	xorb	%al, %al
	callq	fprintf
	.loc	1 1986 0                # streamcluster.cpp:1986:0
	movq	stderr(%rip), %rdi
	movl	$.L.str18, %esi
	xorb	%al, %al
	callq	fprintf
	.loc	1 1987 0                # streamcluster.cpp:1987:0
	movq	stderr(%rip), %rdi
	movl	$.L.str19, %esi
	xorb	%al, %al
	callq	fprintf
	.loc	1 1988 0                # streamcluster.cpp:1988:0
	movq	stderr(%rip), %rdi
	movl	$.L.str20, %esi
	xorb	%al, %al
	callq	fprintf
	.loc	1 1989 0                # streamcluster.cpp:1989:0
	movq	stderr(%rip), %rdi
	movl	$.L.str21, %esi
	xorb	%al, %al
	callq	fprintf
	.loc	1 1990 0                # streamcluster.cpp:1990:0
	movq	stderr(%rip), %rdi
	movl	$.L.str22, %esi
	xorb	%al, %al
	callq	fprintf
	movl	$1, %edi
	.loc	1 1991 0                # streamcluster.cpp:1991:0
	callq	exit
.Ltmp366:
.LBB16_10:                              # %lpad42
.Ltmp350:
.LBB16_4:                               # %lpad
	.loc	1 2016 0                # streamcluster.cpp:2016:0
.Ltmp367:
	movq	%rax, 16(%rsp)
	movl	%edx, 12(%rsp)
	movq	%rbx, %rdi
	callq	_ZdlPv
	movq	16(%rsp), %rdi
	callq	_Unwind_Resume
.Ltmp368:
.Ltmp369:
	.size	main, .Ltmp369-main
.Lfunc_end16:
	.cfi_endproc
.Leh_func_end16:
	.section	.gcc_except_table,"a",@progbits
	.align	4
GCC_except_table16:
.Lexception16:
	.byte	255                     # @LPStart Encoding = omit
	.byte	3                       # @TType Encoding = udata4
	.asciz	 "\303\200"             # @TType base offset
	.byte	3                       # Call site Encoding = udata4
	.byte	65                      # Call site table length
.Lset0 = .Leh_func_begin16-.Leh_func_begin16 # >> Call Site 1 <<
	.long	.Lset0
.Lset1 = .Ltmp351-.Leh_func_begin16     #   Call between .Leh_func_begin16 and .Ltmp351
	.long	.Lset1
	.long	0                       #     has no landing pad
	.byte	0                       #   On action: cleanup
.Lset2 = .Ltmp351-.Leh_func_begin16     # >> Call Site 2 <<
	.long	.Lset2
.Lset3 = .Ltmp352-.Ltmp351              #   Call between .Ltmp351 and .Ltmp352
	.long	.Lset3
.Lset4 = .Ltmp353-.Leh_func_begin16     #     jumps to .Ltmp353
	.long	.Lset4
	.byte	0                       #   On action: cleanup
.Lset5 = .Ltmp352-.Leh_func_begin16     # >> Call Site 3 <<
	.long	.Lset5
.Lset6 = .Ltmp348-.Ltmp352              #   Call between .Ltmp352 and .Ltmp348
	.long	.Lset6
	.long	0                       #     has no landing pad
	.byte	0                       #   On action: cleanup
.Lset7 = .Ltmp348-.Leh_func_begin16     # >> Call Site 4 <<
	.long	.Lset7
.Lset8 = .Ltmp349-.Ltmp348              #   Call between .Ltmp348 and .Ltmp349
	.long	.Lset8
.Lset9 = .Ltmp350-.Leh_func_begin16     #     jumps to .Ltmp350
	.long	.Lset9
	.byte	0                       #   On action: cleanup
.Lset10 = .Ltmp349-.Leh_func_begin16    # >> Call Site 5 <<
	.long	.Lset10
.Lset11 = .Leh_func_end16-.Ltmp349      #   Call between .Ltmp349 and .Leh_func_end16
	.long	.Lset11
	.long	0                       #     has no landing pad
	.byte	0                       #   On action: cleanup
	.align	4

	.section	.text._ZN9SimStreamC1El,"axG",@progbits,_ZN9SimStreamC1El,comdat
	.weak	_ZN9SimStreamC1El
	.align	16, 0x90
	.type	_ZN9SimStreamC1El,@function
_ZN9SimStreamC1El:                      # @_ZN9SimStreamC1El
	.cfi_startproc
.Lfunc_begin17:
	.loc	1 1757 0                # streamcluster.cpp:1757:0
# BB#0:                                 # %entry
	subq	$24, %rsp
.Ltmp371:
	.cfi_def_cfa_offset 32
	movq	%rdi, 16(%rsp)
	movq	%rsi, 8(%rsp)
	movq	16(%rsp), %rdi
	.loc	1 1759 0 prologue_end   # streamcluster.cpp:1759:0
.Ltmp372:
	callq	_ZN9SimStreamC2El
	addq	$24, %rsp
	ret
.Ltmp373:
.Ltmp374:
	.size	_ZN9SimStreamC1El, .Ltmp374-_ZN9SimStreamC1El
.Lfunc_end17:
	.cfi_endproc

	.section	.text._ZN10FileStreamC1EPc,"axG",@progbits,_ZN10FileStreamC1EPc,comdat
	.weak	_ZN10FileStreamC1EPc
	.align	16, 0x90
	.type	_ZN10FileStreamC1EPc,@function
_ZN10FileStreamC1EPc:                   # @_ZN10FileStreamC1EPc
	.cfi_startproc
.Lfunc_begin18:
	.loc	1 1785 0                # streamcluster.cpp:1785:0
# BB#0:                                 # %entry
	subq	$24, %rsp
.Ltmp376:
	.cfi_def_cfa_offset 32
	movq	%rdi, 16(%rsp)
	movq	%rsi, 8(%rsp)
	movq	16(%rsp), %rdi
	.loc	1 1791 0 prologue_end   # streamcluster.cpp:1791:0
.Ltmp377:
	callq	_ZN10FileStreamC2EPc
	addq	$24, %rsp
	ret
.Ltmp378:
.Ltmp379:
	.size	_ZN10FileStreamC1EPc, .Ltmp379-_ZN10FileStreamC1EPc
.Lfunc_end18:
	.cfi_endproc

	.section	.text._ZN10FileStreamC2EPc,"axG",@progbits,_ZN10FileStreamC2EPc,comdat
	.weak	_ZN10FileStreamC2EPc
	.align	16, 0x90
	.type	_ZN10FileStreamC2EPc,@function
_ZN10FileStreamC2EPc:                   # @_ZN10FileStreamC2EPc
	.cfi_startproc
	.cfi_personality 3, __gxx_personality_v0
.Leh_func_begin19:
	.cfi_lsda 3, .Lexception19
.Lfunc_begin19:
	.loc	1 1785 0                # streamcluster.cpp:1785:0
# BB#0:                                 # %entry
	pushq	%rbx
.Ltmp390:
	.cfi_def_cfa_offset 16
	subq	$32, %rsp
.Ltmp391:
	.cfi_def_cfa_offset 48
.Ltmp392:
	.cfi_offset %rbx, -16
	movq	%rdi, 24(%rsp)
	movq	%rsi, 16(%rsp)
	movq	24(%rsp), %rbx
	.loc	1 1785 0 prologue_end   # streamcluster.cpp:1785:0
.Ltmp393:
	movq	%rbx, %rdi
	callq	_ZN7PStreamC2Ev
	movq	$_ZTV10FileStream+16, (%rbx)
	.loc	1 1786 0                # streamcluster.cpp:1786:0
.Ltmp394:
	movq	16(%rsp), %rdi
.Ltmp380:
	movl	$.L.str23, %esi
	callq	fopen
.Ltmp381:
# BB#1:                                 # %invoke.cont
	movq	%rax, 8(%rbx)
	testq	%rax, %rax
	je	.LBB19_2
# BB#4:                                 # %if.end
	.loc	1 1791 0                # streamcluster.cpp:1791:0
	addq	$32, %rsp
	popq	%rbx
	ret
.LBB19_2:                               # %if.then
	.loc	1 1788 0                # streamcluster.cpp:1788:0
.Ltmp395:
	movq	16(%rsp), %rdx
	movq	stderr(%rip), %rdi
.Ltmp382:
	movl	$.L.str24, %esi
	xorb	%al, %al
	callq	fprintf
.Ltmp383:
# BB#3:                                 # %invoke.cont3
	movl	$1, %edi
	.loc	1 1789 0                # streamcluster.cpp:1789:0
	callq	exit
.Ltmp396:
.LBB19_5:                               # %lpad
.Ltmp384:
	.loc	1 1786 0                # streamcluster.cpp:1786:0
	movq	%rax, 8(%rsp)
	movl	%edx, 4(%rsp)
	.loc	1 1791 0                # streamcluster.cpp:1791:0
.Ltmp385:
	movq	%rbx, %rdi
	callq	_ZN7PStreamD2Ev
.Ltmp386:
# BB#6:                                 # %eh.resume
	movq	8(%rsp), %rdi
	callq	_Unwind_Resume
.LBB19_7:                               # %terminate.lpad
.Ltmp387:
	callq	_ZSt9terminatev
.Ltmp397:
.Ltmp398:
	.size	_ZN10FileStreamC2EPc, .Ltmp398-_ZN10FileStreamC2EPc
.Lfunc_end19:
	.cfi_endproc
.Leh_func_end19:
	.section	.gcc_except_table,"a",@progbits
	.align	4
GCC_except_table19:
.Lexception19:
	.byte	255                     # @LPStart Encoding = omit
	.byte	3                       # @TType Encoding = udata4
	.asciz	 "\257\200"             # @TType base offset
	.byte	3                       # Call site Encoding = udata4
	.byte	39                      # Call site table length
.Lset12 = .Ltmp380-.Leh_func_begin19    # >> Call Site 1 <<
	.long	.Lset12
.Lset13 = .Ltmp383-.Ltmp380             #   Call between .Ltmp380 and .Ltmp383
	.long	.Lset13
.Lset14 = .Ltmp384-.Leh_func_begin19    #     jumps to .Ltmp384
	.long	.Lset14
	.byte	0                       #   On action: cleanup
.Lset15 = .Ltmp385-.Leh_func_begin19    # >> Call Site 2 <<
	.long	.Lset15
.Lset16 = .Ltmp386-.Ltmp385             #   Call between .Ltmp385 and .Ltmp386
	.long	.Lset16
.Lset17 = .Ltmp387-.Leh_func_begin19    #     jumps to .Ltmp387
	.long	.Lset17
	.byte	1                       #   On action: 1
.Lset18 = .Ltmp386-.Leh_func_begin19    # >> Call Site 3 <<
	.long	.Lset18
.Lset19 = .Leh_func_end19-.Ltmp386      #   Call between .Ltmp386 and .Leh_func_end19
	.long	.Lset19
	.long	0                       #     has no landing pad
	.byte	0                       #   On action: cleanup
	.byte	1                       # >> Action Record 1 <<
                                        #   Catch TypeInfo 1
	.byte	0                       #   No further actions
                                        # >> Catch TypeInfos <<
	.long	0                       # TypeInfo 1
	.align	4

	.section	.text._ZN7PStreamC2Ev,"axG",@progbits,_ZN7PStreamC2Ev,comdat
	.weak	_ZN7PStreamC2Ev
	.align	16, 0x90
	.type	_ZN7PStreamC2Ev,@function
_ZN7PStreamC2Ev:                        # @_ZN7PStreamC2Ev
	.cfi_startproc
.Lfunc_begin20:
	.loc	1 1745 0                # streamcluster.cpp:1745:0
# BB#0:                                 # %entry
	movq	%rdi, -8(%rsp)
	.loc	1 1745 0 prologue_end   # streamcluster.cpp:1745:0
.Ltmp399:
	movq	$_ZTV7PStream+16, (%rdi)
	.loc	1 1745 0                # streamcluster.cpp:1745:0
.Ltmp400:
	ret
.Ltmp401:
.Ltmp402:
	.size	_ZN7PStreamC2Ev, .Ltmp402-_ZN7PStreamC2Ev
.Lfunc_end20:
	.cfi_endproc

	.section	.text._ZN7PStreamD2Ev,"axG",@progbits,_ZN7PStreamD2Ev,comdat
	.weak	_ZN7PStreamD2Ev
	.align	16, 0x90
	.type	_ZN7PStreamD2Ev,@function
_ZN7PStreamD2Ev:                        # @_ZN7PStreamD2Ev
	.cfi_startproc
.Lfunc_begin21:
	.loc	1 1750 0                # streamcluster.cpp:1750:0
# BB#0:                                 # %entry
	movq	%rdi, -8(%rsp)
	.loc	1 1751 0 prologue_end   # streamcluster.cpp:1751:0
.Ltmp403:
	ret
.Ltmp404:
.Ltmp405:
	.size	_ZN7PStreamD2Ev, .Ltmp405-_ZN7PStreamD2Ev
.Lfunc_end21:
	.cfi_endproc

	.section	.text._ZN10FileStream4readEPfii,"axG",@progbits,_ZN10FileStream4readEPfii,comdat
	.weak	_ZN10FileStream4readEPfii
	.align	16, 0x90
	.type	_ZN10FileStream4readEPfii,@function
_ZN10FileStream4readEPfii:              # @_ZN10FileStream4readEPfii
	.cfi_startproc
.Lfunc_begin22:
	.loc	1 1792 0                # streamcluster.cpp:1792:0
# BB#0:                                 # %entry
	subq	$24, %rsp
.Ltmp407:
	.cfi_def_cfa_offset 32
	movq	%rdi, 16(%rsp)
	movq	%rsi, 8(%rsp)
	movl	%edx, 4(%rsp)
	movl	%ecx, (%rsp)
	movq	16(%rsp), %rax
	.loc	1 1793 0 prologue_end   # streamcluster.cpp:1793:0
.Ltmp408:
	movq	8(%rax), %rcx
	movslq	(%rsp), %rdx
	movq	8(%rsp), %rdi
	movslq	4(%rsp), %rsi
	shlq	$2, %rsi
	callq	fread
	addq	$24, %rsp
	ret
.Ltmp409:
.Ltmp410:
	.size	_ZN10FileStream4readEPfii, .Ltmp410-_ZN10FileStream4readEPfii
.Lfunc_end22:
	.cfi_endproc

	.section	.text._ZN10FileStream6ferrorEv,"axG",@progbits,_ZN10FileStream6ferrorEv,comdat
	.weak	_ZN10FileStream6ferrorEv
	.align	16, 0x90
	.type	_ZN10FileStream6ferrorEv,@function
_ZN10FileStream6ferrorEv:               # @_ZN10FileStream6ferrorEv
	.cfi_startproc
.Lfunc_begin23:
	.loc	1 1795 0                # streamcluster.cpp:1795:0
# BB#0:                                 # %entry
	pushq	%rax
.Ltmp412:
	.cfi_def_cfa_offset 16
	movq	%rdi, (%rsp)
	.loc	1 1796 0 prologue_end   # streamcluster.cpp:1796:0
.Ltmp413:
	movq	8(%rdi), %rdi
	callq	ferror
	popq	%rdx
	ret
.Ltmp414:
.Ltmp415:
	.size	_ZN10FileStream6ferrorEv, .Ltmp415-_ZN10FileStream6ferrorEv
.Lfunc_end23:
	.cfi_endproc

	.section	.text._ZN10FileStream4feofEv,"axG",@progbits,_ZN10FileStream4feofEv,comdat
	.weak	_ZN10FileStream4feofEv
	.align	16, 0x90
	.type	_ZN10FileStream4feofEv,@function
_ZN10FileStream4feofEv:                 # @_ZN10FileStream4feofEv
	.cfi_startproc
.Lfunc_begin24:
	.loc	1 1798 0                # streamcluster.cpp:1798:0
# BB#0:                                 # %entry
	pushq	%rax
.Ltmp417:
	.cfi_def_cfa_offset 16
	movq	%rdi, (%rsp)
	.loc	1 1799 0 prologue_end   # streamcluster.cpp:1799:0
.Ltmp418:
	movq	8(%rdi), %rdi
	callq	feof
	popq	%rdx
	ret
.Ltmp419:
.Ltmp420:
	.size	_ZN10FileStream4feofEv, .Ltmp420-_ZN10FileStream4feofEv
.Lfunc_end24:
	.cfi_endproc

	.section	.text._ZN10FileStreamD1Ev,"axG",@progbits,_ZN10FileStreamD1Ev,comdat
	.weak	_ZN10FileStreamD1Ev
	.align	16, 0x90
	.type	_ZN10FileStreamD1Ev,@function
_ZN10FileStreamD1Ev:                    # @_ZN10FileStreamD1Ev
	.cfi_startproc
.Lfunc_begin25:
	.loc	1 1801 0                # streamcluster.cpp:1801:0
# BB#0:                                 # %entry
	pushq	%rax
.Ltmp422:
	.cfi_def_cfa_offset 16
	movq	%rdi, (%rsp)
	.loc	1 1801 0 prologue_end   # streamcluster.cpp:1801:0
.Ltmp423:
	callq	_ZN10FileStreamD2Ev
	.loc	1 1804 0                # streamcluster.cpp:1804:0
	popq	%rax
	ret
.Ltmp424:
.Ltmp425:
	.size	_ZN10FileStreamD1Ev, .Ltmp425-_ZN10FileStreamD1Ev
.Lfunc_end25:
	.cfi_endproc

	.section	.text._ZN10FileStreamD0Ev,"axG",@progbits,_ZN10FileStreamD0Ev,comdat
	.weak	_ZN10FileStreamD0Ev
	.align	16, 0x90
	.type	_ZN10FileStreamD0Ev,@function
_ZN10FileStreamD0Ev:                    # @_ZN10FileStreamD0Ev
	.cfi_startproc
	.cfi_personality 3, __gxx_personality_v0
.Leh_func_begin26:
	.cfi_lsda 3, .Lexception26
.Lfunc_begin26:
	.loc	1 1801 0                # streamcluster.cpp:1801:0
# BB#0:                                 # %entry
	pushq	%rbx
.Ltmp431:
	.cfi_def_cfa_offset 16
	subq	$32, %rsp
.Ltmp432:
	.cfi_def_cfa_offset 48
.Ltmp433:
	.cfi_offset %rbx, -16
	movq	%rdi, %rbx
	movq	%rbx, 24(%rsp)
	.loc	1 1801 0 prologue_end   # streamcluster.cpp:1801:0
.Ltmp434:
.Ltmp426:
	callq	_ZN10FileStreamD1Ev
.Ltmp427:
# BB#1:                                 # %invoke.cont
	movq	%rbx, %rdi
	callq	_ZdlPv
	.loc	1 1804 0                # streamcluster.cpp:1804:0
	addq	$32, %rsp
	popq	%rbx
	ret
.LBB26_2:                               # %lpad
.Ltmp428:
	.loc	1 1801 0                # streamcluster.cpp:1801:0
	movq	%rax, 16(%rsp)
	movl	%edx, 12(%rsp)
	movq	%rbx, %rdi
	callq	_ZdlPv
	movq	16(%rsp), %rdi
	callq	_Unwind_Resume
.Ltmp435:
.Ltmp436:
	.size	_ZN10FileStreamD0Ev, .Ltmp436-_ZN10FileStreamD0Ev
.Lfunc_end26:
	.cfi_endproc
.Leh_func_end26:
	.section	.gcc_except_table,"a",@progbits
	.align	4
GCC_except_table26:
.Lexception26:
	.byte	255                     # @LPStart Encoding = omit
	.byte	3                       # @TType Encoding = udata4
	.asciz	 "\234"                 # @TType base offset
	.byte	3                       # Call site Encoding = udata4
	.byte	26                      # Call site table length
.Lset20 = .Ltmp426-.Leh_func_begin26    # >> Call Site 1 <<
	.long	.Lset20
.Lset21 = .Ltmp427-.Ltmp426             #   Call between .Ltmp426 and .Ltmp427
	.long	.Lset21
.Lset22 = .Ltmp428-.Leh_func_begin26    #     jumps to .Ltmp428
	.long	.Lset22
	.byte	0                       #   On action: cleanup
.Lset23 = .Ltmp427-.Leh_func_begin26    # >> Call Site 2 <<
	.long	.Lset23
.Lset24 = .Leh_func_end26-.Ltmp427      #   Call between .Ltmp427 and .Leh_func_end26
	.long	.Lset24
	.long	0                       #     has no landing pad
	.byte	0                       #   On action: cleanup
	.align	4

	.section	.text._ZN10FileStreamD2Ev,"axG",@progbits,_ZN10FileStreamD2Ev,comdat
	.weak	_ZN10FileStreamD2Ev
	.align	16, 0x90
	.type	_ZN10FileStreamD2Ev,@function
_ZN10FileStreamD2Ev:                    # @_ZN10FileStreamD2Ev
	.cfi_startproc
	.cfi_personality 3, __gxx_personality_v0
.Leh_func_begin27:
	.cfi_lsda 3, .Lexception27
.Lfunc_begin27:
	.loc	1 1801 0                # streamcluster.cpp:1801:0
# BB#0:                                 # %entry
	pushq	%rbx
.Ltmp447:
	.cfi_def_cfa_offset 16
	subq	$32, %rsp
.Ltmp448:
	.cfi_def_cfa_offset 48
.Ltmp449:
	.cfi_offset %rbx, -16
	movq	%rdi, %rbx
	movq	%rbx, 24(%rsp)
	.loc	1 1801 0 prologue_end   # streamcluster.cpp:1801:0
.Ltmp450:
	movq	$_ZTV10FileStream+16, (%rbx)
	.loc	1 1802 0                # streamcluster.cpp:1802:0
.Ltmp451:
	movq	stderr(%rip), %rdi
.Ltmp437:
	movl	$.L.str25, %esi
	xorb	%al, %al
	callq	fprintf
.Ltmp438:
# BB#1:                                 # %invoke.cont
	.loc	1 1803 0                # streamcluster.cpp:1803:0
	movq	8(%rbx), %rdi
.Ltmp439:
	callq	fclose
.Ltmp440:
# BB#2:                                 # %invoke.cont2
	.loc	1 1804 0                # streamcluster.cpp:1804:0
	movq	%rbx, %rdi
	callq	_ZN7PStreamD2Ev
	addq	$32, %rsp
	popq	%rbx
	ret
.LBB27_3:                               # %lpad
.Ltmp441:
	.loc	1 1802 0                # streamcluster.cpp:1802:0
	movq	%rax, 16(%rsp)
	movl	%edx, 12(%rsp)
	.loc	1 1804 0                # streamcluster.cpp:1804:0
.Ltmp442:
	movq	%rbx, %rdi
	callq	_ZN7PStreamD2Ev
.Ltmp443:
# BB#4:                                 # %eh.resume
	movq	16(%rsp), %rdi
	callq	_Unwind_Resume
.LBB27_5:                               # %terminate.lpad
.Ltmp444:
	callq	_ZSt9terminatev
.Ltmp452:
.Ltmp453:
	.size	_ZN10FileStreamD2Ev, .Ltmp453-_ZN10FileStreamD2Ev
.Lfunc_end27:
	.cfi_endproc
.Leh_func_end27:
	.section	.gcc_except_table,"a",@progbits
	.align	4
GCC_except_table27:
.Lexception27:
	.byte	255                     # @LPStart Encoding = omit
	.byte	3                       # @TType Encoding = udata4
	.asciz	 "\257\200"             # @TType base offset
	.byte	3                       # Call site Encoding = udata4
	.byte	39                      # Call site table length
.Lset25 = .Ltmp437-.Leh_func_begin27    # >> Call Site 1 <<
	.long	.Lset25
.Lset26 = .Ltmp440-.Ltmp437             #   Call between .Ltmp437 and .Ltmp440
	.long	.Lset26
.Lset27 = .Ltmp441-.Leh_func_begin27    #     jumps to .Ltmp441
	.long	.Lset27
	.byte	0                       #   On action: cleanup
.Lset28 = .Ltmp442-.Leh_func_begin27    # >> Call Site 2 <<
	.long	.Lset28
.Lset29 = .Ltmp443-.Ltmp442             #   Call between .Ltmp442 and .Ltmp443
	.long	.Lset29
.Lset30 = .Ltmp444-.Leh_func_begin27    #     jumps to .Ltmp444
	.long	.Lset30
	.byte	1                       #   On action: 1
.Lset31 = .Ltmp443-.Leh_func_begin27    # >> Call Site 3 <<
	.long	.Lset31
.Lset32 = .Leh_func_end27-.Ltmp443      #   Call between .Ltmp443 and .Leh_func_end27
	.long	.Lset32
	.long	0                       #     has no landing pad
	.byte	0                       #   On action: cleanup
	.byte	1                       # >> Action Record 1 <<
                                        #   Catch TypeInfo 1
	.byte	0                       #   No further actions
                                        # >> Catch TypeInfos <<
	.long	0                       # TypeInfo 1
	.align	4

	.section	.text._ZN7PStreamD1Ev,"axG",@progbits,_ZN7PStreamD1Ev,comdat
	.weak	_ZN7PStreamD1Ev
	.align	16, 0x90
	.type	_ZN7PStreamD1Ev,@function
_ZN7PStreamD1Ev:                        # @_ZN7PStreamD1Ev
	.cfi_startproc
.Lfunc_begin28:
	.loc	1 1750 0                # streamcluster.cpp:1750:0
# BB#0:                                 # %entry
	pushq	%rax
.Ltmp455:
	.cfi_def_cfa_offset 16
	movq	%rdi, (%rsp)
	.loc	1 1750 0 prologue_end   # streamcluster.cpp:1750:0
.Ltmp456:
	callq	_ZN7PStreamD2Ev
	.loc	1 1751 0                # streamcluster.cpp:1751:0
	popq	%rax
	ret
.Ltmp457:
.Ltmp458:
	.size	_ZN7PStreamD1Ev, .Ltmp458-_ZN7PStreamD1Ev
.Lfunc_end28:
	.cfi_endproc

	.section	.text._ZN7PStreamD0Ev,"axG",@progbits,_ZN7PStreamD0Ev,comdat
	.weak	_ZN7PStreamD0Ev
	.align	16, 0x90
	.type	_ZN7PStreamD0Ev,@function
_ZN7PStreamD0Ev:                        # @_ZN7PStreamD0Ev
	.cfi_startproc
	.cfi_personality 3, __gxx_personality_v0
.Leh_func_begin29:
	.cfi_lsda 3, .Lexception29
.Lfunc_begin29:
	.loc	1 1750 0                # streamcluster.cpp:1750:0
# BB#0:                                 # %entry
	pushq	%rbx
.Ltmp464:
	.cfi_def_cfa_offset 16
	subq	$32, %rsp
.Ltmp465:
	.cfi_def_cfa_offset 48
.Ltmp466:
	.cfi_offset %rbx, -16
	movq	%rdi, %rbx
	movq	%rbx, 24(%rsp)
	.loc	1 1750 0 prologue_end   # streamcluster.cpp:1750:0
.Ltmp467:
.Ltmp459:
	callq	_ZN7PStreamD1Ev
.Ltmp460:
# BB#1:                                 # %invoke.cont
	movq	%rbx, %rdi
	callq	_ZdlPv
	.loc	1 1751 0                # streamcluster.cpp:1751:0
	addq	$32, %rsp
	popq	%rbx
	ret
.LBB29_2:                               # %lpad
.Ltmp461:
	.loc	1 1750 0                # streamcluster.cpp:1750:0
	movq	%rax, 16(%rsp)
	movl	%edx, 12(%rsp)
	movq	%rbx, %rdi
	callq	_ZdlPv
	movq	16(%rsp), %rdi
	callq	_Unwind_Resume
.Ltmp468:
.Ltmp469:
	.size	_ZN7PStreamD0Ev, .Ltmp469-_ZN7PStreamD0Ev
.Lfunc_end29:
	.cfi_endproc
.Leh_func_end29:
	.section	.gcc_except_table,"a",@progbits
	.align	4
GCC_except_table29:
.Lexception29:
	.byte	255                     # @LPStart Encoding = omit
	.byte	3                       # @TType Encoding = udata4
	.asciz	 "\234"                 # @TType base offset
	.byte	3                       # Call site Encoding = udata4
	.byte	26                      # Call site table length
.Lset33 = .Ltmp459-.Leh_func_begin29    # >> Call Site 1 <<
	.long	.Lset33
.Lset34 = .Ltmp460-.Ltmp459             #   Call between .Ltmp459 and .Ltmp460
	.long	.Lset34
.Lset35 = .Ltmp461-.Leh_func_begin29    #     jumps to .Ltmp461
	.long	.Lset35
	.byte	0                       #   On action: cleanup
.Lset36 = .Ltmp460-.Leh_func_begin29    # >> Call Site 2 <<
	.long	.Lset36
.Lset37 = .Leh_func_end29-.Ltmp460      #   Call between .Ltmp460 and .Leh_func_end29
	.long	.Lset37
	.long	0                       #     has no landing pad
	.byte	0                       #   On action: cleanup
	.align	4

	.section	.text._ZN9SimStreamC2El,"axG",@progbits,_ZN9SimStreamC2El,comdat
	.weak	_ZN9SimStreamC2El
	.align	16, 0x90
	.type	_ZN9SimStreamC2El,@function
_ZN9SimStreamC2El:                      # @_ZN9SimStreamC2El
	.cfi_startproc
.Lfunc_begin30:
	.loc	1 1757 0                # streamcluster.cpp:1757:0
# BB#0:                                 # %entry
	pushq	%rbx
.Ltmp472:
	.cfi_def_cfa_offset 16
	subq	$16, %rsp
.Ltmp473:
	.cfi_def_cfa_offset 32
.Ltmp474:
	.cfi_offset %rbx, -16
	movq	%rdi, 8(%rsp)
	movq	%rsi, (%rsp)
	movq	8(%rsp), %rbx
	.loc	1 1757 0 prologue_end   # streamcluster.cpp:1757:0
.Ltmp475:
	movq	%rbx, %rdi
	callq	_ZN7PStreamC2Ev
	movq	$_ZTV9SimStream+16, (%rbx)
	.loc	1 1758 0                # streamcluster.cpp:1758:0
.Ltmp476:
	movq	(%rsp), %rax
	movq	%rax, 8(%rbx)
	.loc	1 1759 0                # streamcluster.cpp:1759:0
	addq	$16, %rsp
	popq	%rbx
	ret
.Ltmp477:
.Ltmp478:
	.size	_ZN9SimStreamC2El, .Ltmp478-_ZN9SimStreamC2El
.Lfunc_end30:
	.cfi_endproc

	.section	.rodata.cst4,"aM",@progbits,4
	.align	4
.LCPI31_0:
	.long	1325400064              # float 2.147484e+09
                                        #  (0x4f000000)
	.section	.text._ZN9SimStream4readEPfii,"axG",@progbits,_ZN9SimStream4readEPfii,comdat
	.weak	_ZN9SimStream4readEPfii
	.align	16, 0x90
	.type	_ZN9SimStream4readEPfii,@function
_ZN9SimStream4readEPfii:                # @_ZN9SimStream4readEPfii
	.cfi_startproc
.Lfunc_begin31:
	.loc	1 1760 0                # streamcluster.cpp:1760:0
# BB#0:                                 # %entry
	pushq	%rbx
.Ltmp481:
	.cfi_def_cfa_offset 16
	subq	$48, %rsp
.Ltmp482:
	.cfi_def_cfa_offset 64
.Ltmp483:
	.cfi_offset %rbx, -16
	movq	%rdi, 40(%rsp)
	movq	%rsi, 32(%rsp)
	movl	%edx, 28(%rsp)
	movl	%ecx, 24(%rsp)
	movq	40(%rsp), %rbx
	.loc	1 1761 0 prologue_end   # streamcluster.cpp:1761:0
.Ltmp484:
	movq	$0, 16(%rsp)
	.loc	1 1762 0                # streamcluster.cpp:1762:0
.Ltmp485:
	movl	$0, 12(%rsp)
	jmp	.LBB31_1
	.align	16, 0x90
.LBB31_7:                               # %for.end
                                        #   in Loop: Header=BB31_1 Depth=1
	.loc	1 1766 0                # streamcluster.cpp:1766:0
.Ltmp486:
	decq	8(%rbx)
	.loc	1 1767 0                # streamcluster.cpp:1767:0
	incq	16(%rsp)
.Ltmp487:
	.loc	1 1762 0                # streamcluster.cpp:1762:0
	incl	12(%rsp)
.LBB31_1:                               # %for.cond
                                        # =>This Loop Header: Depth=1
                                        #     Child Loop BB31_5 Depth 2
	xorb	%al, %al
	movl	12(%rsp), %ecx
	cmpl	24(%rsp), %ecx
	jge	.LBB31_3
# BB#2:                                 # %land.rhs
                                        #   in Loop: Header=BB31_1 Depth=1
	cmpq	$0, 8(%rbx)
	setg	%al
.LBB31_3:                               # %land.end
                                        #   in Loop: Header=BB31_1 Depth=1
	cmpb	$1, %al
	jne	.LBB31_8
# BB#4:                                 # %for.body
                                        #   in Loop: Header=BB31_1 Depth=1
.Ltmp488:
	#DEBUG_VALUE: k <- [%rsp+$8]+$0
	.loc	1 1763 0                # streamcluster.cpp:1763:0
	movl	$0, 8(%rsp)
	jmp	.LBB31_5
	.align	16, 0x90
.LBB31_6:                               # %for.body5
                                        #   in Loop: Header=BB31_5 Depth=2
	.loc	1 1764 0                # streamcluster.cpp:1764:0
.Ltmp489:
	callq	lrand48
	vcvtsi2ssq	%rax, %xmm0, %xmm0
	vdivss	.LCPI31_0(%rip), %xmm0, %xmm0
	movl	12(%rsp), %eax
	imull	28(%rsp), %eax
	addl	8(%rsp), %eax
	movslq	%eax, %rax
	movq	32(%rsp), %rcx
	vmovss	%xmm0, (%rcx,%rax,4)
.Ltmp490:
	.loc	1 1763 0                # streamcluster.cpp:1763:0
	incl	8(%rsp)
.LBB31_5:                               # %for.cond3
                                        #   Parent Loop BB31_1 Depth=1
                                        # =>  This Inner Loop Header: Depth=2
	movl	8(%rsp), %eax
	cmpl	28(%rsp), %eax
	jge	.LBB31_7
	jmp	.LBB31_6
.Ltmp491:
.LBB31_8:                               # %for.end10
	.loc	1 1769 0                # streamcluster.cpp:1769:0
	movq	16(%rsp), %rax
	addq	$48, %rsp
	popq	%rbx
	ret
.Ltmp492:
.Ltmp493:
	.size	_ZN9SimStream4readEPfii, .Ltmp493-_ZN9SimStream4readEPfii
.Lfunc_end31:
	.cfi_endproc

	.section	.text._ZN9SimStream6ferrorEv,"axG",@progbits,_ZN9SimStream6ferrorEv,comdat
	.weak	_ZN9SimStream6ferrorEv
	.align	16, 0x90
	.type	_ZN9SimStream6ferrorEv,@function
_ZN9SimStream6ferrorEv:                 # @_ZN9SimStream6ferrorEv
	.cfi_startproc
.Lfunc_begin32:
	.loc	1 1771 0                # streamcluster.cpp:1771:0
# BB#0:                                 # %entry
	movq	%rdi, -8(%rsp)
	xorl	%eax, %eax
	.loc	1 1772 0 prologue_end   # streamcluster.cpp:1772:0
.Ltmp494:
	ret
.Ltmp495:
.Ltmp496:
	.size	_ZN9SimStream6ferrorEv, .Ltmp496-_ZN9SimStream6ferrorEv
.Lfunc_end32:
	.cfi_endproc

	.section	.text._ZN9SimStream4feofEv,"axG",@progbits,_ZN9SimStream4feofEv,comdat
	.weak	_ZN9SimStream4feofEv
	.align	16, 0x90
	.type	_ZN9SimStream4feofEv,@function
_ZN9SimStream4feofEv:                   # @_ZN9SimStream4feofEv
	.cfi_startproc
.Lfunc_begin33:
	.loc	1 1774 0                # streamcluster.cpp:1774:0
# BB#0:                                 # %entry
	movq	%rdi, -8(%rsp)
	.loc	1 1775 0 prologue_end   # streamcluster.cpp:1775:0
.Ltmp497:
	cmpq	$0, 8(%rdi)
	setle	%al
	movzbl	%al, %eax
	ret
.Ltmp498:
.Ltmp499:
	.size	_ZN9SimStream4feofEv, .Ltmp499-_ZN9SimStream4feofEv
.Lfunc_end33:
	.cfi_endproc

	.section	.text._ZN9SimStreamD1Ev,"axG",@progbits,_ZN9SimStreamD1Ev,comdat
	.weak	_ZN9SimStreamD1Ev
	.align	16, 0x90
	.type	_ZN9SimStreamD1Ev,@function
_ZN9SimStreamD1Ev:                      # @_ZN9SimStreamD1Ev
	.cfi_startproc
.Lfunc_begin34:
	.loc	1 1777 0                # streamcluster.cpp:1777:0
# BB#0:                                 # %entry
	pushq	%rax
.Ltmp501:
	.cfi_def_cfa_offset 16
	movq	%rdi, (%rsp)
	.loc	1 1777 0 prologue_end   # streamcluster.cpp:1777:0
.Ltmp502:
	callq	_ZN9SimStreamD2Ev
	.loc	1 1778 0                # streamcluster.cpp:1778:0
	popq	%rax
	ret
.Ltmp503:
.Ltmp504:
	.size	_ZN9SimStreamD1Ev, .Ltmp504-_ZN9SimStreamD1Ev
.Lfunc_end34:
	.cfi_endproc

	.section	.text._ZN9SimStreamD0Ev,"axG",@progbits,_ZN9SimStreamD0Ev,comdat
	.weak	_ZN9SimStreamD0Ev
	.align	16, 0x90
	.type	_ZN9SimStreamD0Ev,@function
_ZN9SimStreamD0Ev:                      # @_ZN9SimStreamD0Ev
	.cfi_startproc
	.cfi_personality 3, __gxx_personality_v0
.Leh_func_begin35:
	.cfi_lsda 3, .Lexception35
.Lfunc_begin35:
	.loc	1 1777 0                # streamcluster.cpp:1777:0
# BB#0:                                 # %entry
	pushq	%rbx
.Ltmp510:
	.cfi_def_cfa_offset 16
	subq	$32, %rsp
.Ltmp511:
	.cfi_def_cfa_offset 48
.Ltmp512:
	.cfi_offset %rbx, -16
	movq	%rdi, %rbx
	movq	%rbx, 24(%rsp)
	.loc	1 1777 0 prologue_end   # streamcluster.cpp:1777:0
.Ltmp513:
.Ltmp505:
	callq	_ZN9SimStreamD1Ev
.Ltmp506:
# BB#1:                                 # %invoke.cont
	movq	%rbx, %rdi
	callq	_ZdlPv
	.loc	1 1778 0                # streamcluster.cpp:1778:0
	addq	$32, %rsp
	popq	%rbx
	ret
.LBB35_2:                               # %lpad
.Ltmp507:
	.loc	1 1777 0                # streamcluster.cpp:1777:0
	movq	%rax, 16(%rsp)
	movl	%edx, 12(%rsp)
	movq	%rbx, %rdi
	callq	_ZdlPv
	movq	16(%rsp), %rdi
	callq	_Unwind_Resume
.Ltmp514:
.Ltmp515:
	.size	_ZN9SimStreamD0Ev, .Ltmp515-_ZN9SimStreamD0Ev
.Lfunc_end35:
	.cfi_endproc
.Leh_func_end35:
	.section	.gcc_except_table,"a",@progbits
	.align	4
GCC_except_table35:
.Lexception35:
	.byte	255                     # @LPStart Encoding = omit
	.byte	3                       # @TType Encoding = udata4
	.asciz	 "\234"                 # @TType base offset
	.byte	3                       # Call site Encoding = udata4
	.byte	26                      # Call site table length
.Lset38 = .Ltmp505-.Leh_func_begin35    # >> Call Site 1 <<
	.long	.Lset38
.Lset39 = .Ltmp506-.Ltmp505             #   Call between .Ltmp505 and .Ltmp506
	.long	.Lset39
.Lset40 = .Ltmp507-.Leh_func_begin35    #     jumps to .Ltmp507
	.long	.Lset40
	.byte	0                       #   On action: cleanup
.Lset41 = .Ltmp506-.Leh_func_begin35    # >> Call Site 2 <<
	.long	.Lset41
.Lset42 = .Leh_func_end35-.Ltmp506      #   Call between .Ltmp506 and .Leh_func_end35
	.long	.Lset42
	.long	0                       #     has no landing pad
	.byte	0                       #   On action: cleanup
	.align	4

	.section	.text._ZN9SimStreamD2Ev,"axG",@progbits,_ZN9SimStreamD2Ev,comdat
	.weak	_ZN9SimStreamD2Ev
	.align	16, 0x90
	.type	_ZN9SimStreamD2Ev,@function
_ZN9SimStreamD2Ev:                      # @_ZN9SimStreamD2Ev
	.cfi_startproc
.Lfunc_begin36:
	.loc	1 1777 0                # streamcluster.cpp:1777:0
# BB#0:                                 # %entry
	pushq	%rax
.Ltmp517:
	.cfi_def_cfa_offset 16
	movq	%rdi, (%rsp)
	.loc	1 1778 0 prologue_end   # streamcluster.cpp:1778:0
.Ltmp518:
	callq	_ZN7PStreamD2Ev
	popq	%rax
	ret
.Ltmp519:
.Ltmp520:
	.size	_ZN9SimStreamD2Ev, .Ltmp520-_ZN9SimStreamD2Ev
.Lfunc_end36:
	.cfi_endproc

	.section	.text.startup,"ax",@progbits
	.align	16, 0x90
	.type	_GLOBAL__I_a,@function
_GLOBAL__I_a:                           # @_GLOBAL__I_a
	.cfi_startproc
.Lfunc_begin37:
	.loc	1 79 0                  # streamcluster.cpp:79:0
# BB#0:                                 # %entry
	.loc	1 79 0 prologue_end     # streamcluster.cpp:79:0
	pushq	%rax
.Ltmp522:
	.cfi_def_cfa_offset 16
	callq	__cxx_global_var_init
	popq	%rax
	ret
.Ltmp523:
.Ltmp524:
	.size	_GLOBAL__I_a, .Ltmp524-_GLOBAL__I_a
.Lfunc_end37:
	.cfi_endproc

	.type	_ZStL8__ioinit,@object  # @_ZStL8__ioinit
	.lcomm	_ZStL8__ioinit,1
	.type	_ZL5nproc,@object       # @_ZL5nproc
	.local	_ZL5nproc
	.comm	_ZL5nproc,4,4
	.type	_ZZ7pspeedyP6PointsfPliP17pthread_barrier_tE9totalcost,@object # @_ZZ7pspeedyP6PointsfPliP17pthread_barrier_tE9totalcost
	.local	_ZZ7pspeedyP6PointsfPliP17pthread_barrier_tE9totalcost
	.comm	_ZZ7pspeedyP6PointsfPliP17pthread_barrier_tE9totalcost,8,8
	.type	_ZZ7pspeedyP6PointsfPliP17pthread_barrier_tE4open,@object # @_ZZ7pspeedyP6PointsfPliP17pthread_barrier_tE4open
	.lcomm	_ZZ7pspeedyP6PointsfPliP17pthread_barrier_tE4open,1
	.type	_ZZ7pspeedyP6PointsfPliP17pthread_barrier_tE5costs,@object # @_ZZ7pspeedyP6PointsfPliP17pthread_barrier_tE5costs
	.local	_ZZ7pspeedyP6PointsfPliP17pthread_barrier_tE5costs
	.comm	_ZZ7pspeedyP6PointsfPliP17pthread_barrier_tE5costs,8,8
	.type	_ZZ7pspeedyP6PointsfPliP17pthread_barrier_tE1i,@object # @_ZZ7pspeedyP6PointsfPliP17pthread_barrier_tE1i
	.local	_ZZ7pspeedyP6PointsfPliP17pthread_barrier_tE1i
	.comm	_ZZ7pspeedyP6PointsfPliP17pthread_barrier_tE1i,4,4
	.type	_ZL5mutex,@object       # @_ZL5mutex
	.local	_ZL5mutex
	.comm	_ZL5mutex,40,8
	.type	_ZL4cond,@object        # @_ZL4cond
	.local	_ZL4cond
	.comm	_ZL4cond,48,8
	.type	_ZZ5pgainlP6PointsdPliP17pthread_barrier_tE8work_mem,@object # @_ZZ5pgainlP6PointsdPliP17pthread_barrier_tE8work_mem
	.local	_ZZ5pgainlP6PointsdPliP17pthread_barrier_tE8work_mem
	.comm	_ZZ5pgainlP6PointsdPliP17pthread_barrier_tE8work_mem,8,8
	.type	_ZZ5pgainlP6PointsdPliP17pthread_barrier_tE20gl_cost_of_opening_x,@object # @_ZZ5pgainlP6PointsdPliP17pthread_barrier_tE20gl_cost_of_opening_x
	.local	_ZZ5pgainlP6PointsdPliP17pthread_barrier_tE20gl_cost_of_opening_x
	.comm	_ZZ5pgainlP6PointsdPliP17pthread_barrier_tE20gl_cost_of_opening_x,8,8
	.type	_ZZ5pgainlP6PointsdPliP17pthread_barrier_tE29gl_number_of_centers_to_close,@object # @_ZZ5pgainlP6PointsdPliP17pthread_barrier_tE29gl_number_of_centers_to_close
	.local	_ZZ5pgainlP6PointsdPliP17pthread_barrier_tE29gl_number_of_centers_to_close
	.comm	_ZZ5pgainlP6PointsdPliP17pthread_barrier_tE29gl_number_of_centers_to_close,4,4
	.type	_ZL9is_center,@object   # @_ZL9is_center
	.local	_ZL9is_center
	.comm	_ZL9is_center,8,8
	.type	_ZL12center_table,@object # @_ZL12center_table
	.local	_ZL12center_table
	.comm	_ZL12center_table,8,8
	.type	_ZL17switch_membership,@object # @_ZL17switch_membership
	.local	_ZL17switch_membership
	.comm	_ZL17switch_membership,8,8
	.type	_ZZ8pkmedianP6PointsllPliP17pthread_barrier_tE1k,@object # @_ZZ8pkmedianP6PointsllPliP17pthread_barrier_tE1k
	.local	_ZZ8pkmedianP6PointsllPliP17pthread_barrier_tE1k
	.comm	_ZZ8pkmedianP6PointsllPliP17pthread_barrier_tE1k,8,8
	.type	_ZZ8pkmedianP6PointsllPliP17pthread_barrier_tE8feasible,@object # @_ZZ8pkmedianP6PointsllPliP17pthread_barrier_tE8feasible
	.local	_ZZ8pkmedianP6PointsllPliP17pthread_barrier_tE8feasible
	.comm	_ZZ8pkmedianP6PointsllPliP17pthread_barrier_tE8feasible,8,8
	.type	_ZZ8pkmedianP6PointsllPliP17pthread_barrier_tE11numfeasible,@object # @_ZZ8pkmedianP6PointsllPliP17pthread_barrier_tE11numfeasible
	.local	_ZZ8pkmedianP6PointsllPliP17pthread_barrier_tE11numfeasible
	.comm	_ZZ8pkmedianP6PointsllPliP17pthread_barrier_tE11numfeasible,4,4
	.type	_ZZ8pkmedianP6PointsllPliP17pthread_barrier_tE4hizs,@object # @_ZZ8pkmedianP6PointsllPliP17pthread_barrier_tE4hizs
	.local	_ZZ8pkmedianP6PointsllPliP17pthread_barrier_tE4hizs
	.comm	_ZZ8pkmedianP6PointsllPliP17pthread_barrier_tE4hizs,8,8
	.type	.L.str,@object          # @.str
	.section	.rodata.str1.1,"aMS",@progbits,1
.L.str:
	.asciz	 "w"
	.size	.L.str, 2

	.type	.L.str1,@object         # @.str1
.L.str1:
	.asciz	 "error opening %s\n"
	.size	.L.str1, 18

	.type	.L.str2,@object         # @.str2
.L.str2:
	.asciz	 "%u\n"
	.size	.L.str2, 4

	.type	.L.str3,@object         # @.str3
.L.str3:
	.asciz	 "%lf\n"
	.size	.L.str3, 5

	.type	.L.str4,@object         # @.str4
.L.str4:
	.asciz	 "%lf "
	.size	.L.str4, 5

	.type	.L.str5,@object         # @.str5
.L.str5:
	.asciz	 "\n\n"
	.size	.L.str5, 3

	.type	.L.str6,@object         # @.str6
.L.str6:
	.asciz	 "not enough memory for a chunk!\n"
	.size	.L.str6, 32

	.type	_ZZ13streamClusterP7PStreamllillPcE6kfinal,@object # @_ZZ13streamClusterP7PStreamllillPcE6kfinal
	.local	_ZZ13streamClusterP7PStreamllillPcE6kfinal
	.comm	_ZZ13streamClusterP7PStreamllillPcE6kfinal,8,8
	.type	.L.str7,@object         # @.str7
.L.str7:
	.asciz	 "read %d points\n"
	.size	.L.str7, 16

	.type	.L.str8,@object         # @.str8
.L.str8:
	.asciz	 "error reading data!\n"
	.size	.L.str8, 21

	.type	.L.str9,@object         # @.str9
.L.str9:
	.asciz	 "oops! no more space for centers\n"
	.size	.L.str9, 33

	.type	.L.str10,@object        # @.str10
.L.str10:
	.asciz	 "PARSEC Benchmark Suite\n"
	.size	.L.str10, 24

	.type	.L.str11,@object        # @.str11
.L.str11:
	.asciz	 "usage: %s k1 k2 d n chunksize clustersize infile outfile nproc\n"
	.size	.L.str11, 64

	.type	.L.str12,@object        # @.str12
.L.str12:
	.asciz	 "  k1:          Min. number of centers allowed\n"
	.size	.L.str12, 47

	.type	.L.str13,@object        # @.str13
.L.str13:
	.asciz	 "  k2:          Max. number of centers allowed\n"
	.size	.L.str13, 47

	.type	.L.str14,@object        # @.str14
.L.str14:
	.asciz	 "  d:           Dimension of each data point\n"
	.size	.L.str14, 45

	.type	.L.str15,@object        # @.str15
.L.str15:
	.asciz	 "  n:           Number of data points\n"
	.size	.L.str15, 38

	.type	.L.str16,@object        # @.str16
.L.str16:
	.asciz	 "  chunksize:   Number of data points to handle per step\n"
	.size	.L.str16, 57

	.type	.L.str17,@object        # @.str17
.L.str17:
	.asciz	 "  clustersize: Maximum number of intermediate centers\n"
	.size	.L.str17, 55

	.type	.L.str18,@object        # @.str18
.L.str18:
	.asciz	 "  infile:      Input file (if n<=0)\n"
	.size	.L.str18, 37

	.type	.L.str19,@object        # @.str19
.L.str19:
	.asciz	 "  outfile:     Output file\n"
	.size	.L.str19, 28

	.type	.L.str20,@object        # @.str20
.L.str20:
	.asciz	 "  nproc:       Number of threads to use\n"
	.size	.L.str20, 41

	.type	.L.str21,@object        # @.str21
.L.str21:
	.asciz	 "\n"
	.size	.L.str21, 2

	.type	.L.str22,@object        # @.str22
.L.str22:
	.asciz	 "if n > 0, points will be randomly generated instead of reading from infile.\n"
	.size	.L.str22, 77

	.type	_ZTV10FileStream,@object # @_ZTV10FileStream
	.section	.rodata._ZTV10FileStream,"aG",@progbits,_ZTV10FileStream,comdat
	.weak	_ZTV10FileStream
	.align	16
_ZTV10FileStream:
	.quad	0
	.quad	_ZTI10FileStream
	.quad	_ZN10FileStream4readEPfii
	.quad	_ZN10FileStream6ferrorEv
	.quad	_ZN10FileStream4feofEv
	.quad	_ZN10FileStreamD1Ev
	.quad	_ZN10FileStreamD0Ev
	.size	_ZTV10FileStream, 56

	.type	.L.str23,@object        # @.str23
	.section	.rodata.str1.1,"aMS",@progbits,1
.L.str23:
	.asciz	 "rb"
	.size	.L.str23, 3

	.type	.L.str24,@object        # @.str24
.L.str24:
	.asciz	 "error opening file %s\n."
	.size	.L.str24, 24

	.type	_ZTS10FileStream,@object # @_ZTS10FileStream
	.section	.rodata._ZTS10FileStream,"aG",@progbits,_ZTS10FileStream,comdat
	.weak	_ZTS10FileStream
_ZTS10FileStream:
	.asciz	 "10FileStream"
	.size	_ZTS10FileStream, 13

	.type	_ZTS7PStream,@object    # @_ZTS7PStream
	.section	.rodata._ZTS7PStream,"aG",@progbits,_ZTS7PStream,comdat
	.weak	_ZTS7PStream
_ZTS7PStream:
	.asciz	 "7PStream"
	.size	_ZTS7PStream, 9

	.type	_ZTI7PStream,@object    # @_ZTI7PStream
	.section	.rodata._ZTI7PStream,"aG",@progbits,_ZTI7PStream,comdat
	.weak	_ZTI7PStream
	.align	8
_ZTI7PStream:
	.quad	_ZTVN10__cxxabiv117__class_type_infoE+16
	.quad	_ZTS7PStream
	.size	_ZTI7PStream, 16

	.type	_ZTI10FileStream,@object # @_ZTI10FileStream
	.section	.rodata._ZTI10FileStream,"aG",@progbits,_ZTI10FileStream,comdat
	.weak	_ZTI10FileStream
	.align	16
_ZTI10FileStream:
	.quad	_ZTVN10__cxxabiv120__si_class_type_infoE+16
	.quad	_ZTS10FileStream
	.quad	_ZTI7PStream
	.size	_ZTI10FileStream, 24

	.type	.L.str25,@object        # @.str25
	.section	.rodata.str1.1,"aMS",@progbits,1
.L.str25:
	.asciz	 "closing file stream\n"
	.size	.L.str25, 21

	.type	_ZTV7PStream,@object    # @_ZTV7PStream
	.section	.rodata._ZTV7PStream,"aG",@progbits,_ZTV7PStream,comdat
	.weak	_ZTV7PStream
	.align	16
_ZTV7PStream:
	.quad	0
	.quad	_ZTI7PStream
	.quad	__cxa_pure_virtual
	.quad	__cxa_pure_virtual
	.quad	__cxa_pure_virtual
	.quad	_ZN7PStreamD1Ev
	.quad	_ZN7PStreamD0Ev
	.size	_ZTV7PStream, 56

	.type	_ZTV9SimStream,@object  # @_ZTV9SimStream
	.section	.rodata._ZTV9SimStream,"aG",@progbits,_ZTV9SimStream,comdat
	.weak	_ZTV9SimStream
	.align	16
_ZTV9SimStream:
	.quad	0
	.quad	_ZTI9SimStream
	.quad	_ZN9SimStream4readEPfii
	.quad	_ZN9SimStream6ferrorEv
	.quad	_ZN9SimStream4feofEv
	.quad	_ZN9SimStreamD1Ev
	.quad	_ZN9SimStreamD0Ev
	.size	_ZTV9SimStream, 56

	.type	_ZTS9SimStream,@object  # @_ZTS9SimStream
	.section	.rodata._ZTS9SimStream,"aG",@progbits,_ZTS9SimStream,comdat
	.weak	_ZTS9SimStream
_ZTS9SimStream:
	.asciz	 "9SimStream"
	.size	_ZTS9SimStream, 11

	.type	_ZTI9SimStream,@object  # @_ZTI9SimStream
	.section	.rodata._ZTI9SimStream,"aG",@progbits,_ZTI9SimStream,comdat
	.weak	_ZTI9SimStream
	.align	16
_ZTI9SimStream:
	.quad	_ZTVN10__cxxabiv120__si_class_type_infoE+16
	.quad	_ZTS9SimStream
	.quad	_ZTI7PStream
	.size	_ZTI9SimStream, 24

	.section	.ctors,"aw",@progbits
	.align	8
	.quad	_GLOBAL__I_a
	.text
.Ltext_end:
	.data
.Ldata_end:
	.text
.Lsection_end1:
	.section	".note.GNU-stack","",@progbits
