; ModuleID = 'pbzip2.bc'
target datalayout = "e-p:64:64:64-i1:8:8-i8:8:8-i16:16:16-i32:32:32-i64:64:64-f32:32:32-f64:64:64-v64:64:64-v128:128:128-a0:0:64-s0:64:64-f80:128:128-n8:16:32:64-S128"
target triple = "x86_64-unknown-linux-gnu"

%"class.std::vector" = type { %"struct.std::_Vector_base" }
%"struct.std::_Vector_base" = type { %"struct.std::_Vector_base<outBuff, std::allocator<outBuff> >::_Vector_impl" }
%"struct.std::_Vector_base<outBuff, std::allocator<outBuff> >::_Vector_impl" = type { %struct.outBuff*, %struct.outBuff*, %struct.outBuff* }
%struct.outBuff = type { i8*, i32 }
%struct._IO_FILE = type { i32, i8*, i8*, i8*, i8*, i8*, i8*, i8*, i8*, i8*, i8*, i8*, %struct._IO_marker*, %struct._IO_FILE*, i32, i32, i64, i16, i8, [1 x i8], i8*, i64, i8*, i8*, i8*, i8*, i64, i32, [20 x i8] }
%struct._IO_marker = type { %struct._IO_marker*, %struct._IO_FILE*, i32 }
%union.pthread_mutex_t = type { %"struct.<anonymous union>::__pthread_mutex_s" }
%"struct.<anonymous union>::__pthread_mutex_s" = type { i32, i32, i32, i32, i32, i16, i16, %struct.__pthread_internal_list }
%struct.__pthread_internal_list = type { %struct.__pthread_internal_list*, %struct.__pthread_internal_list* }
%struct.stat = type { i64, i64, i64, i32, i32, i32, i32, i64, i64, i64, i64, %struct.timespec, %struct.timespec, %struct.timespec, [3 x i64] }
%struct.timespec = type { i64, i64 }
%struct.queue = type { i8**, i32*, i32*, i64, i64, i32, i32, %union.pthread_mutex_t*, %union.pthread_cond_t*, %union.pthread_cond_t* }
%union.pthread_cond_t = type { %struct.anon }
%struct.anon = type { i32, i32, i64, i64, i64, i8*, i32, i32 }
%"class.std::vector.0" = type { %"struct.std::_Vector_base.1" }
%"struct.std::_Vector_base.1" = type { %"struct.std::_Vector_base<bz2BlockListing, std::allocator<bz2BlockListing> >::_Vector_impl" }
%"struct.std::_Vector_base<bz2BlockListing, std::allocator<bz2BlockListing> >::_Vector_impl" = type { %struct.bz2BlockListing*, %struct.bz2BlockListing*, %struct.bz2BlockListing* }
%struct.bz2BlockListing = type { i64, i64 }
%"class.__gnu_cxx::__normal_iterator.5" = type { %struct.bz2BlockListing* }
%"class.std::allocator.2" = type { i8 }
%"class.__gnu_cxx::__normal_iterator" = type { %struct.outBuff* }
%"class.std::allocator" = type { i8 }
%struct.timeval = type { i64, i64 }
%struct.timezone = type { i32, i32 }
%union.pthread_mutexattr_t = type { i32 }
%union.pthread_condattr_t = type { i32 }
%struct.utimbuf = type { i64, i64 }
%union.pthread_attr_t = type { i64, [48 x i8] }
%"class.__gnu_cxx::new_allocator" = type { i8 }
%"class.__gnu_cxx::new_allocator.3" = type { i8 }

@_ZL12OutputBuffer = internal global %"class.std::vector" zeroinitializer, align 8
@__dso_handle = external global i8
@stderr = external global %struct._IO_FILE*
@.str = private unnamed_addr constant [45 x i8] c"\0A *Control-C or similar caught, quitting...\0A\00", align 1
@_ZL13sigInFilename = internal global i8* null, align 8
@_ZL14sigOutFilename = internal global i8* null, align 8
@_ZL9QuietMode = internal global i32 0, align 4
@.str1 = private unnamed_addr constant [43 x i8] c"Deleting output file: %s, if it exists...\0A\00", align 1
@.str2 = private unnamed_addr constant [57 x i8] c" *WARNING: Deletion of output file (apparently) failed.\0A\00", align 1
@.str3 = private unnamed_addr constant [75 x i8] c" *WARNING: Output file was not deleted since input file no longer exists.\0A\00", align 1
@.str4 = private unnamed_addr constant [48 x i8] c" *WARNING: Output file: %s, may be incomplete!\0A\00", align 1
@_ZZ19producer_decompressilP5queueE9bz2Header = private unnamed_addr constant [11 x i8] c"BZh91AY&SY\00", align 1
@_ZL16BWTblockSizeChar = internal global i8 57, align 1
@.str5 = private unnamed_addr constant [67 x i8] c" *ERROR: Could not seek to beginning of file [%llu]!  Skipping...\0A\00", align 1
@_ZL7allDone = internal global i32 0, align 4
@_ZL8MemMutex = internal global %union.pthread_mutex_t* null, align 8
@.str6 = private unnamed_addr constant [61 x i8] c" *ERROR: Could not allocate memory (FileData)!  Skipping...\0A\00", align 1
@.str7 = private unnamed_addr constant [61 x i8] c" *ERROR: Could not read from fibz2NumBlocksle!  Skipping...\0A\00", align 1
@_ZL9NumBlocks = internal global i32 0, align 4
@.str8 = private unnamed_addr constant [57 x i8] c" *WARNING: Compressed block size is large [%llu bytes].\0A\00", align 1
@.str9 = private unnamed_addr constant [64 x i8] c"           If program aborts, use regular BZIP2 to decompress.\0A\00", align 1
@.str10 = private unnamed_addr constant [49 x i8] c" *ERROR: Could not read from file!  Skipping...\0A\00", align 1
@.str11 = private unnamed_addr constant [61 x i8] c" *ERROR: Could not read enough data from file!  Skipping...\0A\00", align 1
@_ZL8OutMutex = internal global %union.pthread_mutex_t* null, align 8
@.str12 = private unnamed_addr constant [63 x i8] c" *ERROR: pthread_cond_timedwait() call invalid.  This machine\0A\00", align 1
@.str13 = private unnamed_addr constant [64 x i8] c"         does not have compatible pthreads library.  Skipping.\0A\00", align 1
@.str14 = private unnamed_addr constant [69 x i8] c" *ERROR: Could not allocate memory (DecompressedData)!  Skipping...\0A\00", align 1
@_ZL9Verbosity = internal global i32 0, align 4
@.str15 = private unnamed_addr constant [34 x i8] c" *ERROR during decompression: %d\0A\00", align 1
@_ZL12OutputStdOut = internal global i32 0, align 4
@.str16 = private unnamed_addr constant [45 x i8] c" *ERROR: Could not create output file [%s]!\0A\00", align 1
@.str17 = private unnamed_addr constant [48 x i8] c" *ERROR: Could not write to file!  Skipping...\0A\00", align 1
@.str18 = private unnamed_addr constant [30 x i8] c"Completed: %d%%             \0D\00", align 1
@.str19 = private unnamed_addr constant [29 x i8] c"    Output Size: %llu bytes\0A\00", align 1
@.str20 = private unnamed_addr constant [49 x i8] c"producer:  *ERROR: pthread_cond_wait error = %d\0A\00", align 1
@.str21 = private unnamed_addr constant [51 x i8] c"consumer:  *ERROR: pthread_cond_signal error = %d\0A\00", align 1
@.str22 = private unnamed_addr constant [67 x i8] c" *ERROR: Could not allocate memory (CompressedData)!  Skipping...\0A\00", align 1
@_ZL12BWTblockSize = internal global i32 9, align 4
@.str23 = private unnamed_addr constant [32 x i8] c" *ERROR during compression: %d\0A\00", align 1
@_ZL9QUEUESIZE = internal global i32 2, align 4
@.str24 = private unnamed_addr constant [66 x i8] c" *ERROR: Integers are not the right size for libbzip2. Aborting!\0A\00", align 1
@.str25 = private unnamed_addr constant [59 x i8] c" *ERROR: Data integrity (CRC) error in data!  Skipping...\0A\00", align 1
@.str26 = private unnamed_addr constant [54 x i8] c" *ERROR: Could NOT allocate enough memory. Aborting!\0A\00", align 1
@.str27 = private unnamed_addr constant [47 x i8] c" *ERROR: File ends unexpectedly!  Skipping...\0A\00", align 1
@.str28 = private unnamed_addr constant [69 x i8] c" *ERROR: Bad magic number (file not created by bzip2)!  Skipping...\0A\00", align 1
@.str29 = private unnamed_addr constant [48 x i8] c" *Warning: Trailing garbage after EOF ignored!\0A\00", align 1
@.str30 = private unnamed_addr constant [38 x i8] c" *ERROR: Unexpected error. Aborting!\0A\00", align 1
@.str31 = private unnamed_addr constant [3 x i8] c"rb\00", align 1
@.str32 = private unnamed_addr constant [55 x i8] c" *ERROR: Could not open input file [%s]!  Skipping...\0A\00", align 1
@.str33 = private unnamed_addr constant [57 x i8] c" *ERROR: Problem with stream of file [%s]!  Skipping...\0A\00", align 1
@.str34 = private unnamed_addr constant [50 x i8] c" *ERROR: Problem closing file [%s]!  Skipping...\0A\00", align 1
@_ZL12fileMetaData = internal global %struct.stat zeroinitializer, align 8
@.str35 = private unnamed_addr constant [68 x i8] c"Parallel BZIP2 v0.9.4 - by: Jeff Gilchrist [http://compression.ca]\0A\00", align 1
@.str36 = private unnamed_addr constant [64 x i8] c"[Aug. 30, 2005]             (uses libbzip2  by Julian Seward)\0A\0A\00", align 1
@.str37 = private unnamed_addr constant [54 x i8] c"** This is a BETA version - Use at your own risk! **\0A\00", align 1
@.str38 = private unnamed_addr constant [38 x i8] c"\0AInvalid command line!  Aborting...\0A\0A\00", align 1
@.str39 = private unnamed_addr constant [73 x i8] c"Usage: %s [-1 .. -9] [-b#cdfkp#qrtV] <filename> <filename2> <filenameN>\0A\00", align 1
@.str40 = private unnamed_addr constant [71 x i8] c" -b#      : where # is the file block size in 100k (default 9 = 900k)\0A\00", align 1
@.str41 = private unnamed_addr constant [45 x i8] c" -c       : output to standard out (stdout)\0A\00", align 1
@.str42 = private unnamed_addr constant [29 x i8] c" -d       : decompress file\0A\00", align 1
@.str43 = private unnamed_addr constant [51 x i8] c" -f       : force, overwrite existing output file\0A\00", align 1
@.str44 = private unnamed_addr constant [43 x i8] c" -k       : keep input file, don't delete\0A\00", align 1
@.str45 = private unnamed_addr constant [57 x i8] c" -p#      : where # is the number of processors (default\00", align 1
@.str46 = private unnamed_addr constant [15 x i8] c": autodetect)\0A\00", align 1
@.str47 = private unnamed_addr constant [53 x i8] c" -q       : quiet mode, suppress non-error messages\0A\00", align 1
@.str48 = private unnamed_addr constant [74 x i8] c" -r       : read entire input file into RAM and split between processors\0A\00", align 1
@.str49 = private unnamed_addr constant [44 x i8] c" -t       : test compressed file integrity\0A\00", align 1
@.str50 = private unnamed_addr constant [55 x i8] c" -V       : display version info for pbzip2 then exit\0A\00", align 1
@.str51 = private unnamed_addr constant [64 x i8] c" -1 .. -9 : set BWT block size to 100k .. 900k (default 900k)\0A\0A\00", align 1
@.str52 = private unnamed_addr constant [35 x i8] c"Example: pbzip2 -b15qk myfile.tar\0A\00", align 1
@.str53 = private unnamed_addr constant [50 x i8] c"Example: pbzip2 -p4 -r -5 myfile.tar second*.txt\0A\00", align 1
@.str54 = private unnamed_addr constant [36 x i8] c"Example: pbzip2 -d myfile.tar.bz2\0A\0A\00", align 1
@_ZZ4mainE9bz2Header = private unnamed_addr constant [11 x i8] c"BZh91AY&SY\00", align 1
@_ZL13FileListCount = internal global i32 0, align 4
@.str55 = private unnamed_addr constant [42 x i8] c" *ERROR: Not enough memory!  Aborting...\0A\00", align 1
@.str56 = private unnamed_addr constant [2 x i8] c"2\00", align 1
@.str57 = private unnamed_addr constant [71 x i8] c" *ERROR: Maximal number of supported processors is 4096!  Aborting...\0A\00", align 1
@.str58 = private unnamed_addr constant [68 x i8] c" *ERROR: Minimum number of supported processors is 1!  Aborting...\0A\00", align 1
@.str59 = private unnamed_addr constant [72 x i8] c" *ERROR: Number 1-9 expected for a block size definition!  Aborting...\0A\00", align 1
@.str60 = private unnamed_addr constant [22 x i8] c"\0A         # CPUs: %d\0A\00", align 1
@.str61 = private unnamed_addr constant [24 x i8] c" BWT Block Size: %d00k\0A\00", align 1
@.str62 = private unnamed_addr constant [27 x i8] c"File Block Size: %d bytes\0A\00", align 1
@.str63 = private unnamed_addr constant [22 x i8] c"File Block Size: %dk\0A\00", align 1
@.str64 = private unnamed_addr constant [45 x i8] c"-------------------------------------------\0A\00", align 1
@.str65 = private unnamed_addr constant [61 x i8] c" *ERROR: Could not allocate memory (OutMutex)!  Aborting...\0A\00", align 1
@.str66 = private unnamed_addr constant [61 x i8] c" *ERROR: Could not allocate memory (MemMutex)!  Aborting...\0A\00", align 1
@.str67 = private unnamed_addr constant [42 x i8] c" *ERROR: Queue Init failed.  Aborting...\0A\00", align 1
@.str68 = private unnamed_addr constant [24 x i8] c"      File #: %d of %d\0A\00", align 1
@.str69 = private unnamed_addr constant [18 x i8] c"     Testing: %s\0A\00", align 1
@.str70 = private unnamed_addr constant [18 x i8] c"        Test: OK\0A\00", align 1
@.str71 = private unnamed_addr constant [44 x i8] c" *ERROR: File [%s] NOT found!  Skipping...\0A\00", align 1
@.str72 = private unnamed_addr constant [55 x i8] c" *ERROR: File [%s] is NOT a valid bzip2!  Skipping...\0A\00", align 1
@.str73 = private unnamed_addr constant [5 x i8] c".bz2\00", align 1
@.str74 = private unnamed_addr constant [5 x i8] c".out\00", align 1
@.str75 = private unnamed_addr constant [69 x i8] c" *ERROR: Input file [%s] already has a .bz2 extension!  Skipping...\0A\00", align 1
@.str76 = private unnamed_addr constant [49 x i8] c" *ERROR: File [%s] is a directory!  Skipping...\0A\00", align 1
@.str77 = private unnamed_addr constant [56 x i8] c" *ERROR: File [%s] is not a regular file!  Skipping...\0A\00", align 1
@.str78 = private unnamed_addr constant [47 x i8] c" *ERROR: File is of size 0 [%s]!  Skipping...\0A\00", align 1
@.str79 = private unnamed_addr constant [63 x i8] c" *ERROR: Could not get file meta data from [%s]!  Skipping...\0A\00", align 1
@.str80 = private unnamed_addr constant [67 x i8] c" *ERROR: Output file [%s] already exists!  Use -f to overwrite...\0A\00", align 1
@.str81 = private unnamed_addr constant [27 x i8] c"         File #: %d of %d\0A\00", align 1
@.str82 = private unnamed_addr constant [21 x i8] c"     Input Name: %s\0A\00", align 1
@.str83 = private unnamed_addr constant [22 x i8] c"    Output Name: %s\0A\0A\00", align 1
@.str84 = private unnamed_addr constant [28 x i8] c"    Output Name: <stdout>\0A\0A\00", align 1
@.str85 = private unnamed_addr constant [24 x i8] c" BWT Block Size: %c00k\0A\00", align 1
@.str86 = private unnamed_addr constant [29 x i8] c"     Input Size: %llu bytes\0A\00", align 1
@.str87 = private unnamed_addr constant [65 x i8] c" *ERROR: Could not allocate memory (OutputBuffer)!  Aborting...\0A\00", align 1
@.str88 = private unnamed_addr constant [23 x i8] c"Decompressing data...\0A\00", align 1
@.str89 = private unnamed_addr constant [86 x i8] c" *ERROR: Not enough resources to create consumer thread #%d (code = %d)  Aborting...\0A\00", align 1
@.str90 = private unnamed_addr constant [84 x i8] c" *ERROR: Not enough resources to create fileWriter thread (code = %d)  Aborting...\0A\00", align 1
@.str91 = private unnamed_addr constant [21 x i8] c"Compressing data...\0A\00", align 1
@.str92 = private unnamed_addr constant [52 x i8] c" *ERROR: Output file is size 0 bytes!  Deleting...\0A\00", align 1
@.str93 = private unnamed_addr constant [50 x i8] c" *ERROR: Could not write file meta data to [%s]!\0A\00", align 1
@.str94 = private unnamed_addr constant [30 x i8] c"\0A     Wall Clock: %f seconds\0A\00", align 1
@.str95 = private unnamed_addr constant [23 x i8] c"vector::_M_fill_insert\00", align 1
@.str96 = private unnamed_addr constant [22 x i8] c"vector::_M_insert_aux\00", align 1
@llvm.global_ctors = appending global [1 x { i32, void ()* }] [{ i32, void ()* } { i32 65535, void ()* @_GLOBAL__I_a }]

define internal void @__cxx_global_var_init() section ".text.startup" {
entry:
  call void @_ZNSt6vectorI7outBuffSaIS0_EEC1Ev(%"class.std::vector"* @_ZL12OutputBuffer), !dbg !1408
  %0 = call i32 @__cxa_atexit(void (i8*)* bitcast (void (%"class.std::vector"*)* @_ZNSt6vectorI7outBuffSaIS0_EED1Ev to void (i8*)*), i8* bitcast (%"class.std::vector"* @_ZL12OutputBuffer to i8*), i8* @__dso_handle) nounwind, !dbg !1408
  ret void, !dbg !1408
}

define linkonce_odr void @_ZNSt6vectorI7outBuffSaIS0_EEC1Ev(%"class.std::vector"* %this) unnamed_addr uwtable align 2 {
entry:
  %this.addr = alloca %"class.std::vector"*, align 8
  store %"class.std::vector"* %this, %"class.std::vector"** %this.addr, align 8
  call void @llvm.dbg.declare(metadata !{%"class.std::vector"** %this.addr}, metadata !1409), !dbg !1411
  %this1 = load %"class.std::vector"** %this.addr
  call void @_ZNSt6vectorI7outBuffSaIS0_EEC2Ev(%"class.std::vector"* %this1), !dbg !1412
  ret void, !dbg !1412
}

define linkonce_odr void @_ZNSt6vectorI7outBuffSaIS0_EED1Ev(%"class.std::vector"* %this) unnamed_addr uwtable align 2 {
entry:
  %this.addr = alloca %"class.std::vector"*, align 8
  store %"class.std::vector"* %this, %"class.std::vector"** %this.addr, align 8
  call void @llvm.dbg.declare(metadata !{%"class.std::vector"** %this.addr}, metadata !1413), !dbg !1414
  %this1 = load %"class.std::vector"** %this.addr
  call void @_ZNSt6vectorI7outBuffSaIS0_EED2Ev(%"class.std::vector"* %this1), !dbg !1415
  ret void, !dbg !1416
}

declare i32 @__cxa_atexit(void (i8*)*, i8*, i8*) nounwind

define void @_Z15mySignalCatcheri(i32 %n) uwtable {
entry:
  %n.addr = alloca i32, align 4
  %statBuf = alloca %struct.stat, align 8
  %ret = alloca i32, align 4
  store i32 %n, i32* %n.addr, align 4
  call void @llvm.dbg.declare(metadata !{i32* %n.addr}, metadata !1417), !dbg !1418
  call void @llvm.dbg.declare(metadata !{%struct.stat* %statBuf}, metadata !1419), !dbg !1421
  call void @llvm.dbg.declare(metadata !{i32* %ret}, metadata !1422), !dbg !1423
  store i32 0, i32* %ret, align 4, !dbg !1423
  %0 = load %struct._IO_FILE** @stderr, align 8, !dbg !1424
  %call = call i32 (%struct._IO_FILE*, i8*, ...)* @fprintf(%struct._IO_FILE* %0, i8* getelementptr inbounds ([45 x i8]* @.str, i32 0, i32 0)), !dbg !1424
  %1 = load i8** @_ZL13sigInFilename, align 8, !dbg !1425
  %cmp = icmp eq i8* %1, null, !dbg !1425
  br i1 %cmp, label %if.then, label %lor.lhs.false, !dbg !1425

lor.lhs.false:                                    ; preds = %entry
  %2 = load i8** @_ZL14sigOutFilename, align 8, !dbg !1425
  %cmp1 = icmp eq i8* %2, null, !dbg !1425
  br i1 %cmp1, label %if.then, label %if.end, !dbg !1425

if.then:                                          ; preds = %lor.lhs.false, %entry
  call void @exit(i32 1) noreturn nounwind, !dbg !1426
  unreachable, !dbg !1426

if.end:                                           ; preds = %lor.lhs.false
  %3 = load i8** @_ZL13sigInFilename, align 8, !dbg !1427
  %call2 = call i32 @stat64(i8* %3, %struct.stat* %statBuf) nounwind, !dbg !1427
  store i32 %call2, i32* %ret, align 4, !dbg !1427
  %4 = load i32* %ret, align 4, !dbg !1428
  %cmp3 = icmp eq i32 %4, 0, !dbg !1428
  br i1 %cmp3, label %if.then4, label %if.else, !dbg !1428

if.then4:                                         ; preds = %if.end
  %5 = load i32* @_ZL9QuietMode, align 4, !dbg !1429
  %cmp5 = icmp ne i32 %5, 1, !dbg !1429
  br i1 %cmp5, label %if.then6, label %if.end8, !dbg !1429

if.then6:                                         ; preds = %if.then4
  %6 = load %struct._IO_FILE** @stderr, align 8, !dbg !1431
  %7 = load i8** @_ZL14sigOutFilename, align 8, !dbg !1431
  %call7 = call i32 (%struct._IO_FILE*, i8*, ...)* @fprintf(%struct._IO_FILE* %6, i8* getelementptr inbounds ([43 x i8]* @.str1, i32 0, i32 0), i8* %7), !dbg !1431
  br label %if.end8, !dbg !1431

if.end8:                                          ; preds = %if.then6, %if.then4
  %8 = load i8** @_ZL14sigOutFilename, align 8, !dbg !1432
  %call9 = call i32 @remove(i8* %8) nounwind, !dbg !1432
  store i32 %call9, i32* %ret, align 4, !dbg !1432
  %9 = load i32* %ret, align 4, !dbg !1433
  %cmp10 = icmp ne i32 %9, 0, !dbg !1433
  br i1 %cmp10, label %if.then11, label %if.end13, !dbg !1433

if.then11:                                        ; preds = %if.end8
  %10 = load %struct._IO_FILE** @stderr, align 8, !dbg !1434
  %call12 = call i32 (%struct._IO_FILE*, i8*, ...)* @fprintf(%struct._IO_FILE* %10, i8* getelementptr inbounds ([57 x i8]* @.str2, i32 0, i32 0)), !dbg !1434
  br label %if.end13, !dbg !1434

if.end13:                                         ; preds = %if.then11, %if.end8
  br label %if.end16, !dbg !1435

if.else:                                          ; preds = %if.end
  %11 = load %struct._IO_FILE** @stderr, align 8, !dbg !1436
  %call14 = call i32 (%struct._IO_FILE*, i8*, ...)* @fprintf(%struct._IO_FILE* %11, i8* getelementptr inbounds ([75 x i8]* @.str3, i32 0, i32 0)), !dbg !1436
  %12 = load %struct._IO_FILE** @stderr, align 8, !dbg !1438
  %13 = load i8** @_ZL14sigOutFilename, align 8, !dbg !1438
  %call15 = call i32 (%struct._IO_FILE*, i8*, ...)* @fprintf(%struct._IO_FILE* %12, i8* getelementptr inbounds ([48 x i8]* @.str4, i32 0, i32 0), i8* %13), !dbg !1438
  br label %if.end16

if.end16:                                         ; preds = %if.else, %if.end13
  call void @exit(i32 1) noreturn nounwind, !dbg !1439
  unreachable, !dbg !1439

return:                                           ; No predecessors!
  ret void, !dbg !1440
}

declare void @llvm.dbg.declare(metadata, metadata) nounwind readnone

declare i32 @fprintf(%struct._IO_FILE*, i8*, ...)

declare void @exit(i32) noreturn nounwind

declare i32 @stat64(i8*, %struct.stat*) nounwind

declare i32 @remove(i8*) nounwind

define i8* @_Z6memstrPciS_i(i8* %searchBuf, i32 %searchBufSize, i8* %searchString, i32 %searchStringSize) nounwind uwtable {
entry:
  %retval = alloca i8*, align 8
  %searchBuf.addr = alloca i8*, align 8
  %searchBufSize.addr = alloca i32, align 4
  %searchString.addr = alloca i8*, align 8
  %searchStringSize.addr = alloca i32, align 4
  %i = alloca i32, align 4
  %j = alloca i32, align 4
  %notFound = alloca i32, align 4
  store i8* %searchBuf, i8** %searchBuf.addr, align 8
  call void @llvm.dbg.declare(metadata !{i8** %searchBuf.addr}, metadata !1441), !dbg !1442
  store i32 %searchBufSize, i32* %searchBufSize.addr, align 4
  call void @llvm.dbg.declare(metadata !{i32* %searchBufSize.addr}, metadata !1443), !dbg !1442
  store i8* %searchString, i8** %searchString.addr, align 8
  call void @llvm.dbg.declare(metadata !{i8** %searchString.addr}, metadata !1444), !dbg !1442
  store i32 %searchStringSize, i32* %searchStringSize.addr, align 4
  call void @llvm.dbg.declare(metadata !{i32* %searchStringSize.addr}, metadata !1445), !dbg !1442
  call void @llvm.dbg.declare(metadata !{i32* %i}, metadata !1446), !dbg !1448
  call void @llvm.dbg.declare(metadata !{i32* %j}, metadata !1449), !dbg !1450
  call void @llvm.dbg.declare(metadata !{i32* %notFound}, metadata !1451), !dbg !1452
  store i32 0, i32* %notFound, align 4, !dbg !1452
  store i32 0, i32* %i, align 4, !dbg !1453
  br label %for.cond, !dbg !1453

for.cond:                                         ; preds = %for.inc25, %entry
  %0 = load i32* %i, align 4, !dbg !1453
  %1 = load i32* %searchBufSize.addr, align 4, !dbg !1453
  %cmp = icmp slt i32 %0, %1, !dbg !1453
  br i1 %cmp, label %for.body, label %for.end27, !dbg !1453

for.body:                                         ; preds = %for.cond
  %2 = load i32* %searchBufSize.addr, align 4, !dbg !1455
  %sub = sub nsw i32 %2, 1, !dbg !1455
  %3 = load i32* %i, align 4, !dbg !1455
  %sub1 = sub nsw i32 %sub, %3, !dbg !1455
  %4 = load i32* %searchStringSize.addr, align 4, !dbg !1455
  %cmp2 = icmp slt i32 %sub1, %4, !dbg !1455
  br i1 %cmp2, label %if.then, label %if.end, !dbg !1455

if.then:                                          ; preds = %for.body
  br label %for.end27, !dbg !1457

if.end:                                           ; preds = %for.body
  %5 = load i32* %i, align 4, !dbg !1458
  %idxprom = sext i32 %5 to i64, !dbg !1458
  %6 = load i8** %searchBuf.addr, align 8, !dbg !1458
  %arrayidx = getelementptr inbounds i8* %6, i64 %idxprom, !dbg !1458
  %7 = load i8* %arrayidx, align 1, !dbg !1458
  %conv = sext i8 %7 to i32, !dbg !1458
  %8 = load i8** %searchString.addr, align 8, !dbg !1458
  %arrayidx3 = getelementptr inbounds i8* %8, i64 0, !dbg !1458
  %9 = load i8* %arrayidx3, align 1, !dbg !1458
  %conv4 = sext i8 %9 to i32, !dbg !1458
  %cmp5 = icmp eq i32 %conv, %conv4, !dbg !1458
  br i1 %cmp5, label %if.then6, label %if.end24, !dbg !1458

if.then6:                                         ; preds = %if.end
  store i32 0, i32* %notFound, align 4, !dbg !1459
  store i32 1, i32* %j, align 4, !dbg !1461
  br label %for.cond7, !dbg !1461

for.cond7:                                        ; preds = %for.inc, %if.then6
  %10 = load i32* %j, align 4, !dbg !1461
  %11 = load i32* %searchStringSize.addr, align 4, !dbg !1461
  %cmp8 = icmp slt i32 %10, %11, !dbg !1461
  br i1 %cmp8, label %for.body9, label %for.end, !dbg !1461

for.body9:                                        ; preds = %for.cond7
  %12 = load i32* %i, align 4, !dbg !1463
  %13 = load i32* %j, align 4, !dbg !1463
  %add = add nsw i32 %12, %13, !dbg !1463
  %idxprom10 = sext i32 %add to i64, !dbg !1463
  %14 = load i8** %searchBuf.addr, align 8, !dbg !1463
  %arrayidx11 = getelementptr inbounds i8* %14, i64 %idxprom10, !dbg !1463
  %15 = load i8* %arrayidx11, align 1, !dbg !1463
  %conv12 = sext i8 %15 to i32, !dbg !1463
  %16 = load i32* %j, align 4, !dbg !1463
  %idxprom13 = sext i32 %16 to i64, !dbg !1463
  %17 = load i8** %searchString.addr, align 8, !dbg !1463
  %arrayidx14 = getelementptr inbounds i8* %17, i64 %idxprom13, !dbg !1463
  %18 = load i8* %arrayidx14, align 1, !dbg !1463
  %conv15 = sext i8 %18 to i32, !dbg !1463
  %cmp16 = icmp ne i32 %conv12, %conv15, !dbg !1463
  br i1 %cmp16, label %if.then17, label %if.end18, !dbg !1463

if.then17:                                        ; preds = %for.body9
  store i32 1, i32* %notFound, align 4, !dbg !1465
  br label %for.end, !dbg !1467

if.end18:                                         ; preds = %for.body9
  br label %for.inc, !dbg !1468

for.inc:                                          ; preds = %if.end18
  %19 = load i32* %j, align 4, !dbg !1461
  %inc = add nsw i32 %19, 1, !dbg !1461
  store i32 %inc, i32* %j, align 4, !dbg !1461
  br label %for.cond7, !dbg !1461

for.end:                                          ; preds = %if.then17, %for.cond7
  %20 = load i32* %notFound, align 4, !dbg !1469
  %cmp19 = icmp eq i32 %20, 0, !dbg !1469
  br i1 %cmp19, label %if.then20, label %if.end23, !dbg !1469

if.then20:                                        ; preds = %for.end
  %21 = load i32* %i, align 4, !dbg !1470
  %idxprom21 = sext i32 %21 to i64, !dbg !1470
  %22 = load i8** %searchBuf.addr, align 8, !dbg !1470
  %arrayidx22 = getelementptr inbounds i8* %22, i64 %idxprom21, !dbg !1470
  store i8* %arrayidx22, i8** %retval, !dbg !1470
  br label %return, !dbg !1470

if.end23:                                         ; preds = %for.end
  br label %if.end24, !dbg !1472

if.end24:                                         ; preds = %if.end23, %if.end
  br label %for.inc25, !dbg !1473

for.inc25:                                        ; preds = %if.end24
  %23 = load i32* %i, align 4, !dbg !1453
  %inc26 = add nsw i32 %23, 1, !dbg !1453
  store i32 %inc26, i32* %i, align 4, !dbg !1453
  br label %for.cond, !dbg !1453

for.end27:                                        ; preds = %if.then, %for.cond
  store i8* null, i8** %retval, !dbg !1474
  br label %return, !dbg !1474

return:                                           ; preds = %for.end27, %if.then20
  %24 = load i8** %retval, !dbg !1475
  ret i8* %24, !dbg !1475
}

define i32 @_Z19producer_decompressilP5queue(i32 %hInfile, i64 %fileSize, %struct.queue* %fifo) uwtable {
entry:
  %retval = alloca i32, align 4
  %hInfile.addr = alloca i32, align 4
  %fileSize.addr = alloca i64, align 8
  %fifo.addr = alloca %struct.queue*, align 8
  %bz2BlockList = alloca %"class.std::vector.0", align 8
  %TempOutBuffer = alloca %struct.outBuff, align 8
  %TempBlockListing = alloca %struct.bz2BlockListing, align 8
  %FileData = alloca i8*, align 8
  %bz2Header = alloca [11 x i8], align 1
  %bytesLeft = alloca i64, align 8
  %inSize = alloca i64, align 8
  %blockNum = alloca i32, align 4
  %ret = alloca i64, align 8
  %i = alloca i32, align 4
  %bz2NumBlocks = alloca i32, align 4
  %startPointer = alloca i8*, align 8
  %currentByte = alloca i64, align 8
  %startByte = alloca i64, align 8
  %exn.slot = alloca i8*
  %ehselector.slot = alloca i32
  %cleanup.dest.slot = alloca i32
  store i32 %hInfile, i32* %hInfile.addr, align 4
  call void @llvm.dbg.declare(metadata !{i32* %hInfile.addr}, metadata !1476), !dbg !1477
  store i64 %fileSize, i64* %fileSize.addr, align 8
  call void @llvm.dbg.declare(metadata !{i64* %fileSize.addr}, metadata !1478), !dbg !1477
  store %struct.queue* %fifo, %struct.queue** %fifo.addr, align 8
  call void @llvm.dbg.declare(metadata !{%struct.queue** %fifo.addr}, metadata !1479), !dbg !1477
  call void @llvm.dbg.declare(metadata !{%"class.std::vector.0"* %bz2BlockList}, metadata !1480), !dbg !1482
  call void @_ZNSt6vectorI15bz2BlockListingSaIS0_EEC1Ev(%"class.std::vector.0"* %bz2BlockList), !dbg !1482
  call void @llvm.dbg.declare(metadata !{%struct.outBuff* %TempOutBuffer}, metadata !1483), !dbg !1485
  call void @llvm.dbg.declare(metadata !{%struct.bz2BlockListing* %TempBlockListing}, metadata !1486), !dbg !1488
  call void @llvm.dbg.declare(metadata !{i8** %FileData}, metadata !1489), !dbg !1490
  store i8* null, i8** %FileData, align 8, !dbg !1490
  call void @llvm.dbg.declare(metadata !{[11 x i8]* %bz2Header}, metadata !1491), !dbg !1495
  %0 = bitcast [11 x i8]* %bz2Header to i8*, !dbg !1495
  call void @llvm.memcpy.p0i8.p0i8.i64(i8* %0, i8* getelementptr inbounds ([11 x i8]* @_ZZ19producer_decompressilP5queueE9bz2Header, i32 0, i32 0), i64 11, i32 1, i1 false), !dbg !1495
  call void @llvm.dbg.declare(metadata !{i64* %bytesLeft}, metadata !1496), !dbg !1497
  store i64 0, i64* %bytesLeft, align 8, !dbg !1497
  call void @llvm.dbg.declare(metadata !{i64* %inSize}, metadata !1498), !dbg !1499
  store i64 100000, i64* %inSize, align 8, !dbg !1499
  call void @llvm.dbg.declare(metadata !{i32* %blockNum}, metadata !1500), !dbg !1501
  store i32 0, i32* %blockNum, align 4, !dbg !1501
  call void @llvm.dbg.declare(metadata !{i64* %ret}, metadata !1502), !dbg !1503
  store i64 0, i64* %ret, align 8, !dbg !1503
  call void @llvm.dbg.declare(metadata !{i32* %i}, metadata !1504), !dbg !1505
  call void @llvm.dbg.declare(metadata !{i32* %bz2NumBlocks}, metadata !1506), !dbg !1507
  store i32 0, i32* %bz2NumBlocks, align 4, !dbg !1507
  call void @llvm.dbg.declare(metadata !{i8** %startPointer}, metadata !1508), !dbg !1509
  store i8* null, i8** %startPointer, align 8, !dbg !1509
  call void @llvm.dbg.declare(metadata !{i64* %currentByte}, metadata !1510), !dbg !1511
  store i64 0, i64* %currentByte, align 8, !dbg !1511
  call void @llvm.dbg.declare(metadata !{i64* %startByte}, metadata !1512), !dbg !1513
  store i64 0, i64* %startByte, align 8, !dbg !1513
  %buf = getelementptr inbounds %struct.outBuff* %TempOutBuffer, i32 0, i32 0, !dbg !1514
  store i8* null, i8** %buf, align 8, !dbg !1514
  %bufSize = getelementptr inbounds %struct.outBuff* %TempOutBuffer, i32 0, i32 1, !dbg !1515
  store i32 0, i32* %bufSize, align 4, !dbg !1515
  %1 = load i8* @_ZL16BWTblockSizeChar, align 1, !dbg !1516
  %arrayidx = getelementptr inbounds [11 x i8]* %bz2Header, i32 0, i64 3, !dbg !1516
  store i8 %1, i8* %arrayidx, align 1, !dbg !1516
  %2 = load i32* %hInfile.addr, align 4, !dbg !1517
  %call = call i64 @lseek64(i32 %2, i64 0, i32 0) nounwind, !dbg !1517
  store i64 %call, i64* %ret, align 8, !dbg !1517
  %3 = load i64* %ret, align 8, !dbg !1518
  %cmp = icmp ne i64 %3, 0, !dbg !1518
  br i1 %cmp, label %if.then, label %if.end, !dbg !1518

if.then:                                          ; preds = %entry
  %4 = load %struct._IO_FILE** @stderr, align 8, !dbg !1519
  %5 = load i64* %ret, align 8, !dbg !1519
  %call1 = invoke i32 (%struct._IO_FILE*, i8*, ...)* @fprintf(%struct._IO_FILE* %4, i8* getelementptr inbounds ([67 x i8]* @.str5, i32 0, i32 0), i64 %5)
          to label %invoke.cont unwind label %lpad, !dbg !1519

invoke.cont:                                      ; preds = %if.then
  %6 = load i32* %hInfile.addr, align 4, !dbg !1521
  %call3 = invoke i32 @close(i32 %6)
          to label %invoke.cont2 unwind label %lpad, !dbg !1521

invoke.cont2:                                     ; preds = %invoke.cont
  store i32 1, i32* @_ZL7allDone, align 4, !dbg !1522
  store i32 -1, i32* %retval, !dbg !1523
  store i32 1, i32* %cleanup.dest.slot
  br label %cleanup, !dbg !1523

lpad:                                             ; preds = %for.end280, %while.end271, %while.body267, %if.end261, %invoke.cont247, %if.then246, %invoke.cont232, %if.then231, %if.end216, %invoke.cont212, %if.then211, %if.end205, %invoke.cont200, %if.then199, %if.end191, %invoke.cont187, %if.then186, %invoke.cont177, %for.body175, %invoke.cont162, %invoke.cont158, %if.else155, %invoke.cont148, %if.then145, %invoke.cont135, %if.then133, %if.else100, %if.then86, %if.end83, %if.else56, %if.then49, %invoke.cont38, %if.then37, %if.else, %if.then17, %invoke.cont10, %if.then9, %if.end, %invoke.cont, %if.then
  %7 = landingpad { i8*, i32 } personality i8* bitcast (i32 (...)* @__gxx_personality_v0 to i8*)
          cleanup, !dbg !1519
  %8 = extractvalue { i8*, i32 } %7, 0, !dbg !1519
  store i8* %8, i8** %exn.slot, !dbg !1519
  %9 = extractvalue { i8*, i32 } %7, 1, !dbg !1519
  store i32 %9, i32* %ehselector.slot, !dbg !1519
  invoke void @_ZNSt6vectorI15bz2BlockListingSaIS0_EED1Ev(%"class.std::vector.0"* %bz2BlockList)
          to label %invoke.cont283 unwind label %terminate.lpad, !dbg !1524

if.end:                                           ; preds = %entry
  %10 = load %union.pthread_mutex_t** @_ZL8MemMutex, align 8, !dbg !1525
  %call4 = call i32 @pthread_mutex_lock(%union.pthread_mutex_t* %10) nounwind, !dbg !1525
  store i8* null, i8** %FileData, align 8, !dbg !1526
  %11 = load i64* %inSize, align 8, !dbg !1527
  %12 = icmp slt i64 %11, 0, !dbg !1527
  %13 = select i1 %12, i64 -1, i64 %11, !dbg !1527
  %call6 = invoke noalias i8* @_Znam(i64 %13)
          to label %invoke.cont5 unwind label %lpad, !dbg !1527

invoke.cont5:                                     ; preds = %if.end
  store i8* %call6, i8** %FileData, align 8, !dbg !1527
  %14 = load %union.pthread_mutex_t** @_ZL8MemMutex, align 8, !dbg !1528
  %call7 = call i32 @pthread_mutex_unlock(%union.pthread_mutex_t* %14) nounwind, !dbg !1528
  %15 = load i8** %FileData, align 8, !dbg !1529
  %cmp8 = icmp eq i8* %15, null, !dbg !1529
  br i1 %cmp8, label %if.then9, label %if.end14, !dbg !1529

if.then9:                                         ; preds = %invoke.cont5
  %16 = load %struct._IO_FILE** @stderr, align 8, !dbg !1530
  %call11 = invoke i32 (%struct._IO_FILE*, i8*, ...)* @fprintf(%struct._IO_FILE* %16, i8* getelementptr inbounds ([61 x i8]* @.str6, i32 0, i32 0))
          to label %invoke.cont10 unwind label %lpad, !dbg !1530

invoke.cont10:                                    ; preds = %if.then9
  %17 = load i32* %hInfile.addr, align 4, !dbg !1532
  %call13 = invoke i32 @close(i32 %17)
          to label %invoke.cont12 unwind label %lpad, !dbg !1532

invoke.cont12:                                    ; preds = %invoke.cont10
  store i32 1, i32* @_ZL7allDone, align 4, !dbg !1533
  store i32 -1, i32* %retval, !dbg !1534
  store i32 1, i32* %cleanup.dest.slot
  br label %cleanup, !dbg !1534

if.end14:                                         ; preds = %invoke.cont5
  %18 = load i64* %fileSize.addr, align 8, !dbg !1535
  store i64 %18, i64* %bytesLeft, align 8, !dbg !1535
  br label %while.cond, !dbg !1536

while.cond:                                       ; preds = %while.end, %if.end14
  %19 = load i64* %bytesLeft, align 8, !dbg !1536
  %cmp15 = icmp sgt i64 %19, 0, !dbg !1536
  br i1 %cmp15, label %while.body, label %while.end121, !dbg !1536

while.body:                                       ; preds = %while.cond
  %20 = load i64* %currentByte, align 8, !dbg !1537
  %cmp16 = icmp eq i64 %20, 0, !dbg !1537
  br i1 %cmp16, label %if.then17, label %if.else, !dbg !1537

if.then17:                                        ; preds = %while.body
  %21 = load i32* %hInfile.addr, align 4, !dbg !1539
  %22 = load i8** %FileData, align 8, !dbg !1539
  %23 = load i64* %inSize, align 8, !dbg !1539
  %call19 = invoke i64 @read(i32 %21, i8* %22, i64 %23)
          to label %invoke.cont18 unwind label %lpad, !dbg !1539

invoke.cont18:                                    ; preds = %if.then17
  store i64 %call19, i64* %ret, align 8, !dbg !1539
  br label %if.end35, !dbg !1541

if.else:                                          ; preds = %while.body
  %24 = load i8** %FileData, align 8, !dbg !1542
  %25 = load i8** %FileData, align 8, !dbg !1542
  %26 = load i64* %inSize, align 8, !dbg !1542
  %add.ptr = getelementptr inbounds i8* %25, i64 %26, !dbg !1542
  %arraydecay = getelementptr inbounds [11 x i8]* %bz2Header, i32 0, i32 0, !dbg !1542
  %call20 = call i64 @strlen(i8* %arraydecay) nounwind readonly, !dbg !1542
  %sub = sub i64 %call20, 1, !dbg !1542
  %idx.neg = sub i64 0, %sub, !dbg !1542
  %add.ptr21 = getelementptr inbounds i8* %add.ptr, i64 %idx.neg, !dbg !1542
  %arraydecay22 = getelementptr inbounds [11 x i8]* %bz2Header, i32 0, i32 0, !dbg !1542
  %call23 = call i64 @strlen(i8* %arraydecay22) nounwind readonly, !dbg !1542
  %sub24 = sub i64 %call23, 1, !dbg !1542
  call void @llvm.memcpy.p0i8.p0i8.i64(i8* %24, i8* %add.ptr21, i64 %sub24, i32 1, i1 false), !dbg !1542
  %27 = load i32* %hInfile.addr, align 4, !dbg !1544
  %28 = load i8** %FileData, align 8, !dbg !1544
  %arraydecay25 = getelementptr inbounds [11 x i8]* %bz2Header, i32 0, i32 0, !dbg !1544
  %call26 = call i64 @strlen(i8* %arraydecay25) nounwind readonly, !dbg !1544
  %add.ptr27 = getelementptr inbounds i8* %28, i64 %call26, !dbg !1544
  %add.ptr28 = getelementptr inbounds i8* %add.ptr27, i64 -1, !dbg !1544
  %29 = load i64* %inSize, align 8, !dbg !1544
  %arraydecay29 = getelementptr inbounds [11 x i8]* %bz2Header, i32 0, i32 0, !dbg !1544
  %call30 = call i64 @strlen(i8* %arraydecay29) nounwind readonly, !dbg !1544
  %sub31 = sub i64 %call30, 1, !dbg !1544
  %sub32 = sub i64 %29, %sub31, !dbg !1544
  %call34 = invoke i64 @read(i32 %27, i8* %add.ptr28, i64 %sub32)
          to label %invoke.cont33 unwind label %lpad, !dbg !1544

invoke.cont33:                                    ; preds = %if.else
  store i64 %call34, i64* %ret, align 8, !dbg !1544
  br label %if.end35

if.end35:                                         ; preds = %invoke.cont33, %invoke.cont18
  %30 = load i64* %ret, align 8, !dbg !1545
  %cmp36 = icmp slt i64 %30, 0, !dbg !1545
  br i1 %cmp36, label %if.then37, label %if.end47, !dbg !1545

if.then37:                                        ; preds = %if.end35
  %31 = load %struct._IO_FILE** @stderr, align 8, !dbg !1546
  %call39 = invoke i32 (%struct._IO_FILE*, i8*, ...)* @fprintf(%struct._IO_FILE* %31, i8* getelementptr inbounds ([61 x i8]* @.str7, i32 0, i32 0))
          to label %invoke.cont38 unwind label %lpad, !dbg !1546

invoke.cont38:                                    ; preds = %if.then37
  %32 = load i32* %hInfile.addr, align 4, !dbg !1548
  %call41 = invoke i32 @close(i32 %32)
          to label %invoke.cont40 unwind label %lpad, !dbg !1548

invoke.cont40:                                    ; preds = %invoke.cont38
  %33 = load %union.pthread_mutex_t** @_ZL8MemMutex, align 8, !dbg !1549
  %call42 = call i32 @pthread_mutex_lock(%union.pthread_mutex_t* %33) nounwind, !dbg !1549
  %34 = load i8** %FileData, align 8, !dbg !1550
  %cmp43 = icmp ne i8* %34, null, !dbg !1550
  br i1 %cmp43, label %if.then44, label %if.end45, !dbg !1550

if.then44:                                        ; preds = %invoke.cont40
  %35 = load i8** %FileData, align 8, !dbg !1551
  %isnull = icmp eq i8* %35, null, !dbg !1551
  br i1 %isnull, label %delete.end, label %delete.notnull, !dbg !1551

delete.notnull:                                   ; preds = %if.then44
  call void @_ZdaPv(i8* %35) nounwind, !dbg !1551
  br label %delete.end, !dbg !1551

delete.end:                                       ; preds = %delete.notnull, %if.then44
  br label %if.end45, !dbg !1551

if.end45:                                         ; preds = %delete.end, %invoke.cont40
  %36 = load %union.pthread_mutex_t** @_ZL8MemMutex, align 8, !dbg !1552
  %call46 = call i32 @pthread_mutex_unlock(%union.pthread_mutex_t* %36) nounwind, !dbg !1552
  store i32 1, i32* @_ZL7allDone, align 4, !dbg !1553
  store i32 -1, i32* %retval, !dbg !1554
  store i32 1, i32* %cleanup.dest.slot
  br label %cleanup, !dbg !1554

if.end47:                                         ; preds = %if.end35
  %37 = load i64* %currentByte, align 8, !dbg !1555
  %cmp48 = icmp eq i64 %37, 0, !dbg !1555
  br i1 %cmp48, label %if.then49, label %if.else56, !dbg !1555

if.then49:                                        ; preds = %if.end47
  %38 = load i8** %FileData, align 8, !dbg !1556
  %39 = load i64* %ret, align 8, !dbg !1556
  %conv = trunc i64 %39 to i32, !dbg !1556
  %arraydecay50 = getelementptr inbounds [11 x i8]* %bz2Header, i32 0, i32 0, !dbg !1556
  %arraydecay51 = getelementptr inbounds [11 x i8]* %bz2Header, i32 0, i32 0, !dbg !1556
  %call52 = call i64 @strlen(i8* %arraydecay51) nounwind readonly, !dbg !1556
  %conv53 = trunc i64 %call52 to i32, !dbg !1556
  %call55 = invoke i8* @_Z6memstrPciS_i(i8* %38, i32 %conv, i8* %arraydecay50, i32 %conv53)
          to label %invoke.cont54 unwind label %lpad, !dbg !1556

invoke.cont54:                                    ; preds = %if.then49
  store i8* %call55, i8** %startPointer, align 8, !dbg !1556
  br label %if.end67, !dbg !1556

if.else56:                                        ; preds = %if.end47
  %40 = load i8** %FileData, align 8, !dbg !1557
  %41 = load i64* %ret, align 8, !dbg !1557
  %arraydecay57 = getelementptr inbounds [11 x i8]* %bz2Header, i32 0, i32 0, !dbg !1557
  %call58 = call i64 @strlen(i8* %arraydecay57) nounwind readonly, !dbg !1557
  %sub59 = sub i64 %call58, 1, !dbg !1557
  %add = add i64 %41, %sub59, !dbg !1557
  %conv60 = trunc i64 %add to i32, !dbg !1557
  %arraydecay61 = getelementptr inbounds [11 x i8]* %bz2Header, i32 0, i32 0, !dbg !1557
  %arraydecay62 = getelementptr inbounds [11 x i8]* %bz2Header, i32 0, i32 0, !dbg !1557
  %call63 = call i64 @strlen(i8* %arraydecay62) nounwind readonly, !dbg !1557
  %conv64 = trunc i64 %call63 to i32, !dbg !1557
  %call66 = invoke i8* @_Z6memstrPciS_i(i8* %40, i32 %conv60, i8* %arraydecay61, i32 %conv64)
          to label %invoke.cont65 unwind label %lpad, !dbg !1557

invoke.cont65:                                    ; preds = %if.else56
  store i8* %call66, i8** %startPointer, align 8, !dbg !1557
  br label %if.end67

if.end67:                                         ; preds = %invoke.cont65, %invoke.cont54
  br label %while.cond68, !dbg !1558

while.cond68:                                     ; preds = %if.end118, %if.end67
  %42 = load i8** %startPointer, align 8, !dbg !1558
  %cmp69 = icmp ne i8* %42, null, !dbg !1558
  br i1 %cmp69, label %while.body70, label %while.end, !dbg !1558

while.body70:                                     ; preds = %while.cond68
  %43 = load i64* %currentByte, align 8, !dbg !1559
  %cmp71 = icmp eq i64 %43, 0, !dbg !1559
  br i1 %cmp71, label %if.then72, label %if.else74, !dbg !1559

if.then72:                                        ; preds = %while.body70
  %44 = load i8** %startPointer, align 8, !dbg !1561
  %45 = load i8** %FileData, align 8, !dbg !1561
  %sub.ptr.lhs.cast = ptrtoint i8* %44 to i64, !dbg !1561
  %sub.ptr.rhs.cast = ptrtoint i8* %45 to i64, !dbg !1561
  %sub.ptr.sub = sub i64 %sub.ptr.lhs.cast, %sub.ptr.rhs.cast, !dbg !1561
  %46 = load i64* %currentByte, align 8, !dbg !1561
  %add73 = add nsw i64 %sub.ptr.sub, %46, !dbg !1561
  store i64 %add73, i64* %startByte, align 8, !dbg !1561
  br label %if.end83, !dbg !1561

if.else74:                                        ; preds = %while.body70
  %47 = load i8** %startPointer, align 8, !dbg !1562
  %48 = load i8** %FileData, align 8, !dbg !1562
  %sub.ptr.lhs.cast75 = ptrtoint i8* %47 to i64, !dbg !1562
  %sub.ptr.rhs.cast76 = ptrtoint i8* %48 to i64, !dbg !1562
  %sub.ptr.sub77 = sub i64 %sub.ptr.lhs.cast75, %sub.ptr.rhs.cast76, !dbg !1562
  %49 = load i64* %currentByte, align 8, !dbg !1562
  %add78 = add nsw i64 %sub.ptr.sub77, %49, !dbg !1562
  %arraydecay79 = getelementptr inbounds [11 x i8]* %bz2Header, i32 0, i32 0, !dbg !1562
  %call80 = call i64 @strlen(i8* %arraydecay79) nounwind readonly, !dbg !1562
  %sub81 = sub i64 %call80, 1, !dbg !1562
  %sub82 = sub i64 %add78, %sub81, !dbg !1562
  store i64 %sub82, i64* %startByte, align 8, !dbg !1562
  br label %if.end83

if.end83:                                         ; preds = %if.else74, %if.then72
  %50 = load i64* %startByte, align 8, !dbg !1563
  %dataStart = getelementptr inbounds %struct.bz2BlockListing* %TempBlockListing, i32 0, i32 0, !dbg !1563
  store i64 %50, i64* %dataStart, align 8, !dbg !1563
  %dataSize = getelementptr inbounds %struct.bz2BlockListing* %TempBlockListing, i32 0, i32 1, !dbg !1564
  store i64 0, i64* %dataSize, align 8, !dbg !1564
  invoke void @_ZNSt6vectorI15bz2BlockListingSaIS0_EE9push_backERKS0_(%"class.std::vector.0"* %bz2BlockList, %struct.bz2BlockListing* %TempBlockListing)
          to label %invoke.cont84 unwind label %lpad, !dbg !1565

invoke.cont84:                                    ; preds = %if.end83
  %51 = load i32* %bz2NumBlocks, align 4, !dbg !1566
  %inc = add nsw i32 %51, 1, !dbg !1566
  store i32 %inc, i32* %bz2NumBlocks, align 4, !dbg !1566
  %52 = load i64* %currentByte, align 8, !dbg !1567
  %cmp85 = icmp eq i64 %52, 0, !dbg !1567
  br i1 %cmp85, label %if.then86, label %if.else100, !dbg !1567

if.then86:                                        ; preds = %invoke.cont84
  %53 = load i8** %startPointer, align 8, !dbg !1568
  %add.ptr87 = getelementptr inbounds i8* %53, i64 1, !dbg !1568
  %54 = load i64* %ret, align 8, !dbg !1568
  %55 = load i8** %startPointer, align 8, !dbg !1568
  %56 = load i8** %FileData, align 8, !dbg !1568
  %sub.ptr.lhs.cast88 = ptrtoint i8* %55 to i64, !dbg !1568
  %sub.ptr.rhs.cast89 = ptrtoint i8* %56 to i64, !dbg !1568
  %sub.ptr.sub90 = sub i64 %sub.ptr.lhs.cast88, %sub.ptr.rhs.cast89, !dbg !1568
  %sub91 = sub nsw i64 %54, %sub.ptr.sub90, !dbg !1568
  %sub92 = sub nsw i64 %sub91, 1, !dbg !1568
  %conv93 = trunc i64 %sub92 to i32, !dbg !1568
  %arraydecay94 = getelementptr inbounds [11 x i8]* %bz2Header, i32 0, i32 0, !dbg !1568
  %arraydecay95 = getelementptr inbounds [11 x i8]* %bz2Header, i32 0, i32 0, !dbg !1568
  %call96 = call i64 @strlen(i8* %arraydecay95) nounwind readonly, !dbg !1568
  %conv97 = trunc i64 %call96 to i32, !dbg !1568
  %call99 = invoke i8* @_Z6memstrPciS_i(i8* %add.ptr87, i32 %conv93, i8* %arraydecay94, i32 %conv97)
          to label %invoke.cont98 unwind label %lpad, !dbg !1568

invoke.cont98:                                    ; preds = %if.then86
  store i8* %call99, i8** %startPointer, align 8, !dbg !1568
  br label %if.end118, !dbg !1570

if.else100:                                       ; preds = %invoke.cont84
  %57 = load i8** %startPointer, align 8, !dbg !1571
  %add.ptr101 = getelementptr inbounds i8* %57, i64 1, !dbg !1571
  %58 = load i64* %ret, align 8, !dbg !1571
  %59 = load i8** %startPointer, align 8, !dbg !1571
  %60 = load i8** %FileData, align 8, !dbg !1571
  %sub.ptr.lhs.cast102 = ptrtoint i8* %59 to i64, !dbg !1571
  %sub.ptr.rhs.cast103 = ptrtoint i8* %60 to i64, !dbg !1571
  %sub.ptr.sub104 = sub i64 %sub.ptr.lhs.cast102, %sub.ptr.rhs.cast103, !dbg !1571
  %sub105 = sub nsw i64 %58, %sub.ptr.sub104, !dbg !1571
  %sub106 = sub nsw i64 %sub105, 1, !dbg !1571
  %arraydecay107 = getelementptr inbounds [11 x i8]* %bz2Header, i32 0, i32 0, !dbg !1571
  %call108 = call i64 @strlen(i8* %arraydecay107) nounwind readonly, !dbg !1571
  %sub109 = sub i64 %call108, 1, !dbg !1571
  %add110 = add i64 %sub106, %sub109, !dbg !1571
  %conv111 = trunc i64 %add110 to i32, !dbg !1571
  %arraydecay112 = getelementptr inbounds [11 x i8]* %bz2Header, i32 0, i32 0, !dbg !1571
  %arraydecay113 = getelementptr inbounds [11 x i8]* %bz2Header, i32 0, i32 0, !dbg !1571
  %call114 = call i64 @strlen(i8* %arraydecay113) nounwind readonly, !dbg !1571
  %conv115 = trunc i64 %call114 to i32, !dbg !1571
  %call117 = invoke i8* @_Z6memstrPciS_i(i8* %add.ptr101, i32 %conv111, i8* %arraydecay112, i32 %conv115)
          to label %invoke.cont116 unwind label %lpad, !dbg !1571

invoke.cont116:                                   ; preds = %if.else100
  store i8* %call117, i8** %startPointer, align 8, !dbg !1571
  br label %if.end118

if.end118:                                        ; preds = %invoke.cont116, %invoke.cont98
  br label %while.cond68, !dbg !1573

while.end:                                        ; preds = %while.cond68
  %61 = load i64* %ret, align 8, !dbg !1574
  %62 = load i64* %currentByte, align 8, !dbg !1574
  %add119 = add nsw i64 %62, %61, !dbg !1574
  store i64 %add119, i64* %currentByte, align 8, !dbg !1574
  %63 = load i64* %ret, align 8, !dbg !1575
  %64 = load i64* %bytesLeft, align 8, !dbg !1575
  %sub120 = sub nsw i64 %64, %63, !dbg !1575
  store i64 %sub120, i64* %bytesLeft, align 8, !dbg !1575
  br label %while.cond, !dbg !1576

while.end121:                                     ; preds = %while.cond
  %65 = load %union.pthread_mutex_t** @_ZL8MemMutex, align 8, !dbg !1577
  %call122 = call i32 @pthread_mutex_lock(%union.pthread_mutex_t* %65) nounwind, !dbg !1577
  %66 = load i8** %FileData, align 8, !dbg !1578
  %cmp123 = icmp ne i8* %66, null, !dbg !1578
  br i1 %cmp123, label %if.then124, label %if.end128, !dbg !1578

if.then124:                                       ; preds = %while.end121
  %67 = load i8** %FileData, align 8, !dbg !1579
  %isnull125 = icmp eq i8* %67, null, !dbg !1579
  br i1 %isnull125, label %delete.end127, label %delete.notnull126, !dbg !1579

delete.notnull126:                                ; preds = %if.then124
  call void @_ZdaPv(i8* %67) nounwind, !dbg !1579
  br label %delete.end127, !dbg !1579

delete.end127:                                    ; preds = %delete.notnull126, %if.then124
  br label %if.end128, !dbg !1579

if.end128:                                        ; preds = %delete.end127, %while.end121
  %68 = load i32* %bz2NumBlocks, align 4, !dbg !1580
  store i32 %68, i32* @_ZL9NumBlocks, align 4, !dbg !1580
  %69 = load %union.pthread_mutex_t** @_ZL8MemMutex, align 8, !dbg !1581
  %call129 = call i32 @pthread_mutex_unlock(%union.pthread_mutex_t* %69) nounwind, !dbg !1581
  store i32 0, i32* %i, align 4, !dbg !1582
  br label %for.cond, !dbg !1582

for.cond:                                         ; preds = %for.inc, %if.end128
  %70 = load i32* %i, align 4, !dbg !1582
  %71 = load i32* %bz2NumBlocks, align 4, !dbg !1582
  %cmp130 = icmp slt i32 %70, %71, !dbg !1582
  br i1 %cmp130, label %for.body, label %for.end, !dbg !1582

for.body:                                         ; preds = %for.cond
  %72 = load i32* %i, align 4, !dbg !1584
  %73 = load i32* %bz2NumBlocks, align 4, !dbg !1584
  %sub131 = sub nsw i32 %73, 1, !dbg !1584
  %cmp132 = icmp eq i32 %72, %sub131, !dbg !1584
  br i1 %cmp132, label %if.then133, label %if.else143, !dbg !1584

if.then133:                                       ; preds = %for.body
  %74 = load i64* %fileSize.addr, align 8, !dbg !1586
  %75 = load i32* %i, align 4, !dbg !1586
  %conv134 = sext i32 %75 to i64, !dbg !1586
  %call136 = invoke %struct.bz2BlockListing* @_ZNSt6vectorI15bz2BlockListingSaIS0_EEixEm(%"class.std::vector.0"* %bz2BlockList, i64 %conv134)
          to label %invoke.cont135 unwind label %lpad, !dbg !1586

invoke.cont135:                                   ; preds = %if.then133
  %dataStart137 = getelementptr inbounds %struct.bz2BlockListing* %call136, i32 0, i32 0, !dbg !1586
  %76 = load i64* %dataStart137, align 8, !dbg !1586
  %sub138 = sub nsw i64 %74, %76, !dbg !1586
  %77 = load i32* %i, align 4, !dbg !1586
  %conv139 = sext i32 %77 to i64, !dbg !1586
  %call141 = invoke %struct.bz2BlockListing* @_ZNSt6vectorI15bz2BlockListingSaIS0_EEixEm(%"class.std::vector.0"* %bz2BlockList, i64 %conv139)
          to label %invoke.cont140 unwind label %lpad, !dbg !1586

invoke.cont140:                                   ; preds = %invoke.cont135
  %dataSize142 = getelementptr inbounds %struct.bz2BlockListing* %call141, i32 0, i32 1, !dbg !1586
  store i64 %sub138, i64* %dataSize142, align 8, !dbg !1586
  br label %if.end171, !dbg !1588

if.else143:                                       ; preds = %for.body
  %78 = load i32* %i, align 4, !dbg !1589
  %cmp144 = icmp eq i32 %78, 0, !dbg !1589
  br i1 %cmp144, label %if.then145, label %if.else155, !dbg !1589

if.then145:                                       ; preds = %if.else143
  %79 = load i32* %i, align 4, !dbg !1590
  %add146 = add nsw i32 %79, 1, !dbg !1590
  %conv147 = sext i32 %add146 to i64, !dbg !1590
  %call149 = invoke %struct.bz2BlockListing* @_ZNSt6vectorI15bz2BlockListingSaIS0_EEixEm(%"class.std::vector.0"* %bz2BlockList, i64 %conv147)
          to label %invoke.cont148 unwind label %lpad, !dbg !1590

invoke.cont148:                                   ; preds = %if.then145
  %dataStart150 = getelementptr inbounds %struct.bz2BlockListing* %call149, i32 0, i32 0, !dbg !1590
  %80 = load i64* %dataStart150, align 8, !dbg !1590
  %81 = load i32* %i, align 4, !dbg !1590
  %conv151 = sext i32 %81 to i64, !dbg !1590
  %call153 = invoke %struct.bz2BlockListing* @_ZNSt6vectorI15bz2BlockListingSaIS0_EEixEm(%"class.std::vector.0"* %bz2BlockList, i64 %conv151)
          to label %invoke.cont152 unwind label %lpad, !dbg !1590

invoke.cont152:                                   ; preds = %invoke.cont148
  %dataSize154 = getelementptr inbounds %struct.bz2BlockListing* %call153, i32 0, i32 1, !dbg !1590
  store i64 %80, i64* %dataSize154, align 8, !dbg !1590
  br label %if.end170, !dbg !1592

if.else155:                                       ; preds = %if.else143
  %82 = load i32* %i, align 4, !dbg !1593
  %add156 = add nsw i32 %82, 1, !dbg !1593
  %conv157 = sext i32 %add156 to i64, !dbg !1593
  %call159 = invoke %struct.bz2BlockListing* @_ZNSt6vectorI15bz2BlockListingSaIS0_EEixEm(%"class.std::vector.0"* %bz2BlockList, i64 %conv157)
          to label %invoke.cont158 unwind label %lpad, !dbg !1593

invoke.cont158:                                   ; preds = %if.else155
  %dataStart160 = getelementptr inbounds %struct.bz2BlockListing* %call159, i32 0, i32 0, !dbg !1593
  %83 = load i64* %dataStart160, align 8, !dbg !1593
  %84 = load i32* %i, align 4, !dbg !1593
  %conv161 = sext i32 %84 to i64, !dbg !1593
  %call163 = invoke %struct.bz2BlockListing* @_ZNSt6vectorI15bz2BlockListingSaIS0_EEixEm(%"class.std::vector.0"* %bz2BlockList, i64 %conv161)
          to label %invoke.cont162 unwind label %lpad, !dbg !1593

invoke.cont162:                                   ; preds = %invoke.cont158
  %dataStart164 = getelementptr inbounds %struct.bz2BlockListing* %call163, i32 0, i32 0, !dbg !1593
  %85 = load i64* %dataStart164, align 8, !dbg !1593
  %sub165 = sub nsw i64 %83, %85, !dbg !1593
  %86 = load i32* %i, align 4, !dbg !1593
  %conv166 = sext i32 %86 to i64, !dbg !1593
  %call168 = invoke %struct.bz2BlockListing* @_ZNSt6vectorI15bz2BlockListingSaIS0_EEixEm(%"class.std::vector.0"* %bz2BlockList, i64 %conv166)
          to label %invoke.cont167 unwind label %lpad, !dbg !1593

invoke.cont167:                                   ; preds = %invoke.cont162
  %dataSize169 = getelementptr inbounds %struct.bz2BlockListing* %call168, i32 0, i32 1, !dbg !1593
  store i64 %sub165, i64* %dataSize169, align 8, !dbg !1593
  br label %if.end170

if.end170:                                        ; preds = %invoke.cont167, %invoke.cont152
  br label %if.end171

if.end171:                                        ; preds = %if.end170, %invoke.cont140
  br label %for.inc, !dbg !1595

for.inc:                                          ; preds = %if.end171
  %87 = load i32* %i, align 4, !dbg !1582
  %inc172 = add nsw i32 %87, 1, !dbg !1582
  store i32 %inc172, i32* %i, align 4, !dbg !1582
  br label %for.cond, !dbg !1582

for.end:                                          ; preds = %for.cond
  store i32 0, i32* %i, align 4, !dbg !1596
  br label %for.cond173, !dbg !1596

for.cond173:                                      ; preds = %for.inc278, %for.end
  %88 = load i32* %i, align 4, !dbg !1596
  %89 = load i32* %bz2NumBlocks, align 4, !dbg !1596
  %cmp174 = icmp slt i32 %88, %89, !dbg !1596
  br i1 %cmp174, label %for.body175, label %for.end280, !dbg !1596

for.body175:                                      ; preds = %for.cond173
  %90 = load i32* %hInfile.addr, align 4, !dbg !1598
  %91 = load i32* %i, align 4, !dbg !1598
  %conv176 = sext i32 %91 to i64, !dbg !1598
  %call178 = invoke %struct.bz2BlockListing* @_ZNSt6vectorI15bz2BlockListingSaIS0_EEixEm(%"class.std::vector.0"* %bz2BlockList, i64 %conv176)
          to label %invoke.cont177 unwind label %lpad, !dbg !1598

invoke.cont177:                                   ; preds = %for.body175
  %dataStart179 = getelementptr inbounds %struct.bz2BlockListing* %call178, i32 0, i32 0, !dbg !1598
  %92 = load i64* %dataStart179, align 8, !dbg !1598
  %call180 = call i64 @lseek64(i32 %90, i64 %92, i32 0) nounwind, !dbg !1598
  store i64 %call180, i64* %ret, align 8, !dbg !1598
  %93 = load i64* %ret, align 8, !dbg !1600
  %94 = load i32* %i, align 4, !dbg !1600
  %conv181 = sext i32 %94 to i64, !dbg !1600
  %call183 = invoke %struct.bz2BlockListing* @_ZNSt6vectorI15bz2BlockListingSaIS0_EEixEm(%"class.std::vector.0"* %bz2BlockList, i64 %conv181)
          to label %invoke.cont182 unwind label %lpad, !dbg !1600

invoke.cont182:                                   ; preds = %invoke.cont177
  %dataStart184 = getelementptr inbounds %struct.bz2BlockListing* %call183, i32 0, i32 0, !dbg !1600
  %95 = load i64* %dataStart184, align 8, !dbg !1600
  %cmp185 = icmp ne i64 %93, %95, !dbg !1600
  br i1 %cmp185, label %if.then186, label %if.end191, !dbg !1600

if.then186:                                       ; preds = %invoke.cont182
  %96 = load %struct._IO_FILE** @stderr, align 8, !dbg !1601
  %97 = load i64* %ret, align 8, !dbg !1601
  %call188 = invoke i32 (%struct._IO_FILE*, i8*, ...)* @fprintf(%struct._IO_FILE* %96, i8* getelementptr inbounds ([67 x i8]* @.str5, i32 0, i32 0), i64 %97)
          to label %invoke.cont187 unwind label %lpad, !dbg !1601

invoke.cont187:                                   ; preds = %if.then186
  %98 = load i32* %hInfile.addr, align 4, !dbg !1603
  %call190 = invoke i32 @close(i32 %98)
          to label %invoke.cont189 unwind label %lpad, !dbg !1603

invoke.cont189:                                   ; preds = %invoke.cont187
  store i32 1, i32* @_ZL7allDone, align 4, !dbg !1604
  store i32 -1, i32* %retval, !dbg !1605
  store i32 1, i32* %cleanup.dest.slot
  br label %cleanup, !dbg !1605

if.end191:                                        ; preds = %invoke.cont182
  %99 = load i32* %i, align 4, !dbg !1606
  %conv192 = sext i32 %99 to i64, !dbg !1606
  %call194 = invoke %struct.bz2BlockListing* @_ZNSt6vectorI15bz2BlockListingSaIS0_EEixEm(%"class.std::vector.0"* %bz2BlockList, i64 %conv192)
          to label %invoke.cont193 unwind label %lpad, !dbg !1606

invoke.cont193:                                   ; preds = %if.end191
  %dataSize195 = getelementptr inbounds %struct.bz2BlockListing* %call194, i32 0, i32 1, !dbg !1606
  %100 = load i64* %dataSize195, align 8, !dbg !1606
  store i64 %100, i64* %inSize, align 8, !dbg !1606
  %101 = load i32* @_ZL9QuietMode, align 4, !dbg !1607
  %cmp196 = icmp ne i32 %101, 1, !dbg !1607
  br i1 %cmp196, label %if.then197, label %if.end205, !dbg !1607

if.then197:                                       ; preds = %invoke.cont193
  %102 = load i64* %inSize, align 8, !dbg !1608
  %cmp198 = icmp sgt i64 %102, 250000000, !dbg !1608
  br i1 %cmp198, label %if.then199, label %if.end204, !dbg !1608

if.then199:                                       ; preds = %if.then197
  %103 = load %struct._IO_FILE** @stderr, align 8, !dbg !1610
  %104 = load i64* %inSize, align 8, !dbg !1610
  %call201 = invoke i32 (%struct._IO_FILE*, i8*, ...)* @fprintf(%struct._IO_FILE* %103, i8* getelementptr inbounds ([57 x i8]* @.str8, i32 0, i32 0), i64 %104)
          to label %invoke.cont200 unwind label %lpad, !dbg !1610

invoke.cont200:                                   ; preds = %if.then199
  %105 = load %struct._IO_FILE** @stderr, align 8, !dbg !1612
  %call203 = invoke i32 (%struct._IO_FILE*, i8*, ...)* @fprintf(%struct._IO_FILE* %105, i8* getelementptr inbounds ([64 x i8]* @.str9, i32 0, i32 0))
          to label %invoke.cont202 unwind label %lpad, !dbg !1612

invoke.cont202:                                   ; preds = %invoke.cont200
  br label %if.end204, !dbg !1613

if.end204:                                        ; preds = %invoke.cont202, %if.then197
  br label %if.end205, !dbg !1614

if.end205:                                        ; preds = %if.end204, %invoke.cont193
  %106 = load %union.pthread_mutex_t** @_ZL8MemMutex, align 8, !dbg !1615
  %call206 = call i32 @pthread_mutex_lock(%union.pthread_mutex_t* %106) nounwind, !dbg !1615
  store i8* null, i8** %FileData, align 8, !dbg !1616
  %107 = load i64* %inSize, align 8, !dbg !1617
  %108 = icmp slt i64 %107, 0, !dbg !1617
  %109 = select i1 %108, i64 -1, i64 %107, !dbg !1617
  %call208 = invoke noalias i8* @_Znam(i64 %109)
          to label %invoke.cont207 unwind label %lpad, !dbg !1617

invoke.cont207:                                   ; preds = %if.end205
  store i8* %call208, i8** %FileData, align 8, !dbg !1617
  %110 = load %union.pthread_mutex_t** @_ZL8MemMutex, align 8, !dbg !1618
  %call209 = call i32 @pthread_mutex_unlock(%union.pthread_mutex_t* %110) nounwind, !dbg !1618
  %111 = load i8** %FileData, align 8, !dbg !1619
  %cmp210 = icmp eq i8* %111, null, !dbg !1619
  br i1 %cmp210, label %if.then211, label %if.end216, !dbg !1619

if.then211:                                       ; preds = %invoke.cont207
  %112 = load %struct._IO_FILE** @stderr, align 8, !dbg !1620
  %call213 = invoke i32 (%struct._IO_FILE*, i8*, ...)* @fprintf(%struct._IO_FILE* %112, i8* getelementptr inbounds ([61 x i8]* @.str6, i32 0, i32 0))
          to label %invoke.cont212 unwind label %lpad, !dbg !1620

invoke.cont212:                                   ; preds = %if.then211
  %113 = load i32* %hInfile.addr, align 4, !dbg !1622
  %call215 = invoke i32 @close(i32 %113)
          to label %invoke.cont214 unwind label %lpad, !dbg !1622

invoke.cont214:                                   ; preds = %invoke.cont212
  store i32 1, i32* @_ZL7allDone, align 4, !dbg !1623
  store i32 -1, i32* %retval, !dbg !1624
  store i32 1, i32* %cleanup.dest.slot
  br label %cleanup, !dbg !1624

if.end216:                                        ; preds = %invoke.cont207
  %114 = load i32* %hInfile.addr, align 4, !dbg !1625
  %115 = load i8** %FileData, align 8, !dbg !1625
  %116 = load i64* %inSize, align 8, !dbg !1625
  %call218 = invoke i64 @read(i32 %114, i8* %115, i64 %116)
          to label %invoke.cont217 unwind label %lpad, !dbg !1625

invoke.cont217:                                   ; preds = %if.end216
  store i64 %call218, i64* %ret, align 8, !dbg !1625
  %117 = load i64* %ret, align 8, !dbg !1626
  %cmp219 = icmp eq i64 %117, 0, !dbg !1626
  br i1 %cmp219, label %if.then220, label %if.else229, !dbg !1626

if.then220:                                       ; preds = %invoke.cont217
  %118 = load %union.pthread_mutex_t** @_ZL8MemMutex, align 8, !dbg !1627
  %call221 = call i32 @pthread_mutex_lock(%union.pthread_mutex_t* %118) nounwind, !dbg !1627
  %119 = load i8** %FileData, align 8, !dbg !1629
  %cmp222 = icmp ne i8* %119, null, !dbg !1629
  br i1 %cmp222, label %if.then223, label %if.end227, !dbg !1629

if.then223:                                       ; preds = %if.then220
  %120 = load i8** %FileData, align 8, !dbg !1630
  %isnull224 = icmp eq i8* %120, null, !dbg !1630
  br i1 %isnull224, label %delete.end226, label %delete.notnull225, !dbg !1630

delete.notnull225:                                ; preds = %if.then223
  call void @_ZdaPv(i8* %120) nounwind, !dbg !1630
  br label %delete.end226, !dbg !1630

delete.end226:                                    ; preds = %delete.notnull225, %if.then223
  br label %if.end227, !dbg !1630

if.end227:                                        ; preds = %delete.end226, %if.then220
  %121 = load %union.pthread_mutex_t** @_ZL8MemMutex, align 8, !dbg !1631
  %call228 = call i32 @pthread_mutex_unlock(%union.pthread_mutex_t* %121) nounwind, !dbg !1631
  br label %for.end280, !dbg !1632

if.else229:                                       ; preds = %invoke.cont217
  %122 = load i64* %ret, align 8, !dbg !1633
  %cmp230 = icmp slt i64 %122, 0, !dbg !1633
  br i1 %cmp230, label %if.then231, label %if.else244, !dbg !1633

if.then231:                                       ; preds = %if.else229
  %123 = load %struct._IO_FILE** @stderr, align 8, !dbg !1634
  %call233 = invoke i32 (%struct._IO_FILE*, i8*, ...)* @fprintf(%struct._IO_FILE* %123, i8* getelementptr inbounds ([49 x i8]* @.str10, i32 0, i32 0))
          to label %invoke.cont232 unwind label %lpad, !dbg !1634

invoke.cont232:                                   ; preds = %if.then231
  %124 = load i32* %hInfile.addr, align 4, !dbg !1636
  %call235 = invoke i32 @close(i32 %124)
          to label %invoke.cont234 unwind label %lpad, !dbg !1636

invoke.cont234:                                   ; preds = %invoke.cont232
  %125 = load %union.pthread_mutex_t** @_ZL8MemMutex, align 8, !dbg !1637
  %call236 = call i32 @pthread_mutex_lock(%union.pthread_mutex_t* %125) nounwind, !dbg !1637
  %126 = load i8** %FileData, align 8, !dbg !1638
  %cmp237 = icmp ne i8* %126, null, !dbg !1638
  br i1 %cmp237, label %if.then238, label %if.end242, !dbg !1638

if.then238:                                       ; preds = %invoke.cont234
  %127 = load i8** %FileData, align 8, !dbg !1639
  %isnull239 = icmp eq i8* %127, null, !dbg !1639
  br i1 %isnull239, label %delete.end241, label %delete.notnull240, !dbg !1639

delete.notnull240:                                ; preds = %if.then238
  call void @_ZdaPv(i8* %127) nounwind, !dbg !1639
  br label %delete.end241, !dbg !1639

delete.end241:                                    ; preds = %delete.notnull240, %if.then238
  br label %if.end242, !dbg !1639

if.end242:                                        ; preds = %delete.end241, %invoke.cont234
  %128 = load %union.pthread_mutex_t** @_ZL8MemMutex, align 8, !dbg !1640
  %call243 = call i32 @pthread_mutex_unlock(%union.pthread_mutex_t* %128) nounwind, !dbg !1640
  store i32 1, i32* @_ZL7allDone, align 4, !dbg !1641
  store i32 -1, i32* %retval, !dbg !1642
  store i32 1, i32* %cleanup.dest.slot
  br label %cleanup, !dbg !1642

if.else244:                                       ; preds = %if.else229
  %129 = load i64* %ret, align 8, !dbg !1643
  %130 = load i64* %inSize, align 8, !dbg !1643
  %cmp245 = icmp ne i64 %129, %130, !dbg !1643
  br i1 %cmp245, label %if.then246, label %if.end259, !dbg !1643

if.then246:                                       ; preds = %if.else244
  %131 = load %struct._IO_FILE** @stderr, align 8, !dbg !1644
  %call248 = invoke i32 (%struct._IO_FILE*, i8*, ...)* @fprintf(%struct._IO_FILE* %131, i8* getelementptr inbounds ([61 x i8]* @.str11, i32 0, i32 0))
          to label %invoke.cont247 unwind label %lpad, !dbg !1644

invoke.cont247:                                   ; preds = %if.then246
  %132 = load i32* %hInfile.addr, align 4, !dbg !1646
  %call250 = invoke i32 @close(i32 %132)
          to label %invoke.cont249 unwind label %lpad, !dbg !1646

invoke.cont249:                                   ; preds = %invoke.cont247
  %133 = load %union.pthread_mutex_t** @_ZL8MemMutex, align 8, !dbg !1647
  %call251 = call i32 @pthread_mutex_lock(%union.pthread_mutex_t* %133) nounwind, !dbg !1647
  %134 = load i8** %FileData, align 8, !dbg !1648
  %cmp252 = icmp ne i8* %134, null, !dbg !1648
  br i1 %cmp252, label %if.then253, label %if.end257, !dbg !1648

if.then253:                                       ; preds = %invoke.cont249
  %135 = load i8** %FileData, align 8, !dbg !1649
  %isnull254 = icmp eq i8* %135, null, !dbg !1649
  br i1 %isnull254, label %delete.end256, label %delete.notnull255, !dbg !1649

delete.notnull255:                                ; preds = %if.then253
  call void @_ZdaPv(i8* %135) nounwind, !dbg !1649
  br label %delete.end256, !dbg !1649

delete.end256:                                    ; preds = %delete.notnull255, %if.then253
  br label %if.end257, !dbg !1649

if.end257:                                        ; preds = %delete.end256, %invoke.cont249
  %136 = load %union.pthread_mutex_t** @_ZL8MemMutex, align 8, !dbg !1650
  %call258 = call i32 @pthread_mutex_unlock(%union.pthread_mutex_t* %136) nounwind, !dbg !1650
  store i32 1, i32* @_ZL7allDone, align 4, !dbg !1651
  store i32 -1, i32* %retval, !dbg !1652
  store i32 1, i32* %cleanup.dest.slot
  br label %cleanup, !dbg !1652

if.end259:                                        ; preds = %if.else244
  br label %if.end260

if.end260:                                        ; preds = %if.end259
  br label %if.end261

if.end261:                                        ; preds = %if.end260
  %137 = load %union.pthread_mutex_t** @_ZL8OutMutex, align 8, !dbg !1653
  %call262 = call i32 @pthread_mutex_lock(%union.pthread_mutex_t* %137) nounwind, !dbg !1653
  invoke void @_ZNSt6vectorI7outBuffSaIS0_EE9push_backERKS0_(%"class.std::vector"* @_ZL12OutputBuffer, %struct.outBuff* %TempOutBuffer)
          to label %invoke.cont263 unwind label %lpad, !dbg !1654

invoke.cont263:                                   ; preds = %if.end261
  %138 = load %union.pthread_mutex_t** @_ZL8OutMutex, align 8, !dbg !1655
  %call264 = call i32 @pthread_mutex_unlock(%union.pthread_mutex_t* %138) nounwind, !dbg !1655
  %139 = load %struct.queue** %fifo.addr, align 8, !dbg !1656
  %mut = getelementptr inbounds %struct.queue* %139, i32 0, i32 7, !dbg !1656
  %140 = load %union.pthread_mutex_t** %mut, align 8, !dbg !1656
  %call265 = call i32 @pthread_mutex_lock(%union.pthread_mutex_t* %140) nounwind, !dbg !1656
  br label %while.cond266, !dbg !1657

while.cond266:                                    ; preds = %invoke.cont269, %invoke.cont263
  %141 = load %struct.queue** %fifo.addr, align 8, !dbg !1657
  %full = getelementptr inbounds %struct.queue* %141, i32 0, i32 5, !dbg !1657
  %142 = load i32* %full, align 4, !dbg !1657
  %tobool = icmp ne i32 %142, 0, !dbg !1657
  br i1 %tobool, label %while.body267, label %while.end271, !dbg !1657

while.body267:                                    ; preds = %while.cond266
  %143 = load %struct.queue** %fifo.addr, align 8, !dbg !1658
  %notFull = getelementptr inbounds %struct.queue* %143, i32 0, i32 8, !dbg !1658
  %144 = load %union.pthread_cond_t** %notFull, align 8, !dbg !1658
  %145 = load %struct.queue** %fifo.addr, align 8, !dbg !1658
  %mut268 = getelementptr inbounds %struct.queue* %145, i32 0, i32 7, !dbg !1658
  %146 = load %union.pthread_mutex_t** %mut268, align 8, !dbg !1658
  %call270 = invoke i32 @pthread_cond_wait(%union.pthread_cond_t* %144, %union.pthread_mutex_t* %146)
          to label %invoke.cont269 unwind label %lpad, !dbg !1658

invoke.cont269:                                   ; preds = %while.body267
  br label %while.cond266, !dbg !1660

while.end271:                                     ; preds = %while.cond266
  %147 = load %struct.queue** %fifo.addr, align 8, !dbg !1661
  %148 = load i8** %FileData, align 8, !dbg !1661
  %149 = load i64* %inSize, align 8, !dbg !1661
  %conv272 = trunc i64 %149 to i32, !dbg !1661
  %150 = load i32* %blockNum, align 4, !dbg !1661
  invoke void @_Z8queueAddP5queuePcji(%struct.queue* %147, i8* %148, i32 %conv272, i32 %150)
          to label %invoke.cont273 unwind label %lpad, !dbg !1661

invoke.cont273:                                   ; preds = %while.end271
  %151 = load %struct.queue** %fifo.addr, align 8, !dbg !1662
  %mut274 = getelementptr inbounds %struct.queue* %151, i32 0, i32 7, !dbg !1662
  %152 = load %union.pthread_mutex_t** %mut274, align 8, !dbg !1662
  %call275 = call i32 @pthread_mutex_unlock(%union.pthread_mutex_t* %152) nounwind, !dbg !1662
  %153 = load %struct.queue** %fifo.addr, align 8, !dbg !1663
  %notEmpty = getelementptr inbounds %struct.queue* %153, i32 0, i32 9, !dbg !1663
  %154 = load %union.pthread_cond_t** %notEmpty, align 8, !dbg !1663
  %call276 = call i32 @pthread_cond_signal(%union.pthread_cond_t* %154) nounwind, !dbg !1663
  %155 = load i32* %blockNum, align 4, !dbg !1664
  %inc277 = add nsw i32 %155, 1, !dbg !1664
  store i32 %inc277, i32* %blockNum, align 4, !dbg !1664
  br label %for.inc278, !dbg !1665

for.inc278:                                       ; preds = %invoke.cont273
  %156 = load i32* %i, align 4, !dbg !1596
  %inc279 = add nsw i32 %156, 1, !dbg !1596
  store i32 %inc279, i32* %i, align 4, !dbg !1596
  br label %for.cond173, !dbg !1596

for.end280:                                       ; preds = %if.end227, %for.cond173
  %157 = load i32* %hInfile.addr, align 4, !dbg !1666
  %call282 = invoke i32 @close(i32 %157)
          to label %invoke.cont281 unwind label %lpad, !dbg !1666

invoke.cont281:                                   ; preds = %for.end280
  store i32 1, i32* @_ZL7allDone, align 4, !dbg !1667
  store i32 0, i32* %retval, !dbg !1668
  store i32 1, i32* %cleanup.dest.slot
  br label %cleanup, !dbg !1668

cleanup:                                          ; preds = %invoke.cont281, %if.end257, %if.end242, %invoke.cont214, %invoke.cont189, %if.end45, %invoke.cont12, %invoke.cont2
  call void @_ZNSt6vectorI15bz2BlockListingSaIS0_EED1Ev(%"class.std::vector.0"* %bz2BlockList), !dbg !1524
  %158 = load i32* %retval, !dbg !1669
  ret i32 %158, !dbg !1669

invoke.cont283:                                   ; preds = %lpad
  br label %eh.resume, !dbg !1524

eh.resume:                                        ; preds = %invoke.cont283
  %exn = load i8** %exn.slot, !dbg !1524
  %sel = load i32* %ehselector.slot, !dbg !1524
  %lpad.val = insertvalue { i8*, i32 } undef, i8* %exn, 0, !dbg !1524
  %lpad.val284 = insertvalue { i8*, i32 } %lpad.val, i32 %sel, 1, !dbg !1524
  resume { i8*, i32 } %lpad.val284, !dbg !1524

terminate.lpad:                                   ; preds = %lpad
  %159 = landingpad { i8*, i32 } personality i8* bitcast (i32 (...)* @__gxx_personality_v0 to i8*)
          catch i8* null, !dbg !1524
  call void @_ZSt9terminatev() noreturn nounwind, !dbg !1524
  unreachable, !dbg !1524
}

define linkonce_odr void @_ZNSt6vectorI15bz2BlockListingSaIS0_EEC1Ev(%"class.std::vector.0"* %this) unnamed_addr uwtable align 2 {
entry:
  %this.addr = alloca %"class.std::vector.0"*, align 8
  store %"class.std::vector.0"* %this, %"class.std::vector.0"** %this.addr, align 8
  call void @llvm.dbg.declare(metadata !{%"class.std::vector.0"** %this.addr}, metadata !1670), !dbg !1672
  %this1 = load %"class.std::vector.0"** %this.addr
  call void @_ZNSt6vectorI15bz2BlockListingSaIS0_EEC2Ev(%"class.std::vector.0"* %this1), !dbg !1673
  ret void, !dbg !1673
}

declare void @llvm.memcpy.p0i8.p0i8.i64(i8* nocapture, i8* nocapture, i64, i32, i1) nounwind

declare i64 @lseek64(i32, i64, i32) nounwind

declare i32 @__gxx_personality_v0(...)

declare i32 @close(i32)

declare i32 @pthread_mutex_lock(%union.pthread_mutex_t*) nounwind

declare noalias i8* @_Znam(i64)

declare i32 @pthread_mutex_unlock(%union.pthread_mutex_t*) nounwind

declare i64 @read(i32, i8*, i64)

declare i64 @strlen(i8*) nounwind readonly

declare void @_ZdaPv(i8*) nounwind

define linkonce_odr void @_ZNSt6vectorI15bz2BlockListingSaIS0_EE9push_backERKS0_(%"class.std::vector.0"* %this, %struct.bz2BlockListing* %__x) uwtable align 2 {
entry:
  %this.addr = alloca %"class.std::vector.0"*, align 8
  %__x.addr = alloca %struct.bz2BlockListing*, align 8
  %agg.tmp = alloca %"class.__gnu_cxx::__normal_iterator.5", align 8
  store %"class.std::vector.0"* %this, %"class.std::vector.0"** %this.addr, align 8
  call void @llvm.dbg.declare(metadata !{%"class.std::vector.0"** %this.addr}, metadata !1674), !dbg !1675
  store %struct.bz2BlockListing* %__x, %struct.bz2BlockListing** %__x.addr, align 8
  call void @llvm.dbg.declare(metadata !{%struct.bz2BlockListing** %__x.addr}, metadata !1676), !dbg !1675
  %this1 = load %"class.std::vector.0"** %this.addr
  %0 = bitcast %"class.std::vector.0"* %this1 to %"struct.std::_Vector_base.1"*, !dbg !1677
  %_M_impl = getelementptr inbounds %"struct.std::_Vector_base.1"* %0, i32 0, i32 0, !dbg !1677
  %_M_finish = getelementptr inbounds %"struct.std::_Vector_base<bz2BlockListing, std::allocator<bz2BlockListing> >::_Vector_impl"* %_M_impl, i32 0, i32 1, !dbg !1677
  %1 = load %struct.bz2BlockListing** %_M_finish, align 8, !dbg !1677
  %2 = bitcast %"class.std::vector.0"* %this1 to %"struct.std::_Vector_base.1"*, !dbg !1677
  %_M_impl2 = getelementptr inbounds %"struct.std::_Vector_base.1"* %2, i32 0, i32 0, !dbg !1677
  %_M_end_of_storage = getelementptr inbounds %"struct.std::_Vector_base<bz2BlockListing, std::allocator<bz2BlockListing> >::_Vector_impl"* %_M_impl2, i32 0, i32 2, !dbg !1677
  %3 = load %struct.bz2BlockListing** %_M_end_of_storage, align 8, !dbg !1677
  %cmp = icmp ne %struct.bz2BlockListing* %1, %3, !dbg !1677
  br i1 %cmp, label %if.then, label %if.else, !dbg !1677

if.then:                                          ; preds = %entry
  %4 = bitcast %"class.std::vector.0"* %this1 to %"struct.std::_Vector_base.1"*, !dbg !1679
  %_M_impl3 = getelementptr inbounds %"struct.std::_Vector_base.1"* %4, i32 0, i32 0, !dbg !1679
  %5 = bitcast %"struct.std::_Vector_base<bz2BlockListing, std::allocator<bz2BlockListing> >::_Vector_impl"* %_M_impl3 to %"class.std::allocator.2"*, !dbg !1679
  %6 = bitcast %"class.std::vector.0"* %this1 to %"struct.std::_Vector_base.1"*, !dbg !1679
  %_M_impl4 = getelementptr inbounds %"struct.std::_Vector_base.1"* %6, i32 0, i32 0, !dbg !1679
  %_M_finish5 = getelementptr inbounds %"struct.std::_Vector_base<bz2BlockListing, std::allocator<bz2BlockListing> >::_Vector_impl"* %_M_impl4, i32 0, i32 1, !dbg !1679
  %7 = load %struct.bz2BlockListing** %_M_finish5, align 8, !dbg !1679
  %8 = load %struct.bz2BlockListing** %__x.addr, align 8, !dbg !1679
  call void @_ZN9__gnu_cxx14__alloc_traitsISaI15bz2BlockListingEE9constructIS1_EEvRS2_PS1_RKT_(%"class.std::allocator.2"* %5, %struct.bz2BlockListing* %7, %struct.bz2BlockListing* %8), !dbg !1679
  %9 = bitcast %"class.std::vector.0"* %this1 to %"struct.std::_Vector_base.1"*, !dbg !1681
  %_M_impl6 = getelementptr inbounds %"struct.std::_Vector_base.1"* %9, i32 0, i32 0, !dbg !1681
  %_M_finish7 = getelementptr inbounds %"struct.std::_Vector_base<bz2BlockListing, std::allocator<bz2BlockListing> >::_Vector_impl"* %_M_impl6, i32 0, i32 1, !dbg !1681
  %10 = load %struct.bz2BlockListing** %_M_finish7, align 8, !dbg !1681
  %incdec.ptr = getelementptr inbounds %struct.bz2BlockListing* %10, i32 1, !dbg !1681
  store %struct.bz2BlockListing* %incdec.ptr, %struct.bz2BlockListing** %_M_finish7, align 8, !dbg !1681
  br label %if.end, !dbg !1682

if.else:                                          ; preds = %entry
  %call = call %struct.bz2BlockListing* @_ZNSt6vectorI15bz2BlockListingSaIS0_EE3endEv(%"class.std::vector.0"* %this1), !dbg !1683
  %coerce.dive = getelementptr %"class.__gnu_cxx::__normal_iterator.5"* %agg.tmp, i32 0, i32 0, !dbg !1683
  store %struct.bz2BlockListing* %call, %struct.bz2BlockListing** %coerce.dive, !dbg !1683
  %11 = load %struct.bz2BlockListing** %__x.addr, align 8, !dbg !1683
  %coerce.dive8 = getelementptr %"class.__gnu_cxx::__normal_iterator.5"* %agg.tmp, i32 0, i32 0, !dbg !1683
  %12 = load %struct.bz2BlockListing** %coerce.dive8, !dbg !1683
  call void @_ZNSt6vectorI15bz2BlockListingSaIS0_EE13_M_insert_auxEN9__gnu_cxx17__normal_iteratorIPS0_S2_EERKS0_(%"class.std::vector.0"* %this1, %struct.bz2BlockListing* %12, %struct.bz2BlockListing* %11), !dbg !1683
  br label %if.end

if.end:                                           ; preds = %if.else, %if.then
  ret void, !dbg !1684
}

define linkonce_odr %struct.bz2BlockListing* @_ZNSt6vectorI15bz2BlockListingSaIS0_EEixEm(%"class.std::vector.0"* %this, i64 %__n) nounwind uwtable align 2 {
entry:
  %this.addr = alloca %"class.std::vector.0"*, align 8
  %__n.addr = alloca i64, align 8
  store %"class.std::vector.0"* %this, %"class.std::vector.0"** %this.addr, align 8
  call void @llvm.dbg.declare(metadata !{%"class.std::vector.0"** %this.addr}, metadata !1685), !dbg !1686
  store i64 %__n, i64* %__n.addr, align 8
  call void @llvm.dbg.declare(metadata !{i64* %__n.addr}, metadata !1687), !dbg !1686
  %this1 = load %"class.std::vector.0"** %this.addr
  %0 = bitcast %"class.std::vector.0"* %this1 to %"struct.std::_Vector_base.1"*, !dbg !1688
  %_M_impl = getelementptr inbounds %"struct.std::_Vector_base.1"* %0, i32 0, i32 0, !dbg !1688
  %_M_start = getelementptr inbounds %"struct.std::_Vector_base<bz2BlockListing, std::allocator<bz2BlockListing> >::_Vector_impl"* %_M_impl, i32 0, i32 0, !dbg !1688
  %1 = load %struct.bz2BlockListing** %_M_start, align 8, !dbg !1688
  %2 = load i64* %__n.addr, align 8, !dbg !1688
  %add.ptr = getelementptr inbounds %struct.bz2BlockListing* %1, i64 %2, !dbg !1688
  ret %struct.bz2BlockListing* %add.ptr, !dbg !1688
}

define linkonce_odr void @_ZNSt6vectorI7outBuffSaIS0_EE9push_backERKS0_(%"class.std::vector"* %this, %struct.outBuff* %__x) uwtable align 2 {
entry:
  %this.addr = alloca %"class.std::vector"*, align 8
  %__x.addr = alloca %struct.outBuff*, align 8
  %agg.tmp = alloca %"class.__gnu_cxx::__normal_iterator", align 8
  store %"class.std::vector"* %this, %"class.std::vector"** %this.addr, align 8
  call void @llvm.dbg.declare(metadata !{%"class.std::vector"** %this.addr}, metadata !1690), !dbg !1691
  store %struct.outBuff* %__x, %struct.outBuff** %__x.addr, align 8
  call void @llvm.dbg.declare(metadata !{%struct.outBuff** %__x.addr}, metadata !1692), !dbg !1691
  %this1 = load %"class.std::vector"** %this.addr
  %0 = bitcast %"class.std::vector"* %this1 to %"struct.std::_Vector_base"*, !dbg !1693
  %_M_impl = getelementptr inbounds %"struct.std::_Vector_base"* %0, i32 0, i32 0, !dbg !1693
  %_M_finish = getelementptr inbounds %"struct.std::_Vector_base<outBuff, std::allocator<outBuff> >::_Vector_impl"* %_M_impl, i32 0, i32 1, !dbg !1693
  %1 = load %struct.outBuff** %_M_finish, align 8, !dbg !1693
  %2 = bitcast %"class.std::vector"* %this1 to %"struct.std::_Vector_base"*, !dbg !1693
  %_M_impl2 = getelementptr inbounds %"struct.std::_Vector_base"* %2, i32 0, i32 0, !dbg !1693
  %_M_end_of_storage = getelementptr inbounds %"struct.std::_Vector_base<outBuff, std::allocator<outBuff> >::_Vector_impl"* %_M_impl2, i32 0, i32 2, !dbg !1693
  %3 = load %struct.outBuff** %_M_end_of_storage, align 8, !dbg !1693
  %cmp = icmp ne %struct.outBuff* %1, %3, !dbg !1693
  br i1 %cmp, label %if.then, label %if.else, !dbg !1693

if.then:                                          ; preds = %entry
  %4 = bitcast %"class.std::vector"* %this1 to %"struct.std::_Vector_base"*, !dbg !1695
  %_M_impl3 = getelementptr inbounds %"struct.std::_Vector_base"* %4, i32 0, i32 0, !dbg !1695
  %5 = bitcast %"struct.std::_Vector_base<outBuff, std::allocator<outBuff> >::_Vector_impl"* %_M_impl3 to %"class.std::allocator"*, !dbg !1695
  %6 = bitcast %"class.std::vector"* %this1 to %"struct.std::_Vector_base"*, !dbg !1695
  %_M_impl4 = getelementptr inbounds %"struct.std::_Vector_base"* %6, i32 0, i32 0, !dbg !1695
  %_M_finish5 = getelementptr inbounds %"struct.std::_Vector_base<outBuff, std::allocator<outBuff> >::_Vector_impl"* %_M_impl4, i32 0, i32 1, !dbg !1695
  %7 = load %struct.outBuff** %_M_finish5, align 8, !dbg !1695
  %8 = load %struct.outBuff** %__x.addr, align 8, !dbg !1695
  call void @_ZN9__gnu_cxx14__alloc_traitsISaI7outBuffEE9constructIS1_EEvRS2_PS1_RKT_(%"class.std::allocator"* %5, %struct.outBuff* %7, %struct.outBuff* %8), !dbg !1695
  %9 = bitcast %"class.std::vector"* %this1 to %"struct.std::_Vector_base"*, !dbg !1697
  %_M_impl6 = getelementptr inbounds %"struct.std::_Vector_base"* %9, i32 0, i32 0, !dbg !1697
  %_M_finish7 = getelementptr inbounds %"struct.std::_Vector_base<outBuff, std::allocator<outBuff> >::_Vector_impl"* %_M_impl6, i32 0, i32 1, !dbg !1697
  %10 = load %struct.outBuff** %_M_finish7, align 8, !dbg !1697
  %incdec.ptr = getelementptr inbounds %struct.outBuff* %10, i32 1, !dbg !1697
  store %struct.outBuff* %incdec.ptr, %struct.outBuff** %_M_finish7, align 8, !dbg !1697
  br label %if.end, !dbg !1698

if.else:                                          ; preds = %entry
  %call = call %struct.outBuff* @_ZNSt6vectorI7outBuffSaIS0_EE3endEv(%"class.std::vector"* %this1), !dbg !1699
  %coerce.dive = getelementptr %"class.__gnu_cxx::__normal_iterator"* %agg.tmp, i32 0, i32 0, !dbg !1699
  store %struct.outBuff* %call, %struct.outBuff** %coerce.dive, !dbg !1699
  %11 = load %struct.outBuff** %__x.addr, align 8, !dbg !1699
  %coerce.dive8 = getelementptr %"class.__gnu_cxx::__normal_iterator"* %agg.tmp, i32 0, i32 0, !dbg !1699
  %12 = load %struct.outBuff** %coerce.dive8, !dbg !1699
  call void @_ZNSt6vectorI7outBuffSaIS0_EE13_M_insert_auxEN9__gnu_cxx17__normal_iteratorIPS0_S2_EERKS0_(%"class.std::vector"* %this1, %struct.outBuff* %12, %struct.outBuff* %11), !dbg !1699
  br label %if.end

if.end:                                           ; preds = %if.else, %if.then
  ret void, !dbg !1700
}

declare i32 @pthread_cond_wait(%union.pthread_cond_t*, %union.pthread_mutex_t*)

define void @_Z8queueAddP5queuePcji(%struct.queue* %q, i8* %in, i32 %bufSize, i32 %blockNum) nounwind uwtable {
entry:
  %q.addr = alloca %struct.queue*, align 8
  %in.addr = alloca i8*, align 8
  %bufSize.addr = alloca i32, align 4
  %blockNum.addr = alloca i32, align 4
  store %struct.queue* %q, %struct.queue** %q.addr, align 8
  call void @llvm.dbg.declare(metadata !{%struct.queue** %q.addr}, metadata !1701), !dbg !1702
  store i8* %in, i8** %in.addr, align 8
  call void @llvm.dbg.declare(metadata !{i8** %in.addr}, metadata !1703), !dbg !1702
  store i32 %bufSize, i32* %bufSize.addr, align 4
  call void @llvm.dbg.declare(metadata !{i32* %bufSize.addr}, metadata !1704), !dbg !1702
  store i32 %blockNum, i32* %blockNum.addr, align 4
  call void @llvm.dbg.declare(metadata !{i32* %blockNum.addr}, metadata !1705), !dbg !1702
  %0 = load i8** %in.addr, align 8, !dbg !1706
  %1 = load %struct.queue** %q.addr, align 8, !dbg !1706
  %tail = getelementptr inbounds %struct.queue* %1, i32 0, i32 4, !dbg !1706
  %2 = load i64* %tail, align 8, !dbg !1706
  %3 = load %struct.queue** %q.addr, align 8, !dbg !1706
  %buf = getelementptr inbounds %struct.queue* %3, i32 0, i32 0, !dbg !1706
  %4 = load i8*** %buf, align 8, !dbg !1706
  %arrayidx = getelementptr inbounds i8** %4, i64 %2, !dbg !1706
  store i8* %0, i8** %arrayidx, align 8, !dbg !1706
  %5 = load i32* %bufSize.addr, align 4, !dbg !1708
  %6 = load %struct.queue** %q.addr, align 8, !dbg !1708
  %tail1 = getelementptr inbounds %struct.queue* %6, i32 0, i32 4, !dbg !1708
  %7 = load i64* %tail1, align 8, !dbg !1708
  %8 = load %struct.queue** %q.addr, align 8, !dbg !1708
  %bufSize2 = getelementptr inbounds %struct.queue* %8, i32 0, i32 1, !dbg !1708
  %9 = load i32** %bufSize2, align 8, !dbg !1708
  %arrayidx3 = getelementptr inbounds i32* %9, i64 %7, !dbg !1708
  store i32 %5, i32* %arrayidx3, align 4, !dbg !1708
  %10 = load i32* %blockNum.addr, align 4, !dbg !1709
  %11 = load %struct.queue** %q.addr, align 8, !dbg !1709
  %tail4 = getelementptr inbounds %struct.queue* %11, i32 0, i32 4, !dbg !1709
  %12 = load i64* %tail4, align 8, !dbg !1709
  %13 = load %struct.queue** %q.addr, align 8, !dbg !1709
  %blockNum5 = getelementptr inbounds %struct.queue* %13, i32 0, i32 2, !dbg !1709
  %14 = load i32** %blockNum5, align 8, !dbg !1709
  %arrayidx6 = getelementptr inbounds i32* %14, i64 %12, !dbg !1709
  store i32 %10, i32* %arrayidx6, align 4, !dbg !1709
  %15 = load %struct.queue** %q.addr, align 8, !dbg !1710
  %tail7 = getelementptr inbounds %struct.queue* %15, i32 0, i32 4, !dbg !1710
  %16 = load i64* %tail7, align 8, !dbg !1710
  %inc = add nsw i64 %16, 1, !dbg !1710
  store i64 %inc, i64* %tail7, align 8, !dbg !1710
  %17 = load %struct.queue** %q.addr, align 8, !dbg !1711
  %tail8 = getelementptr inbounds %struct.queue* %17, i32 0, i32 4, !dbg !1711
  %18 = load i64* %tail8, align 8, !dbg !1711
  %19 = load i32* @_ZL9QUEUESIZE, align 4, !dbg !1711
  %conv = sext i32 %19 to i64, !dbg !1711
  %cmp = icmp eq i64 %18, %conv, !dbg !1711
  br i1 %cmp, label %if.then, label %if.end, !dbg !1711

if.then:                                          ; preds = %entry
  %20 = load %struct.queue** %q.addr, align 8, !dbg !1712
  %tail9 = getelementptr inbounds %struct.queue* %20, i32 0, i32 4, !dbg !1712
  store i64 0, i64* %tail9, align 8, !dbg !1712
  br label %if.end, !dbg !1712

if.end:                                           ; preds = %if.then, %entry
  %21 = load %struct.queue** %q.addr, align 8, !dbg !1713
  %tail10 = getelementptr inbounds %struct.queue* %21, i32 0, i32 4, !dbg !1713
  %22 = load i64* %tail10, align 8, !dbg !1713
  %23 = load %struct.queue** %q.addr, align 8, !dbg !1713
  %head = getelementptr inbounds %struct.queue* %23, i32 0, i32 3, !dbg !1713
  %24 = load i64* %head, align 8, !dbg !1713
  %cmp11 = icmp eq i64 %22, %24, !dbg !1713
  br i1 %cmp11, label %if.then12, label %if.end13, !dbg !1713

if.then12:                                        ; preds = %if.end
  %25 = load %struct.queue** %q.addr, align 8, !dbg !1714
  %full = getelementptr inbounds %struct.queue* %25, i32 0, i32 5, !dbg !1714
  store i32 1, i32* %full, align 4, !dbg !1714
  br label %if.end13, !dbg !1714

if.end13:                                         ; preds = %if.then12, %if.end
  %26 = load %struct.queue** %q.addr, align 8, !dbg !1715
  %empty = getelementptr inbounds %struct.queue* %26, i32 0, i32 6, !dbg !1715
  store i32 0, i32* %empty, align 4, !dbg !1715
  ret void, !dbg !1716
}

declare i32 @pthread_cond_signal(%union.pthread_cond_t*) nounwind

define linkonce_odr void @_ZNSt6vectorI15bz2BlockListingSaIS0_EED1Ev(%"class.std::vector.0"* %this) unnamed_addr uwtable align 2 {
entry:
  %this.addr = alloca %"class.std::vector.0"*, align 8
  store %"class.std::vector.0"* %this, %"class.std::vector.0"** %this.addr, align 8
  call void @llvm.dbg.declare(metadata !{%"class.std::vector.0"** %this.addr}, metadata !1717), !dbg !1718
  %this1 = load %"class.std::vector.0"** %this.addr
  call void @_ZNSt6vectorI15bz2BlockListingSaIS0_EED2Ev(%"class.std::vector.0"* %this1), !dbg !1719
  ret void, !dbg !1720
}

declare void @_ZSt9terminatev()

define i8* @_Z19consumer_decompressPv(i8* %q) uwtable {
entry:
  %retval = alloca i8*, align 8
  %q.addr = alloca i8*, align 8
  %waitTimer = alloca %struct.timespec, align 8
  %tv = alloca %struct.timeval, align 8
  %tz = alloca %struct.timezone, align 4
  %fifo = alloca %struct.queue*, align 8
  %FileData = alloca i8*, align 8
  %DecompressedData = alloca i8*, align 8
  %inSize = alloca i32, align 4
  %outSize = alloca i32, align 4
  %blockNum = alloca i32, align 4
  %ret = alloca i32, align 4
  %pret = alloca i32, align 4
  store i8* %q, i8** %q.addr, align 8
  call void @llvm.dbg.declare(metadata !{i8** %q.addr}, metadata !1721), !dbg !1722
  call void @llvm.dbg.declare(metadata !{%struct.timespec* %waitTimer}, metadata !1723), !dbg !1725
  call void @llvm.dbg.declare(metadata !{%struct.timeval* %tv}, metadata !1726), !dbg !1737
  call void @llvm.dbg.declare(metadata !{%struct.timezone* %tz}, metadata !1738), !dbg !1748
  call void @llvm.dbg.declare(metadata !{%struct.queue** %fifo}, metadata !1749), !dbg !1750
  call void @llvm.dbg.declare(metadata !{i8** %FileData}, metadata !1751), !dbg !1752
  store i8* null, i8** %FileData, align 8, !dbg !1752
  call void @llvm.dbg.declare(metadata !{i8** %DecompressedData}, metadata !1753), !dbg !1754
  store i8* null, i8** %DecompressedData, align 8, !dbg !1754
  call void @llvm.dbg.declare(metadata !{i32* %inSize}, metadata !1755), !dbg !1756
  store i32 0, i32* %inSize, align 4, !dbg !1756
  call void @llvm.dbg.declare(metadata !{i32* %outSize}, metadata !1757), !dbg !1758
  store i32 0, i32* %outSize, align 4, !dbg !1758
  call void @llvm.dbg.declare(metadata !{i32* %blockNum}, metadata !1759), !dbg !1760
  store i32 -1, i32* %blockNum, align 4, !dbg !1760
  call void @llvm.dbg.declare(metadata !{i32* %ret}, metadata !1761), !dbg !1762
  store i32 -1, i32* %ret, align 4, !dbg !1762
  call void @llvm.dbg.declare(metadata !{i32* %pret}, metadata !1763), !dbg !1764
  store i32 -1, i32* %pret, align 4, !dbg !1764
  %0 = load i8** %q.addr, align 8, !dbg !1765
  %1 = bitcast i8* %0 to %struct.queue*, !dbg !1765
  store %struct.queue* %1, %struct.queue** %fifo, align 8, !dbg !1765
  br label %for.cond, !dbg !1766

for.cond:                                         ; preds = %if.end57, %entry
  %2 = load %struct.queue** %fifo, align 8, !dbg !1768
  %mut = getelementptr inbounds %struct.queue* %2, i32 0, i32 7, !dbg !1768
  %3 = load %union.pthread_mutex_t** %mut, align 8, !dbg !1768
  %call = call i32 @pthread_mutex_lock(%union.pthread_mutex_t* %3) nounwind, !dbg !1768
  br label %while.cond, !dbg !1770

while.cond:                                       ; preds = %if.end11, %for.cond
  %4 = load %struct.queue** %fifo, align 8, !dbg !1770
  %empty = getelementptr inbounds %struct.queue* %4, i32 0, i32 6, !dbg !1770
  %5 = load i32* %empty, align 4, !dbg !1770
  %tobool = icmp ne i32 %5, 0, !dbg !1770
  br i1 %tobool, label %while.body, label %while.end, !dbg !1770

while.body:                                       ; preds = %while.cond
  %6 = load i32* @_ZL7allDone, align 4, !dbg !1771
  %cmp = icmp eq i32 %6, 1, !dbg !1771
  br i1 %cmp, label %if.then, label %if.end, !dbg !1771

if.then:                                          ; preds = %while.body
  %7 = load %struct.queue** %fifo, align 8, !dbg !1773
  %mut1 = getelementptr inbounds %struct.queue* %7, i32 0, i32 7, !dbg !1773
  %8 = load %union.pthread_mutex_t** %mut1, align 8, !dbg !1773
  %call2 = call i32 @pthread_mutex_unlock(%union.pthread_mutex_t* %8) nounwind, !dbg !1773
  store i8* null, i8** %retval, !dbg !1775
  br label %return, !dbg !1775

if.end:                                           ; preds = %while.body
  %call3 = call i32 @gettimeofday(%struct.timeval* %tv, %struct.timezone* %tz) nounwind, !dbg !1776
  %tv_sec = getelementptr inbounds %struct.timeval* %tv, i32 0, i32 0, !dbg !1777
  %9 = load i64* %tv_sec, align 8, !dbg !1777
  %add = add nsw i64 %9, 1, !dbg !1777
  %tv_sec4 = getelementptr inbounds %struct.timespec* %waitTimer, i32 0, i32 0, !dbg !1777
  store i64 %add, i64* %tv_sec4, align 8, !dbg !1777
  %tv_usec = getelementptr inbounds %struct.timeval* %tv, i32 0, i32 1, !dbg !1778
  %10 = load i64* %tv_usec, align 8, !dbg !1778
  %mul = mul nsw i64 %10, 1000, !dbg !1778
  %tv_nsec = getelementptr inbounds %struct.timespec* %waitTimer, i32 0, i32 1, !dbg !1778
  store i64 %mul, i64* %tv_nsec, align 8, !dbg !1778
  %11 = load %struct.queue** %fifo, align 8, !dbg !1779
  %notEmpty = getelementptr inbounds %struct.queue* %11, i32 0, i32 9, !dbg !1779
  %12 = load %union.pthread_cond_t** %notEmpty, align 8, !dbg !1779
  %13 = load %struct.queue** %fifo, align 8, !dbg !1779
  %mut5 = getelementptr inbounds %struct.queue* %13, i32 0, i32 7, !dbg !1779
  %14 = load %union.pthread_mutex_t** %mut5, align 8, !dbg !1779
  %call6 = call i32 @pthread_cond_timedwait(%union.pthread_cond_t* %12, %union.pthread_mutex_t* %14, %struct.timespec* %waitTimer), !dbg !1779
  store i32 %call6, i32* %pret, align 4, !dbg !1779
  %15 = load i32* %pret, align 4, !dbg !1780
  %cmp7 = icmp eq i32 %15, 22, !dbg !1780
  br i1 %cmp7, label %if.then8, label %if.end11, !dbg !1780

if.then8:                                         ; preds = %if.end
  %16 = load %struct._IO_FILE** @stderr, align 8, !dbg !1781
  %call9 = call i32 (%struct._IO_FILE*, i8*, ...)* @fprintf(%struct._IO_FILE* %16, i8* getelementptr inbounds ([63 x i8]* @.str12, i32 0, i32 0)), !dbg !1781
  %17 = load %struct._IO_FILE** @stderr, align 8, !dbg !1783
  %call10 = call i32 (%struct._IO_FILE*, i8*, ...)* @fprintf(%struct._IO_FILE* %17, i8* getelementptr inbounds ([64 x i8]* @.str13, i32 0, i32 0)), !dbg !1783
  call void @exit(i32 1) noreturn nounwind, !dbg !1784
  unreachable, !dbg !1784

if.end11:                                         ; preds = %if.end
  br label %while.cond, !dbg !1785

while.end:                                        ; preds = %while.cond
  %18 = load %struct.queue** %fifo, align 8, !dbg !1786
  %call12 = call i8* @_Z8queueDelP5queuePjPi(%struct.queue* %18, i32* %inSize, i32* %blockNum), !dbg !1786
  store i8* %call12, i8** %FileData, align 8, !dbg !1786
  %19 = load %struct.queue** %fifo, align 8, !dbg !1787
  %mut13 = getelementptr inbounds %struct.queue* %19, i32 0, i32 7, !dbg !1787
  %20 = load %union.pthread_mutex_t** %mut13, align 8, !dbg !1787
  %call14 = call i32 @pthread_mutex_unlock(%union.pthread_mutex_t* %20) nounwind, !dbg !1787
  %21 = load %struct.queue** %fifo, align 8, !dbg !1788
  %notFull = getelementptr inbounds %struct.queue* %21, i32 0, i32 8, !dbg !1788
  %22 = load %union.pthread_cond_t** %notFull, align 8, !dbg !1788
  %call15 = call i32 @pthread_cond_signal(%union.pthread_cond_t* %22) nounwind, !dbg !1788
  store i32 900000, i32* %outSize, align 4, !dbg !1789
  %23 = load %union.pthread_mutex_t** @_ZL8MemMutex, align 8, !dbg !1790
  %call16 = call i32 @pthread_mutex_lock(%union.pthread_mutex_t* %23) nounwind, !dbg !1790
  %24 = load i32* %outSize, align 4, !dbg !1791
  %25 = zext i32 %24 to i64, !dbg !1791
  %call17 = call noalias i8* @_Znam(i64 %25), !dbg !1791
  store i8* %call17, i8** %DecompressedData, align 8, !dbg !1791
  %26 = load %union.pthread_mutex_t** @_ZL8MemMutex, align 8, !dbg !1792
  %call18 = call i32 @pthread_mutex_unlock(%union.pthread_mutex_t* %26) nounwind, !dbg !1792
  %27 = load i8** %DecompressedData, align 8, !dbg !1793
  %cmp19 = icmp eq i8* %27, null, !dbg !1793
  br i1 %cmp19, label %if.then20, label %if.end22, !dbg !1793

if.then20:                                        ; preds = %while.end
  %28 = load %struct._IO_FILE** @stderr, align 8, !dbg !1794
  %call21 = call i32 (%struct._IO_FILE*, i8*, ...)* @fprintf(%struct._IO_FILE* %28, i8* getelementptr inbounds ([69 x i8]* @.str14, i32 0, i32 0)), !dbg !1794
  store i8* null, i8** %retval, !dbg !1796
  br label %return, !dbg !1796

if.end22:                                         ; preds = %while.end
  %29 = load i8** %DecompressedData, align 8, !dbg !1797
  %30 = load i8** %FileData, align 8, !dbg !1797
  %31 = load i32* %inSize, align 4, !dbg !1797
  %32 = load i32* @_ZL9Verbosity, align 4, !dbg !1797
  %call23 = call i32 @BZ2_bzBuffToBuffDecompress(i8* %29, i32* %outSize, i8* %30, i32 %31, i32 0, i32 %32), !dbg !1797
  store i32 %call23, i32* %ret, align 4, !dbg !1797
  br label %while.cond24, !dbg !1798

while.cond24:                                     ; preds = %if.end37, %if.end22
  %33 = load i32* %ret, align 4, !dbg !1798
  %cmp25 = icmp eq i32 %33, -8, !dbg !1798
  br i1 %cmp25, label %while.body26, label %while.end39, !dbg !1798

while.body26:                                     ; preds = %while.cond24
  %34 = load %union.pthread_mutex_t** @_ZL8MemMutex, align 8, !dbg !1799
  %call27 = call i32 @pthread_mutex_lock(%union.pthread_mutex_t* %34) nounwind, !dbg !1799
  %35 = load i8** %DecompressedData, align 8, !dbg !1801
  %cmp28 = icmp ne i8* %35, null, !dbg !1801
  br i1 %cmp28, label %if.then29, label %if.end30, !dbg !1801

if.then29:                                        ; preds = %while.body26
  %36 = load i8** %DecompressedData, align 8, !dbg !1802
  %isnull = icmp eq i8* %36, null, !dbg !1802
  br i1 %isnull, label %delete.end, label %delete.notnull, !dbg !1802

delete.notnull:                                   ; preds = %if.then29
  call void @_ZdaPv(i8* %36) nounwind, !dbg !1802
  br label %delete.end, !dbg !1802

delete.end:                                       ; preds = %delete.notnull, %if.then29
  br label %if.end30, !dbg !1802

if.end30:                                         ; preds = %delete.end, %while.body26
  store i8* null, i8** %DecompressedData, align 8, !dbg !1803
  %37 = load i32* %outSize, align 4, !dbg !1804
  %mul31 = mul i32 %37, 4, !dbg !1804
  store i32 %mul31, i32* %outSize, align 4, !dbg !1804
  %38 = load i32* %outSize, align 4, !dbg !1805
  %39 = zext i32 %38 to i64, !dbg !1805
  %call32 = call noalias i8* @_Znam(i64 %39), !dbg !1805
  store i8* %call32, i8** %DecompressedData, align 8, !dbg !1805
  %40 = load %union.pthread_mutex_t** @_ZL8MemMutex, align 8, !dbg !1806
  %call33 = call i32 @pthread_mutex_unlock(%union.pthread_mutex_t* %40) nounwind, !dbg !1806
  %41 = load i8** %DecompressedData, align 8, !dbg !1807
  %cmp34 = icmp eq i8* %41, null, !dbg !1807
  br i1 %cmp34, label %if.then35, label %if.end37, !dbg !1807

if.then35:                                        ; preds = %if.end30
  %42 = load %struct._IO_FILE** @stderr, align 8, !dbg !1808
  %call36 = call i32 (%struct._IO_FILE*, i8*, ...)* @fprintf(%struct._IO_FILE* %42, i8* getelementptr inbounds ([69 x i8]* @.str14, i32 0, i32 0)), !dbg !1808
  store i8* null, i8** %retval, !dbg !1810
  br label %return, !dbg !1810

if.end37:                                         ; preds = %if.end30
  %43 = load i8** %DecompressedData, align 8, !dbg !1811
  %44 = load i8** %FileData, align 8, !dbg !1811
  %45 = load i32* %inSize, align 4, !dbg !1811
  %46 = load i32* @_ZL9Verbosity, align 4, !dbg !1811
  %call38 = call i32 @BZ2_bzBuffToBuffDecompress(i8* %43, i32* %outSize, i8* %44, i32 %45, i32 0, i32 %46), !dbg !1811
  store i32 %call38, i32* %ret, align 4, !dbg !1811
  br label %while.cond24, !dbg !1812

while.end39:                                      ; preds = %while.cond24
  %47 = load i32* %ret, align 4, !dbg !1813
  %cmp40 = icmp ne i32 %47, 0, !dbg !1813
  br i1 %cmp40, label %land.lhs.true, label %if.end44, !dbg !1813

land.lhs.true:                                    ; preds = %while.end39
  %48 = load i32* %ret, align 4, !dbg !1813
  %cmp41 = icmp ne i32 %48, -8, !dbg !1813
  br i1 %cmp41, label %if.then42, label %if.end44, !dbg !1813

if.then42:                                        ; preds = %land.lhs.true
  %49 = load %struct._IO_FILE** @stderr, align 8, !dbg !1814
  %50 = load i32* %ret, align 4, !dbg !1814
  %call43 = call i32 (%struct._IO_FILE*, i8*, ...)* @fprintf(%struct._IO_FILE* %49, i8* getelementptr inbounds ([34 x i8]* @.str15, i32 0, i32 0), i32 %50), !dbg !1814
  br label %if.end44, !dbg !1814

if.end44:                                         ; preds = %if.then42, %land.lhs.true, %while.end39
  %51 = load %union.pthread_mutex_t** @_ZL8OutMutex, align 8, !dbg !1815
  %call45 = call i32 @pthread_mutex_lock(%union.pthread_mutex_t* %51) nounwind, !dbg !1815
  %52 = load i8** %DecompressedData, align 8, !dbg !1816
  %53 = load i32* %blockNum, align 4, !dbg !1816
  %conv = sext i32 %53 to i64, !dbg !1816
  %call46 = call %struct.outBuff* @_ZNSt6vectorI7outBuffSaIS0_EEixEm(%"class.std::vector"* @_ZL12OutputBuffer, i64 %conv), !dbg !1816
  %buf = getelementptr inbounds %struct.outBuff* %call46, i32 0, i32 0, !dbg !1816
  store i8* %52, i8** %buf, align 8, !dbg !1816
  %54 = load i32* %outSize, align 4, !dbg !1817
  %55 = load i32* %blockNum, align 4, !dbg !1817
  %conv47 = sext i32 %55 to i64, !dbg !1817
  %call48 = call %struct.outBuff* @_ZNSt6vectorI7outBuffSaIS0_EEixEm(%"class.std::vector"* @_ZL12OutputBuffer, i64 %conv47), !dbg !1817
  %bufSize = getelementptr inbounds %struct.outBuff* %call48, i32 0, i32 1, !dbg !1817
  store i32 %54, i32* %bufSize, align 4, !dbg !1817
  %56 = load %union.pthread_mutex_t** @_ZL8OutMutex, align 8, !dbg !1818
  %call49 = call i32 @pthread_mutex_unlock(%union.pthread_mutex_t* %56) nounwind, !dbg !1818
  %57 = load i8** %FileData, align 8, !dbg !1819
  %cmp50 = icmp ne i8* %57, null, !dbg !1819
  br i1 %cmp50, label %if.then51, label %if.end57, !dbg !1819

if.then51:                                        ; preds = %if.end44
  %58 = load %union.pthread_mutex_t** @_ZL8MemMutex, align 8, !dbg !1820
  %call52 = call i32 @pthread_mutex_lock(%union.pthread_mutex_t* %58) nounwind, !dbg !1820
  %59 = load i8** %FileData, align 8, !dbg !1822
  %isnull53 = icmp eq i8* %59, null, !dbg !1822
  br i1 %isnull53, label %delete.end55, label %delete.notnull54, !dbg !1822

delete.notnull54:                                 ; preds = %if.then51
  call void @_ZdaPv(i8* %59) nounwind, !dbg !1822
  br label %delete.end55, !dbg !1822

delete.end55:                                     ; preds = %delete.notnull54, %if.then51
  store i8* null, i8** %FileData, align 8, !dbg !1823
  %60 = load %union.pthread_mutex_t** @_ZL8MemMutex, align 8, !dbg !1824
  %call56 = call i32 @pthread_mutex_unlock(%union.pthread_mutex_t* %60) nounwind, !dbg !1824
  br label %if.end57, !dbg !1825

if.end57:                                         ; preds = %delete.end55, %if.end44
  br label %for.cond, !dbg !1826

return:                                           ; preds = %if.then35, %if.then20, %if.then
  %61 = load i8** %retval, !dbg !1827
  ret i8* %61, !dbg !1827
}

declare i32 @gettimeofday(%struct.timeval*, %struct.timezone*) nounwind

declare i32 @pthread_cond_timedwait(%union.pthread_cond_t*, %union.pthread_mutex_t*, %struct.timespec*)

define i8* @_Z8queueDelP5queuePjPi(%struct.queue* %q, i32* %bufSize, i32* %blockNum) nounwind uwtable {
entry:
  %q.addr = alloca %struct.queue*, align 8
  %bufSize.addr = alloca i32*, align 8
  %blockNum.addr = alloca i32*, align 8
  %out = alloca i8*, align 8
  store %struct.queue* %q, %struct.queue** %q.addr, align 8
  call void @llvm.dbg.declare(metadata !{%struct.queue** %q.addr}, metadata !1828), !dbg !1829
  store i32* %bufSize, i32** %bufSize.addr, align 8
  call void @llvm.dbg.declare(metadata !{i32** %bufSize.addr}, metadata !1830), !dbg !1829
  store i32* %blockNum, i32** %blockNum.addr, align 8
  call void @llvm.dbg.declare(metadata !{i32** %blockNum.addr}, metadata !1831), !dbg !1829
  call void @llvm.dbg.declare(metadata !{i8** %out}, metadata !1832), !dbg !1834
  %0 = load %struct.queue** %q.addr, align 8, !dbg !1835
  %head = getelementptr inbounds %struct.queue* %0, i32 0, i32 3, !dbg !1835
  %1 = load i64* %head, align 8, !dbg !1835
  %2 = load %struct.queue** %q.addr, align 8, !dbg !1835
  %buf = getelementptr inbounds %struct.queue* %2, i32 0, i32 0, !dbg !1835
  %3 = load i8*** %buf, align 8, !dbg !1835
  %arrayidx = getelementptr inbounds i8** %3, i64 %1, !dbg !1835
  %4 = load i8** %arrayidx, align 8, !dbg !1835
  store i8* %4, i8** %out, align 8, !dbg !1835
  %5 = load %struct.queue** %q.addr, align 8, !dbg !1836
  %head1 = getelementptr inbounds %struct.queue* %5, i32 0, i32 3, !dbg !1836
  %6 = load i64* %head1, align 8, !dbg !1836
  %7 = load %struct.queue** %q.addr, align 8, !dbg !1836
  %bufSize2 = getelementptr inbounds %struct.queue* %7, i32 0, i32 1, !dbg !1836
  %8 = load i32** %bufSize2, align 8, !dbg !1836
  %arrayidx3 = getelementptr inbounds i32* %8, i64 %6, !dbg !1836
  %9 = load i32* %arrayidx3, align 4, !dbg !1836
  %10 = load i32** %bufSize.addr, align 8, !dbg !1836
  store i32 %9, i32* %10, align 4, !dbg !1836
  %11 = load %struct.queue** %q.addr, align 8, !dbg !1837
  %head4 = getelementptr inbounds %struct.queue* %11, i32 0, i32 3, !dbg !1837
  %12 = load i64* %head4, align 8, !dbg !1837
  %13 = load %struct.queue** %q.addr, align 8, !dbg !1837
  %blockNum5 = getelementptr inbounds %struct.queue* %13, i32 0, i32 2, !dbg !1837
  %14 = load i32** %blockNum5, align 8, !dbg !1837
  %arrayidx6 = getelementptr inbounds i32* %14, i64 %12, !dbg !1837
  %15 = load i32* %arrayidx6, align 4, !dbg !1837
  %16 = load i32** %blockNum.addr, align 8, !dbg !1837
  store i32 %15, i32* %16, align 4, !dbg !1837
  %17 = load %struct.queue** %q.addr, align 8, !dbg !1838
  %head7 = getelementptr inbounds %struct.queue* %17, i32 0, i32 3, !dbg !1838
  %18 = load i64* %head7, align 8, !dbg !1838
  %inc = add nsw i64 %18, 1, !dbg !1838
  store i64 %inc, i64* %head7, align 8, !dbg !1838
  %19 = load %struct.queue** %q.addr, align 8, !dbg !1839
  %head8 = getelementptr inbounds %struct.queue* %19, i32 0, i32 3, !dbg !1839
  %20 = load i64* %head8, align 8, !dbg !1839
  %21 = load i32* @_ZL9QUEUESIZE, align 4, !dbg !1839
  %conv = sext i32 %21 to i64, !dbg !1839
  %cmp = icmp eq i64 %20, %conv, !dbg !1839
  br i1 %cmp, label %if.then, label %if.end, !dbg !1839

if.then:                                          ; preds = %entry
  %22 = load %struct.queue** %q.addr, align 8, !dbg !1840
  %head9 = getelementptr inbounds %struct.queue* %22, i32 0, i32 3, !dbg !1840
  store i64 0, i64* %head9, align 8, !dbg !1840
  br label %if.end, !dbg !1840

if.end:                                           ; preds = %if.then, %entry
  %23 = load %struct.queue** %q.addr, align 8, !dbg !1841
  %head10 = getelementptr inbounds %struct.queue* %23, i32 0, i32 3, !dbg !1841
  %24 = load i64* %head10, align 8, !dbg !1841
  %25 = load %struct.queue** %q.addr, align 8, !dbg !1841
  %tail = getelementptr inbounds %struct.queue* %25, i32 0, i32 4, !dbg !1841
  %26 = load i64* %tail, align 8, !dbg !1841
  %cmp11 = icmp eq i64 %24, %26, !dbg !1841
  br i1 %cmp11, label %if.then12, label %if.end13, !dbg !1841

if.then12:                                        ; preds = %if.end
  %27 = load %struct.queue** %q.addr, align 8, !dbg !1842
  %empty = getelementptr inbounds %struct.queue* %27, i32 0, i32 6, !dbg !1842
  store i32 1, i32* %empty, align 4, !dbg !1842
  br label %if.end13, !dbg !1842

if.end13:                                         ; preds = %if.then12, %if.end
  %28 = load %struct.queue** %q.addr, align 8, !dbg !1843
  %full = getelementptr inbounds %struct.queue* %28, i32 0, i32 5, !dbg !1843
  store i32 0, i32* %full, align 4, !dbg !1843
  %29 = load i8** %out, align 8, !dbg !1844
  ret i8* %29, !dbg !1844
}

declare i32 @BZ2_bzBuffToBuffDecompress(i8*, i32*, i8*, i32, i32, i32)

define linkonce_odr %struct.outBuff* @_ZNSt6vectorI7outBuffSaIS0_EEixEm(%"class.std::vector"* %this, i64 %__n) nounwind uwtable align 2 {
entry:
  %this.addr = alloca %"class.std::vector"*, align 8
  %__n.addr = alloca i64, align 8
  store %"class.std::vector"* %this, %"class.std::vector"** %this.addr, align 8
  call void @llvm.dbg.declare(metadata !{%"class.std::vector"** %this.addr}, metadata !1845), !dbg !1846
  store i64 %__n, i64* %__n.addr, align 8
  call void @llvm.dbg.declare(metadata !{i64* %__n.addr}, metadata !1847), !dbg !1846
  %this1 = load %"class.std::vector"** %this.addr
  %0 = bitcast %"class.std::vector"* %this1 to %"struct.std::_Vector_base"*, !dbg !1848
  %_M_impl = getelementptr inbounds %"struct.std::_Vector_base"* %0, i32 0, i32 0, !dbg !1848
  %_M_start = getelementptr inbounds %"struct.std::_Vector_base<outBuff, std::allocator<outBuff> >::_Vector_impl"* %_M_impl, i32 0, i32 0, !dbg !1848
  %1 = load %struct.outBuff** %_M_start, align 8, !dbg !1848
  %2 = load i64* %__n.addr, align 8, !dbg !1848
  %add.ptr = getelementptr inbounds %struct.outBuff* %1, i64 %2, !dbg !1848
  ret %struct.outBuff* %add.ptr, !dbg !1848
}

define i8* @_Z10fileWriterPv(i8* %outname) uwtable {
entry:
  %retval = alloca i8*, align 8
  %outname.addr = alloca i8*, align 8
  %OutFilename = alloca i8*, align 8
  %CompressedSize = alloca i64, align 8
  %percentComplete = alloca i32, align 4
  %hOutfile = alloca i32, align 4
  %currBlock = alloca i32, align 4
  %ret = alloca i32, align 4
  store i8* %outname, i8** %outname.addr, align 8
  call void @llvm.dbg.declare(metadata !{i8** %outname.addr}, metadata !1850), !dbg !1851
  call void @llvm.dbg.declare(metadata !{i8** %OutFilename}, metadata !1852), !dbg !1854
  call void @llvm.dbg.declare(metadata !{i64* %CompressedSize}, metadata !1855), !dbg !1856
  store i64 0, i64* %CompressedSize, align 8, !dbg !1856
  call void @llvm.dbg.declare(metadata !{i32* %percentComplete}, metadata !1857), !dbg !1858
  store i32 0, i32* %percentComplete, align 4, !dbg !1858
  call void @llvm.dbg.declare(metadata !{i32* %hOutfile}, metadata !1859), !dbg !1860
  store i32 1, i32* %hOutfile, align 4, !dbg !1860
  call void @llvm.dbg.declare(metadata !{i32* %currBlock}, metadata !1861), !dbg !1862
  store i32 0, i32* %currBlock, align 4, !dbg !1862
  call void @llvm.dbg.declare(metadata !{i32* %ret}, metadata !1863), !dbg !1864
  store i32 -1, i32* %ret, align 4, !dbg !1864
  %0 = load i8** %outname.addr, align 8, !dbg !1865
  store i8* %0, i8** %OutFilename, align 8, !dbg !1865
  %1 = load i32* @_ZL12OutputStdOut, align 4, !dbg !1866
  %cmp = icmp eq i32 %1, 0, !dbg !1866
  br i1 %cmp, label %if.then, label %if.end4, !dbg !1866

if.then:                                          ; preds = %entry
  %2 = load i8** %OutFilename, align 8, !dbg !1867
  %call = call i32 (i8*, i32, ...)* @open64(i8* %2, i32 578, i32 420), !dbg !1867
  store i32 %call, i32* %hOutfile, align 4, !dbg !1867
  %3 = load i32* %hOutfile, align 4, !dbg !1869
  %cmp1 = icmp eq i32 %3, -1, !dbg !1869
  br i1 %cmp1, label %if.then2, label %if.end, !dbg !1869

if.then2:                                         ; preds = %if.then
  %4 = load %struct._IO_FILE** @stderr, align 8, !dbg !1870
  %5 = load i8** %OutFilename, align 8, !dbg !1870
  %call3 = call i32 (%struct._IO_FILE*, i8*, ...)* @fprintf(%struct._IO_FILE* %4, i8* getelementptr inbounds ([45 x i8]* @.str16, i32 0, i32 0), i8* %5), !dbg !1870
  store i8* null, i8** %retval, !dbg !1872
  br label %return, !dbg !1872

if.end:                                           ; preds = %if.then
  br label %if.end4, !dbg !1873

if.end4:                                          ; preds = %if.end, %entry
  br label %while.cond, !dbg !1874

while.cond:                                       ; preds = %if.end65, %if.then15, %if.end4
  %6 = load i32* %currBlock, align 4, !dbg !1874
  %7 = load i32* @_ZL9NumBlocks, align 4, !dbg !1874
  %cmp5 = icmp slt i32 %6, %7, !dbg !1874
  br i1 %cmp5, label %lor.end, label %lor.rhs, !dbg !1874

lor.rhs:                                          ; preds = %while.cond
  %8 = load i32* @_ZL7allDone, align 4, !dbg !1874
  %cmp6 = icmp eq i32 %8, 0, !dbg !1874
  br label %lor.end, !dbg !1874

lor.end:                                          ; preds = %lor.rhs, %while.cond
  %9 = phi i1 [ true, %while.cond ], [ %cmp6, %lor.rhs ]
  br i1 %9, label %while.body, label %while.end, !dbg !1874

while.body:                                       ; preds = %lor.end
  %call7 = call i64 @_ZNKSt6vectorI7outBuffSaIS0_EE4sizeEv(%"class.std::vector"* @_ZL12OutputBuffer), !dbg !1875
  %cmp8 = icmp eq i64 %call7, 0, !dbg !1875
  br i1 %cmp8, label %if.then15, label %lor.lhs.false, !dbg !1875

lor.lhs.false:                                    ; preds = %while.body
  %10 = load i32* %currBlock, align 4, !dbg !1875
  %conv = sext i32 %10 to i64, !dbg !1875
  %call9 = call %struct.outBuff* @_ZNSt6vectorI7outBuffSaIS0_EEixEm(%"class.std::vector"* @_ZL12OutputBuffer, i64 %conv), !dbg !1875
  %bufSize = getelementptr inbounds %struct.outBuff* %call9, i32 0, i32 1, !dbg !1875
  %11 = load i32* %bufSize, align 4, !dbg !1875
  %cmp10 = icmp ult i32 %11, 1, !dbg !1875
  br i1 %cmp10, label %if.then15, label %lor.lhs.false11, !dbg !1875

lor.lhs.false11:                                  ; preds = %lor.lhs.false
  %12 = load i32* %currBlock, align 4, !dbg !1875
  %conv12 = sext i32 %12 to i64, !dbg !1875
  %call13 = call %struct.outBuff* @_ZNSt6vectorI7outBuffSaIS0_EEixEm(%"class.std::vector"* @_ZL12OutputBuffer, i64 %conv12), !dbg !1875
  %buf = getelementptr inbounds %struct.outBuff* %call13, i32 0, i32 0, !dbg !1875
  %13 = load i8** %buf, align 8, !dbg !1875
  %cmp14 = icmp eq i8* %13, null, !dbg !1875
  br i1 %cmp14, label %if.then15, label %if.end17, !dbg !1875

if.then15:                                        ; preds = %lor.lhs.false11, %lor.lhs.false, %while.body
  %call16 = call i32 @usleep(i32 50000), !dbg !1877
  br label %while.cond, !dbg !1879

if.end17:                                         ; preds = %lor.lhs.false11
  %14 = load i32* %hOutfile, align 4, !dbg !1880
  %15 = load i32* %currBlock, align 4, !dbg !1880
  %conv18 = sext i32 %15 to i64, !dbg !1880
  %call19 = call %struct.outBuff* @_ZNSt6vectorI7outBuffSaIS0_EEixEm(%"class.std::vector"* @_ZL12OutputBuffer, i64 %conv18), !dbg !1880
  %buf20 = getelementptr inbounds %struct.outBuff* %call19, i32 0, i32 0, !dbg !1880
  %16 = load i8** %buf20, align 8, !dbg !1880
  %17 = load i32* %currBlock, align 4, !dbg !1880
  %conv21 = sext i32 %17 to i64, !dbg !1880
  %call22 = call %struct.outBuff* @_ZNSt6vectorI7outBuffSaIS0_EEixEm(%"class.std::vector"* @_ZL12OutputBuffer, i64 %conv21), !dbg !1880
  %bufSize23 = getelementptr inbounds %struct.outBuff* %call22, i32 0, i32 1, !dbg !1880
  %18 = load i32* %bufSize23, align 4, !dbg !1880
  %conv24 = zext i32 %18 to i64, !dbg !1880
  %call25 = call i64 @write(i32 %14, i8* %16, i64 %conv24), !dbg !1880
  %conv26 = trunc i64 %call25 to i32, !dbg !1880
  store i32 %conv26, i32* %ret, align 4, !dbg !1880
  %19 = load i32* %ret, align 4, !dbg !1881
  %conv27 = sext i32 %19 to i64, !dbg !1881
  %20 = load i64* %CompressedSize, align 8, !dbg !1881
  %add = add nsw i64 %20, %conv27, !dbg !1881
  store i64 %add, i64* %CompressedSize, align 8, !dbg !1881
  %21 = load i32* %ret, align 4, !dbg !1882
  %cmp28 = icmp sle i32 %21, 0, !dbg !1882
  br i1 %cmp28, label %if.then29, label %if.end46, !dbg !1882

if.then29:                                        ; preds = %if.end17
  %22 = load %struct._IO_FILE** @stderr, align 8, !dbg !1883
  %call30 = call i32 (%struct._IO_FILE*, i8*, ...)* @fprintf(%struct._IO_FILE* %22, i8* getelementptr inbounds ([48 x i8]* @.str17, i32 0, i32 0)), !dbg !1883
  %23 = load i32* @_ZL12OutputStdOut, align 4, !dbg !1885
  %cmp31 = icmp eq i32 %23, 0, !dbg !1885
  br i1 %cmp31, label %if.then32, label %if.end34, !dbg !1885

if.then32:                                        ; preds = %if.then29
  %24 = load i32* %hOutfile, align 4, !dbg !1886
  %call33 = call i32 @close(i32 %24), !dbg !1886
  br label %if.end34, !dbg !1886

if.end34:                                         ; preds = %if.then32, %if.then29
  %25 = load %union.pthread_mutex_t** @_ZL8MemMutex, align 8, !dbg !1887
  %call35 = call i32 @pthread_mutex_lock(%union.pthread_mutex_t* %25) nounwind, !dbg !1887
  %26 = load i32* %currBlock, align 4, !dbg !1888
  %conv36 = sext i32 %26 to i64, !dbg !1888
  %call37 = call %struct.outBuff* @_ZNSt6vectorI7outBuffSaIS0_EEixEm(%"class.std::vector"* @_ZL12OutputBuffer, i64 %conv36), !dbg !1888
  %buf38 = getelementptr inbounds %struct.outBuff* %call37, i32 0, i32 0, !dbg !1888
  %27 = load i8** %buf38, align 8, !dbg !1888
  %cmp39 = icmp ne i8* %27, null, !dbg !1888
  br i1 %cmp39, label %if.then40, label %if.end44, !dbg !1888

if.then40:                                        ; preds = %if.end34
  %28 = load i32* %currBlock, align 4, !dbg !1889
  %conv41 = sext i32 %28 to i64, !dbg !1889
  %call42 = call %struct.outBuff* @_ZNSt6vectorI7outBuffSaIS0_EEixEm(%"class.std::vector"* @_ZL12OutputBuffer, i64 %conv41), !dbg !1889
  %buf43 = getelementptr inbounds %struct.outBuff* %call42, i32 0, i32 0, !dbg !1889
  %29 = load i8** %buf43, align 8, !dbg !1889
  %isnull = icmp eq i8* %29, null, !dbg !1889
  br i1 %isnull, label %delete.end, label %delete.notnull, !dbg !1889

delete.notnull:                                   ; preds = %if.then40
  call void @_ZdaPv(i8* %29) nounwind, !dbg !1889
  br label %delete.end, !dbg !1889

delete.end:                                       ; preds = %delete.notnull, %if.then40
  br label %if.end44, !dbg !1889

if.end44:                                         ; preds = %delete.end, %if.end34
  %30 = load %union.pthread_mutex_t** @_ZL8MemMutex, align 8, !dbg !1890
  %call45 = call i32 @pthread_mutex_unlock(%union.pthread_mutex_t* %30) nounwind, !dbg !1890
  store i8* null, i8** %retval, !dbg !1891
  br label %return, !dbg !1891

if.end46:                                         ; preds = %if.end17
  %31 = load %union.pthread_mutex_t** @_ZL8MemMutex, align 8, !dbg !1892
  %call47 = call i32 @pthread_mutex_lock(%union.pthread_mutex_t* %31) nounwind, !dbg !1892
  %32 = load i32* %currBlock, align 4, !dbg !1893
  %conv48 = sext i32 %32 to i64, !dbg !1893
  %call49 = call %struct.outBuff* @_ZNSt6vectorI7outBuffSaIS0_EEixEm(%"class.std::vector"* @_ZL12OutputBuffer, i64 %conv48), !dbg !1893
  %buf50 = getelementptr inbounds %struct.outBuff* %call49, i32 0, i32 0, !dbg !1893
  %33 = load i8** %buf50, align 8, !dbg !1893
  %cmp51 = icmp ne i8* %33, null, !dbg !1893
  br i1 %cmp51, label %if.then52, label %if.end59, !dbg !1893

if.then52:                                        ; preds = %if.end46
  %34 = load i32* %currBlock, align 4, !dbg !1894
  %conv53 = sext i32 %34 to i64, !dbg !1894
  %call54 = call %struct.outBuff* @_ZNSt6vectorI7outBuffSaIS0_EEixEm(%"class.std::vector"* @_ZL12OutputBuffer, i64 %conv53), !dbg !1894
  %buf55 = getelementptr inbounds %struct.outBuff* %call54, i32 0, i32 0, !dbg !1894
  %35 = load i8** %buf55, align 8, !dbg !1894
  %isnull56 = icmp eq i8* %35, null, !dbg !1894
  br i1 %isnull56, label %delete.end58, label %delete.notnull57, !dbg !1894

delete.notnull57:                                 ; preds = %if.then52
  call void @_ZdaPv(i8* %35) nounwind, !dbg !1894
  br label %delete.end58, !dbg !1894

delete.end58:                                     ; preds = %delete.notnull57, %if.then52
  br label %if.end59, !dbg !1894

if.end59:                                         ; preds = %delete.end58, %if.end46
  %36 = load %union.pthread_mutex_t** @_ZL8MemMutex, align 8, !dbg !1895
  %call60 = call i32 @pthread_mutex_unlock(%union.pthread_mutex_t* %36) nounwind, !dbg !1895
  %37 = load i32* %currBlock, align 4, !dbg !1896
  %inc = add nsw i32 %37, 1, !dbg !1896
  store i32 %inc, i32* %currBlock, align 4, !dbg !1896
  %38 = load i32* %currBlock, align 4, !dbg !1897
  %mul = mul nsw i32 100, %38, !dbg !1897
  %39 = load i32* @_ZL9NumBlocks, align 4, !dbg !1897
  %div = sdiv i32 %mul, %39, !dbg !1897
  store i32 %div, i32* %percentComplete, align 4, !dbg !1897
  %40 = load i32* @_ZL9QuietMode, align 4, !dbg !1898
  %cmp61 = icmp ne i32 %40, 1, !dbg !1898
  br i1 %cmp61, label %if.then62, label %if.end65, !dbg !1898

if.then62:                                        ; preds = %if.end59
  %41 = load %struct._IO_FILE** @stderr, align 8, !dbg !1899
  %42 = load i32* %percentComplete, align 4, !dbg !1899
  %call63 = call i32 (%struct._IO_FILE*, i8*, ...)* @fprintf(%struct._IO_FILE* %41, i8* getelementptr inbounds ([30 x i8]* @.str18, i32 0, i32 0), i32 %42), !dbg !1899
  %43 = load %struct._IO_FILE** @stderr, align 8, !dbg !1901
  %call64 = call i32 @fflush(%struct._IO_FILE* %43), !dbg !1901
  br label %if.end65, !dbg !1902

if.end65:                                         ; preds = %if.then62, %if.end59
  br label %while.cond, !dbg !1903

while.end:                                        ; preds = %lor.end
  %44 = load i32* @_ZL12OutputStdOut, align 4, !dbg !1904
  %cmp66 = icmp eq i32 %44, 0, !dbg !1904
  br i1 %cmp66, label %if.then67, label %if.end69, !dbg !1904

if.then67:                                        ; preds = %while.end
  %45 = load i32* %hOutfile, align 4, !dbg !1905
  %call68 = call i32 @close(i32 %45), !dbg !1905
  br label %if.end69, !dbg !1905

if.end69:                                         ; preds = %if.then67, %while.end
  %46 = load i32* @_ZL9QuietMode, align 4, !dbg !1906
  %cmp70 = icmp ne i32 %46, 1, !dbg !1906
  br i1 %cmp70, label %if.then71, label %if.end73, !dbg !1906

if.then71:                                        ; preds = %if.end69
  %47 = load %struct._IO_FILE** @stderr, align 8, !dbg !1907
  %48 = load i64* %CompressedSize, align 8, !dbg !1907
  %call72 = call i32 (%struct._IO_FILE*, i8*, ...)* @fprintf(%struct._IO_FILE* %47, i8* getelementptr inbounds ([29 x i8]* @.str19, i32 0, i32 0), i64 %48), !dbg !1907
  br label %if.end73, !dbg !1909

if.end73:                                         ; preds = %if.then71, %if.end69
  store i8* null, i8** %retval, !dbg !1910
  br label %return, !dbg !1910

return:                                           ; preds = %if.end73, %if.end44, %if.then2
  %49 = load i8** %retval, !dbg !1911
  ret i8* %49, !dbg !1911
}

declare i32 @open64(i8*, i32, ...)

define linkonce_odr i64 @_ZNKSt6vectorI7outBuffSaIS0_EE4sizeEv(%"class.std::vector"* %this) nounwind uwtable align 2 {
entry:
  %this.addr = alloca %"class.std::vector"*, align 8
  store %"class.std::vector"* %this, %"class.std::vector"** %this.addr, align 8
  call void @llvm.dbg.declare(metadata !{%"class.std::vector"** %this.addr}, metadata !1912), !dbg !1914
  %this1 = load %"class.std::vector"** %this.addr
  %0 = bitcast %"class.std::vector"* %this1 to %"struct.std::_Vector_base"*, !dbg !1915
  %_M_impl = getelementptr inbounds %"struct.std::_Vector_base"* %0, i32 0, i32 0, !dbg !1915
  %_M_finish = getelementptr inbounds %"struct.std::_Vector_base<outBuff, std::allocator<outBuff> >::_Vector_impl"* %_M_impl, i32 0, i32 1, !dbg !1915
  %1 = load %struct.outBuff** %_M_finish, align 8, !dbg !1915
  %2 = bitcast %"class.std::vector"* %this1 to %"struct.std::_Vector_base"*, !dbg !1915
  %_M_impl2 = getelementptr inbounds %"struct.std::_Vector_base"* %2, i32 0, i32 0, !dbg !1915
  %_M_start = getelementptr inbounds %"struct.std::_Vector_base<outBuff, std::allocator<outBuff> >::_Vector_impl"* %_M_impl2, i32 0, i32 0, !dbg !1915
  %3 = load %struct.outBuff** %_M_start, align 8, !dbg !1915
  %sub.ptr.lhs.cast = ptrtoint %struct.outBuff* %1 to i64, !dbg !1915
  %sub.ptr.rhs.cast = ptrtoint %struct.outBuff* %3 to i64, !dbg !1915
  %sub.ptr.sub = sub i64 %sub.ptr.lhs.cast, %sub.ptr.rhs.cast, !dbg !1915
  %sub.ptr.div = sdiv exact i64 %sub.ptr.sub, 16, !dbg !1915
  ret i64 %sub.ptr.div, !dbg !1915
}

declare i32 @usleep(i32)

declare i64 @write(i32, i8*, i64)

declare i32 @fflush(%struct._IO_FILE*)

define i32 @_Z8produceriliP5queue(i32 %hInfile, i64 %fileSize, i32 %blockSize, %struct.queue* %fifo) uwtable {
entry:
  %retval = alloca i32, align 4
  %hInfile.addr = alloca i32, align 4
  %fileSize.addr = alloca i64, align 8
  %blockSize.addr = alloca i32, align 4
  %fifo.addr = alloca %struct.queue*, align 8
  %FileData = alloca i8*, align 8
  %bytesLeft = alloca i64, align 8
  %inSize = alloca i64, align 8
  %blockNum = alloca i32, align 4
  %ret = alloca i32, align 4
  %pret = alloca i32, align 4
  store i32 %hInfile, i32* %hInfile.addr, align 4
  call void @llvm.dbg.declare(metadata !{i32* %hInfile.addr}, metadata !1917), !dbg !1918
  store i64 %fileSize, i64* %fileSize.addr, align 8
  call void @llvm.dbg.declare(metadata !{i64* %fileSize.addr}, metadata !1919), !dbg !1918
  store i32 %blockSize, i32* %blockSize.addr, align 4
  call void @llvm.dbg.declare(metadata !{i32* %blockSize.addr}, metadata !1920), !dbg !1918
  store %struct.queue* %fifo, %struct.queue** %fifo.addr, align 8
  call void @llvm.dbg.declare(metadata !{%struct.queue** %fifo.addr}, metadata !1921), !dbg !1918
  call void @llvm.dbg.declare(metadata !{i8** %FileData}, metadata !1922), !dbg !1924
  store i8* null, i8** %FileData, align 8, !dbg !1924
  call void @llvm.dbg.declare(metadata !{i64* %bytesLeft}, metadata !1925), !dbg !1926
  store i64 0, i64* %bytesLeft, align 8, !dbg !1926
  call void @llvm.dbg.declare(metadata !{i64* %inSize}, metadata !1927), !dbg !1928
  store i64 0, i64* %inSize, align 8, !dbg !1928
  call void @llvm.dbg.declare(metadata !{i32* %blockNum}, metadata !1929), !dbg !1930
  store i32 0, i32* %blockNum, align 4, !dbg !1930
  call void @llvm.dbg.declare(metadata !{i32* %ret}, metadata !1931), !dbg !1932
  store i32 0, i32* %ret, align 4, !dbg !1932
  call void @llvm.dbg.declare(metadata !{i32* %pret}, metadata !1933), !dbg !1934
  store i32 -1, i32* %pret, align 4, !dbg !1934
  %0 = load i64* %fileSize.addr, align 8, !dbg !1935
  store i64 %0, i64* %bytesLeft, align 8, !dbg !1935
  br label %while.cond, !dbg !1936

while.cond:                                       ; preds = %while.end, %entry
  %1 = load i64* %bytesLeft, align 8, !dbg !1936
  %cmp = icmp sgt i64 %1, 0, !dbg !1936
  br i1 %cmp, label %while.body, label %while.end53, !dbg !1936

while.body:                                       ; preds = %while.cond
  %2 = load i64* %bytesLeft, align 8, !dbg !1937
  %3 = load i32* %blockSize.addr, align 4, !dbg !1937
  %conv = sext i32 %3 to i64, !dbg !1937
  %cmp1 = icmp sgt i64 %2, %conv, !dbg !1937
  br i1 %cmp1, label %if.then, label %if.else, !dbg !1937

if.then:                                          ; preds = %while.body
  %4 = load i32* %blockSize.addr, align 4, !dbg !1939
  %conv2 = sext i32 %4 to i64, !dbg !1939
  store i64 %conv2, i64* %inSize, align 8, !dbg !1939
  br label %if.end, !dbg !1939

if.else:                                          ; preds = %while.body
  %5 = load i64* %bytesLeft, align 8, !dbg !1940
  store i64 %5, i64* %inSize, align 8, !dbg !1940
  br label %if.end

if.end:                                           ; preds = %if.else, %if.then
  %6 = load %union.pthread_mutex_t** @_ZL8MemMutex, align 8, !dbg !1941
  %call = call i32 @pthread_mutex_lock(%union.pthread_mutex_t* %6) nounwind, !dbg !1941
  store i8* null, i8** %FileData, align 8, !dbg !1942
  %7 = load i64* %inSize, align 8, !dbg !1943
  %8 = icmp slt i64 %7, 0, !dbg !1943
  %9 = select i1 %8, i64 -1, i64 %7, !dbg !1943
  %call3 = call noalias i8* @_Znam(i64 %9), !dbg !1943
  store i8* %call3, i8** %FileData, align 8, !dbg !1943
  %10 = load %union.pthread_mutex_t** @_ZL8MemMutex, align 8, !dbg !1944
  %call4 = call i32 @pthread_mutex_unlock(%union.pthread_mutex_t* %10) nounwind, !dbg !1944
  %11 = load i8** %FileData, align 8, !dbg !1945
  %cmp5 = icmp eq i8* %11, null, !dbg !1945
  br i1 %cmp5, label %if.then6, label %if.end9, !dbg !1945

if.then6:                                         ; preds = %if.end
  %12 = load %struct._IO_FILE** @stderr, align 8, !dbg !1946
  %call7 = call i32 (%struct._IO_FILE*, i8*, ...)* @fprintf(%struct._IO_FILE* %12, i8* getelementptr inbounds ([61 x i8]* @.str6, i32 0, i32 0)), !dbg !1946
  %13 = load i32* %hInfile.addr, align 4, !dbg !1948
  %call8 = call i32 @close(i32 %13), !dbg !1948
  store i32 1, i32* @_ZL7allDone, align 4, !dbg !1949
  store i32 -1, i32* %retval, !dbg !1950
  br label %return, !dbg !1950

if.end9:                                          ; preds = %if.end
  %14 = load i32* %hInfile.addr, align 4, !dbg !1951
  %15 = load i8** %FileData, align 8, !dbg !1951
  %16 = load i64* %inSize, align 8, !dbg !1951
  %call10 = call i64 @read(i32 %14, i8* %15, i64 %16), !dbg !1951
  %conv11 = trunc i64 %call10 to i32, !dbg !1951
  store i32 %conv11, i32* %ret, align 4, !dbg !1951
  %17 = load i32* %ret, align 4, !dbg !1952
  %cmp12 = icmp eq i32 %17, 0, !dbg !1952
  br i1 %cmp12, label %if.then13, label %if.else19, !dbg !1952

if.then13:                                        ; preds = %if.end9
  %18 = load %union.pthread_mutex_t** @_ZL8MemMutex, align 8, !dbg !1953
  %call14 = call i32 @pthread_mutex_lock(%union.pthread_mutex_t* %18) nounwind, !dbg !1953
  %19 = load i8** %FileData, align 8, !dbg !1955
  %cmp15 = icmp ne i8* %19, null, !dbg !1955
  br i1 %cmp15, label %if.then16, label %if.end17, !dbg !1955

if.then16:                                        ; preds = %if.then13
  %20 = load i8** %FileData, align 8, !dbg !1956
  %isnull = icmp eq i8* %20, null, !dbg !1956
  br i1 %isnull, label %delete.end, label %delete.notnull, !dbg !1956

delete.notnull:                                   ; preds = %if.then16
  call void @_ZdaPv(i8* %20) nounwind, !dbg !1956
  br label %delete.end, !dbg !1956

delete.end:                                       ; preds = %delete.notnull, %if.then16
  br label %if.end17, !dbg !1956

if.end17:                                         ; preds = %delete.end, %if.then13
  %21 = load %union.pthread_mutex_t** @_ZL8MemMutex, align 8, !dbg !1957
  %call18 = call i32 @pthread_mutex_unlock(%union.pthread_mutex_t* %21) nounwind, !dbg !1957
  br label %while.end53, !dbg !1958

if.else19:                                        ; preds = %if.end9
  %22 = load i32* %ret, align 4, !dbg !1959
  %cmp20 = icmp slt i32 %22, 0, !dbg !1959
  br i1 %cmp20, label %if.then21, label %if.end32, !dbg !1959

if.then21:                                        ; preds = %if.else19
  %23 = load %struct._IO_FILE** @stderr, align 8, !dbg !1960
  %call22 = call i32 (%struct._IO_FILE*, i8*, ...)* @fprintf(%struct._IO_FILE* %23, i8* getelementptr inbounds ([49 x i8]* @.str10, i32 0, i32 0)), !dbg !1960
  %24 = load i32* %hInfile.addr, align 4, !dbg !1962
  %call23 = call i32 @close(i32 %24), !dbg !1962
  %25 = load %union.pthread_mutex_t** @_ZL8MemMutex, align 8, !dbg !1963
  %call24 = call i32 @pthread_mutex_lock(%union.pthread_mutex_t* %25) nounwind, !dbg !1963
  %26 = load i8** %FileData, align 8, !dbg !1964
  %cmp25 = icmp ne i8* %26, null, !dbg !1964
  br i1 %cmp25, label %if.then26, label %if.end30, !dbg !1964

if.then26:                                        ; preds = %if.then21
  %27 = load i8** %FileData, align 8, !dbg !1965
  %isnull27 = icmp eq i8* %27, null, !dbg !1965
  br i1 %isnull27, label %delete.end29, label %delete.notnull28, !dbg !1965

delete.notnull28:                                 ; preds = %if.then26
  call void @_ZdaPv(i8* %27) nounwind, !dbg !1965
  br label %delete.end29, !dbg !1965

delete.end29:                                     ; preds = %delete.notnull28, %if.then26
  br label %if.end30, !dbg !1965

if.end30:                                         ; preds = %delete.end29, %if.then21
  %28 = load %union.pthread_mutex_t** @_ZL8MemMutex, align 8, !dbg !1966
  %call31 = call i32 @pthread_mutex_unlock(%union.pthread_mutex_t* %28) nounwind, !dbg !1966
  store i32 1, i32* @_ZL7allDone, align 4, !dbg !1967
  store i32 -1, i32* %retval, !dbg !1968
  br label %return, !dbg !1968

if.end32:                                         ; preds = %if.else19
  br label %if.end33

if.end33:                                         ; preds = %if.end32
  %29 = load i32* %ret, align 4, !dbg !1969
  %conv34 = sext i32 %29 to i64, !dbg !1969
  %30 = load i64* %bytesLeft, align 8, !dbg !1969
  %sub = sub nsw i64 %30, %conv34, !dbg !1969
  store i64 %sub, i64* %bytesLeft, align 8, !dbg !1969
  %31 = load i32* %ret, align 4, !dbg !1970
  %conv35 = sext i32 %31 to i64, !dbg !1970
  %32 = load i64* %inSize, align 8, !dbg !1970
  %cmp36 = icmp ne i64 %conv35, %32, !dbg !1970
  br i1 %cmp36, label %if.then37, label %if.end39, !dbg !1970

if.then37:                                        ; preds = %if.end33
  %33 = load i32* %ret, align 4, !dbg !1971
  %conv38 = sext i32 %33 to i64, !dbg !1971
  store i64 %conv38, i64* %inSize, align 8, !dbg !1971
  br label %if.end39, !dbg !1971

if.end39:                                         ; preds = %if.then37, %if.end33
  %34 = load %struct.queue** %fifo.addr, align 8, !dbg !1972
  %mut = getelementptr inbounds %struct.queue* %34, i32 0, i32 7, !dbg !1972
  %35 = load %union.pthread_mutex_t** %mut, align 8, !dbg !1972
  %call40 = call i32 @pthread_mutex_lock(%union.pthread_mutex_t* %35) nounwind, !dbg !1972
  br label %while.cond41, !dbg !1973

while.cond41:                                     ; preds = %if.end48, %if.end39
  %36 = load %struct.queue** %fifo.addr, align 8, !dbg !1973
  %full = getelementptr inbounds %struct.queue* %36, i32 0, i32 5, !dbg !1973
  %37 = load i32* %full, align 4, !dbg !1973
  %tobool = icmp ne i32 %37, 0, !dbg !1973
  br i1 %tobool, label %while.body42, label %while.end, !dbg !1973

while.body42:                                     ; preds = %while.cond41
  %38 = load %struct.queue** %fifo.addr, align 8, !dbg !1974
  %notFull = getelementptr inbounds %struct.queue* %38, i32 0, i32 8, !dbg !1974
  %39 = load %union.pthread_cond_t** %notFull, align 8, !dbg !1974
  %40 = load %struct.queue** %fifo.addr, align 8, !dbg !1974
  %mut43 = getelementptr inbounds %struct.queue* %40, i32 0, i32 7, !dbg !1974
  %41 = load %union.pthread_mutex_t** %mut43, align 8, !dbg !1974
  %call44 = call i32 @pthread_cond_wait(%union.pthread_cond_t* %39, %union.pthread_mutex_t* %41), !dbg !1974
  store i32 %call44, i32* %pret, align 4, !dbg !1974
  %42 = load i32* %pret, align 4, !dbg !1976
  %cmp45 = icmp ne i32 %42, 0, !dbg !1976
  br i1 %cmp45, label %if.then46, label %if.end48, !dbg !1976

if.then46:                                        ; preds = %while.body42
  %43 = load %struct._IO_FILE** @stderr, align 8, !dbg !1977
  %44 = load i32* %pret, align 4, !dbg !1977
  %call47 = call i32 (%struct._IO_FILE*, i8*, ...)* @fprintf(%struct._IO_FILE* %43, i8* getelementptr inbounds ([49 x i8]* @.str20, i32 0, i32 0), i32 %44), !dbg !1977
  br label %if.end48, !dbg !1977

if.end48:                                         ; preds = %if.then46, %while.body42
  br label %while.cond41, !dbg !1978

while.end:                                        ; preds = %while.cond41
  %45 = load %struct.queue** %fifo.addr, align 8, !dbg !1979
  %46 = load i8** %FileData, align 8, !dbg !1979
  %47 = load i64* %inSize, align 8, !dbg !1979
  %conv49 = trunc i64 %47 to i32, !dbg !1979
  %48 = load i32* %blockNum, align 4, !dbg !1979
  call void @_Z8queueAddP5queuePcji(%struct.queue* %45, i8* %46, i32 %conv49, i32 %48), !dbg !1979
  %49 = load %struct.queue** %fifo.addr, align 8, !dbg !1980
  %mut50 = getelementptr inbounds %struct.queue* %49, i32 0, i32 7, !dbg !1980
  %50 = load %union.pthread_mutex_t** %mut50, align 8, !dbg !1980
  %call51 = call i32 @pthread_mutex_unlock(%union.pthread_mutex_t* %50) nounwind, !dbg !1980
  %51 = load %struct.queue** %fifo.addr, align 8, !dbg !1981
  %notEmpty = getelementptr inbounds %struct.queue* %51, i32 0, i32 9, !dbg !1981
  %52 = load %union.pthread_cond_t** %notEmpty, align 8, !dbg !1981
  %call52 = call i32 @pthread_cond_signal(%union.pthread_cond_t* %52) nounwind, !dbg !1981
  %53 = load i32* %blockNum, align 4, !dbg !1982
  %inc = add nsw i32 %53, 1, !dbg !1982
  store i32 %inc, i32* %blockNum, align 4, !dbg !1982
  br label %while.cond, !dbg !1983

while.end53:                                      ; preds = %if.end17, %while.cond
  %54 = load i32* %hInfile.addr, align 4, !dbg !1984
  %call54 = call i32 @close(i32 %54), !dbg !1984
  store i32 1, i32* @_ZL7allDone, align 4, !dbg !1985
  store i32 0, i32* %retval, !dbg !1986
  br label %return, !dbg !1986

return:                                           ; preds = %while.end53, %if.end30, %if.then6
  %55 = load i32* %retval, !dbg !1987
  ret i32 %55, !dbg !1987
}

define i8* @_Z8consumerPv(i8* %q) uwtable {
entry:
  %retval = alloca i8*, align 8
  %q.addr = alloca i8*, align 8
  %waitTimer = alloca %struct.timespec, align 8
  %tv = alloca %struct.timeval, align 8
  %tz = alloca %struct.timezone, align 4
  %fifo = alloca %struct.queue*, align 8
  %FileData = alloca i8*, align 8
  %CompressedData = alloca i8*, align 8
  %inSize = alloca i32, align 4
  %outSize = alloca i32, align 4
  %blockNum = alloca i32, align 4
  %ret = alloca i32, align 4
  %pret = alloca i32, align 4
  store i8* %q, i8** %q.addr, align 8
  call void @llvm.dbg.declare(metadata !{i8** %q.addr}, metadata !1988), !dbg !1989
  call void @llvm.dbg.declare(metadata !{%struct.timespec* %waitTimer}, metadata !1990), !dbg !1992
  call void @llvm.dbg.declare(metadata !{%struct.timeval* %tv}, metadata !1993), !dbg !1994
  call void @llvm.dbg.declare(metadata !{%struct.timezone* %tz}, metadata !1995), !dbg !1996
  call void @llvm.dbg.declare(metadata !{%struct.queue** %fifo}, metadata !1997), !dbg !1998
  call void @llvm.dbg.declare(metadata !{i8** %FileData}, metadata !1999), !dbg !2000
  store i8* null, i8** %FileData, align 8, !dbg !2000
  call void @llvm.dbg.declare(metadata !{i8** %CompressedData}, metadata !2001), !dbg !2002
  store i8* null, i8** %CompressedData, align 8, !dbg !2002
  call void @llvm.dbg.declare(metadata !{i32* %inSize}, metadata !2003), !dbg !2004
  store i32 0, i32* %inSize, align 4, !dbg !2004
  call void @llvm.dbg.declare(metadata !{i32* %outSize}, metadata !2005), !dbg !2006
  store i32 0, i32* %outSize, align 4, !dbg !2006
  call void @llvm.dbg.declare(metadata !{i32* %blockNum}, metadata !2007), !dbg !2008
  store i32 -1, i32* %blockNum, align 4, !dbg !2008
  call void @llvm.dbg.declare(metadata !{i32* %ret}, metadata !2009), !dbg !2010
  store i32 -1, i32* %ret, align 4, !dbg !2010
  call void @llvm.dbg.declare(metadata !{i32* %pret}, metadata !2011), !dbg !2012
  store i32 -1, i32* %pret, align 4, !dbg !2012
  %0 = load i8** %q.addr, align 8, !dbg !2013
  %1 = bitcast i8* %0 to %struct.queue*, !dbg !2013
  store %struct.queue* %1, %struct.queue** %fifo, align 8, !dbg !2013
  br label %for.cond, !dbg !2014

for.cond:                                         ; preds = %if.end45, %entry
  %2 = load %struct.queue** %fifo, align 8, !dbg !2016
  %mut = getelementptr inbounds %struct.queue* %2, i32 0, i32 7, !dbg !2016
  %3 = load %union.pthread_mutex_t** %mut, align 8, !dbg !2016
  %call = call i32 @pthread_mutex_lock(%union.pthread_mutex_t* %3) nounwind, !dbg !2016
  br label %while.cond, !dbg !2018

while.cond:                                       ; preds = %if.end11, %for.cond
  %4 = load %struct.queue** %fifo, align 8, !dbg !2018
  %empty = getelementptr inbounds %struct.queue* %4, i32 0, i32 6, !dbg !2018
  %5 = load i32* %empty, align 4, !dbg !2018
  %tobool = icmp ne i32 %5, 0, !dbg !2018
  br i1 %tobool, label %while.body, label %while.end, !dbg !2018

while.body:                                       ; preds = %while.cond
  %6 = load i32* @_ZL7allDone, align 4, !dbg !2019
  %cmp = icmp eq i32 %6, 1, !dbg !2019
  br i1 %cmp, label %if.then, label %if.end, !dbg !2019

if.then:                                          ; preds = %while.body
  %7 = load %struct.queue** %fifo, align 8, !dbg !2021
  %mut1 = getelementptr inbounds %struct.queue* %7, i32 0, i32 7, !dbg !2021
  %8 = load %union.pthread_mutex_t** %mut1, align 8, !dbg !2021
  %call2 = call i32 @pthread_mutex_unlock(%union.pthread_mutex_t* %8) nounwind, !dbg !2021
  store i8* null, i8** %retval, !dbg !2023
  br label %return, !dbg !2023

if.end:                                           ; preds = %while.body
  %call3 = call i32 @gettimeofday(%struct.timeval* %tv, %struct.timezone* %tz) nounwind, !dbg !2024
  %tv_sec = getelementptr inbounds %struct.timeval* %tv, i32 0, i32 0, !dbg !2025
  %9 = load i64* %tv_sec, align 8, !dbg !2025
  %add = add nsw i64 %9, 1, !dbg !2025
  %tv_sec4 = getelementptr inbounds %struct.timespec* %waitTimer, i32 0, i32 0, !dbg !2025
  store i64 %add, i64* %tv_sec4, align 8, !dbg !2025
  %tv_usec = getelementptr inbounds %struct.timeval* %tv, i32 0, i32 1, !dbg !2026
  %10 = load i64* %tv_usec, align 8, !dbg !2026
  %mul = mul nsw i64 %10, 1000, !dbg !2026
  %tv_nsec = getelementptr inbounds %struct.timespec* %waitTimer, i32 0, i32 1, !dbg !2026
  store i64 %mul, i64* %tv_nsec, align 8, !dbg !2026
  %11 = load %struct.queue** %fifo, align 8, !dbg !2027
  %notEmpty = getelementptr inbounds %struct.queue* %11, i32 0, i32 9, !dbg !2027
  %12 = load %union.pthread_cond_t** %notEmpty, align 8, !dbg !2027
  %13 = load %struct.queue** %fifo, align 8, !dbg !2027
  %mut5 = getelementptr inbounds %struct.queue* %13, i32 0, i32 7, !dbg !2027
  %14 = load %union.pthread_mutex_t** %mut5, align 8, !dbg !2027
  %call6 = call i32 @pthread_cond_timedwait(%union.pthread_cond_t* %12, %union.pthread_mutex_t* %14, %struct.timespec* %waitTimer), !dbg !2027
  store i32 %call6, i32* %pret, align 4, !dbg !2027
  %15 = load i32* %pret, align 4, !dbg !2028
  %cmp7 = icmp eq i32 %15, 22, !dbg !2028
  br i1 %cmp7, label %if.then8, label %if.end11, !dbg !2028

if.then8:                                         ; preds = %if.end
  %16 = load %struct._IO_FILE** @stderr, align 8, !dbg !2029
  %call9 = call i32 (%struct._IO_FILE*, i8*, ...)* @fprintf(%struct._IO_FILE* %16, i8* getelementptr inbounds ([63 x i8]* @.str12, i32 0, i32 0)), !dbg !2029
  %17 = load %struct._IO_FILE** @stderr, align 8, !dbg !2031
  %call10 = call i32 (%struct._IO_FILE*, i8*, ...)* @fprintf(%struct._IO_FILE* %17, i8* getelementptr inbounds ([64 x i8]* @.str13, i32 0, i32 0)), !dbg !2031
  call void @exit(i32 -1) noreturn nounwind, !dbg !2032
  unreachable, !dbg !2032

if.end11:                                         ; preds = %if.end
  br label %while.cond, !dbg !2033

while.end:                                        ; preds = %while.cond
  %18 = load %struct.queue** %fifo, align 8, !dbg !2034
  %call12 = call i8* @_Z8queueDelP5queuePjPi(%struct.queue* %18, i32* %inSize, i32* %blockNum), !dbg !2034
  store i8* %call12, i8** %FileData, align 8, !dbg !2034
  %19 = load %struct.queue** %fifo, align 8, !dbg !2035
  %mut13 = getelementptr inbounds %struct.queue* %19, i32 0, i32 7, !dbg !2035
  %20 = load %union.pthread_mutex_t** %mut13, align 8, !dbg !2035
  %call14 = call i32 @pthread_mutex_unlock(%union.pthread_mutex_t* %20) nounwind, !dbg !2035
  %21 = load %struct.queue** %fifo, align 8, !dbg !2036
  %notFull = getelementptr inbounds %struct.queue* %21, i32 0, i32 8, !dbg !2036
  %22 = load %union.pthread_cond_t** %notFull, align 8, !dbg !2036
  %call15 = call i32 @pthread_cond_signal(%union.pthread_cond_t* %22) nounwind, !dbg !2036
  store i32 %call15, i32* %pret, align 4, !dbg !2036
  %23 = load i32* %pret, align 4, !dbg !2037
  %cmp16 = icmp ne i32 %23, 0, !dbg !2037
  br i1 %cmp16, label %if.then17, label %if.end19, !dbg !2037

if.then17:                                        ; preds = %while.end
  %24 = load %struct._IO_FILE** @stderr, align 8, !dbg !2038
  %25 = load i32* %pret, align 4, !dbg !2038
  %call18 = call i32 (%struct._IO_FILE*, i8*, ...)* @fprintf(%struct._IO_FILE* %24, i8* getelementptr inbounds ([51 x i8]* @.str21, i32 0, i32 0), i32 %25), !dbg !2038
  br label %if.end19, !dbg !2038

if.end19:                                         ; preds = %if.then17, %while.end
  %26 = load i32* %inSize, align 4, !dbg !2039
  %conv = uitofp i32 %26 to double, !dbg !2039
  %mul20 = fmul double %conv, 1.010000e+00, !dbg !2039
  %add21 = fadd double %mul20, 6.000000e+02, !dbg !2039
  %conv22 = fptosi double %add21 to i32, !dbg !2039
  store i32 %conv22, i32* %outSize, align 4, !dbg !2039
  %27 = load %union.pthread_mutex_t** @_ZL8MemMutex, align 8, !dbg !2040
  %call23 = call i32 @pthread_mutex_lock(%union.pthread_mutex_t* %27) nounwind, !dbg !2040
  %28 = load i32* %outSize, align 4, !dbg !2041
  %29 = zext i32 %28 to i64, !dbg !2041
  %call24 = call noalias i8* @_Znam(i64 %29), !dbg !2041
  store i8* %call24, i8** %CompressedData, align 8, !dbg !2041
  %30 = load %union.pthread_mutex_t** @_ZL8MemMutex, align 8, !dbg !2042
  %call25 = call i32 @pthread_mutex_unlock(%union.pthread_mutex_t* %30) nounwind, !dbg !2042
  %31 = load i8** %CompressedData, align 8, !dbg !2043
  %cmp26 = icmp eq i8* %31, null, !dbg !2043
  br i1 %cmp26, label %if.then27, label %if.end29, !dbg !2043

if.then27:                                        ; preds = %if.end19
  %32 = load %struct._IO_FILE** @stderr, align 8, !dbg !2044
  %call28 = call i32 (%struct._IO_FILE*, i8*, ...)* @fprintf(%struct._IO_FILE* %32, i8* getelementptr inbounds ([67 x i8]* @.str22, i32 0, i32 0)), !dbg !2044
  store i8* null, i8** %retval, !dbg !2046
  br label %return, !dbg !2046

if.end29:                                         ; preds = %if.end19
  %33 = load i8** %CompressedData, align 8, !dbg !2047
  %34 = load i8** %FileData, align 8, !dbg !2047
  %35 = load i32* %inSize, align 4, !dbg !2047
  %36 = load i32* @_ZL12BWTblockSize, align 4, !dbg !2047
  %37 = load i32* @_ZL9Verbosity, align 4, !dbg !2047
  %call30 = call i32 @BZ2_bzBuffToBuffCompress(i8* %33, i32* %outSize, i8* %34, i32 %35, i32 %36, i32 %37, i32 30), !dbg !2047
  store i32 %call30, i32* %ret, align 4, !dbg !2047
  %38 = load i32* %ret, align 4, !dbg !2048
  %cmp31 = icmp ne i32 %38, 0, !dbg !2048
  br i1 %cmp31, label %if.then32, label %if.end34, !dbg !2048

if.then32:                                        ; preds = %if.end29
  %39 = load %struct._IO_FILE** @stderr, align 8, !dbg !2049
  %40 = load i32* %ret, align 4, !dbg !2049
  %call33 = call i32 (%struct._IO_FILE*, i8*, ...)* @fprintf(%struct._IO_FILE* %39, i8* getelementptr inbounds ([32 x i8]* @.str23, i32 0, i32 0), i32 %40), !dbg !2049
  br label %if.end34, !dbg !2049

if.end34:                                         ; preds = %if.then32, %if.end29
  %41 = load %union.pthread_mutex_t** @_ZL8OutMutex, align 8, !dbg !2050
  %call35 = call i32 @pthread_mutex_lock(%union.pthread_mutex_t* %41) nounwind, !dbg !2050
  %42 = load i8** %CompressedData, align 8, !dbg !2051
  %43 = load i32* %blockNum, align 4, !dbg !2051
  %conv36 = sext i32 %43 to i64, !dbg !2051
  %call37 = call %struct.outBuff* @_ZNSt6vectorI7outBuffSaIS0_EEixEm(%"class.std::vector"* @_ZL12OutputBuffer, i64 %conv36), !dbg !2051
  %buf = getelementptr inbounds %struct.outBuff* %call37, i32 0, i32 0, !dbg !2051
  store i8* %42, i8** %buf, align 8, !dbg !2051
  %44 = load i32* %outSize, align 4, !dbg !2052
  %45 = load i32* %blockNum, align 4, !dbg !2052
  %conv38 = sext i32 %45 to i64, !dbg !2052
  %call39 = call %struct.outBuff* @_ZNSt6vectorI7outBuffSaIS0_EEixEm(%"class.std::vector"* @_ZL12OutputBuffer, i64 %conv38), !dbg !2052
  %bufSize = getelementptr inbounds %struct.outBuff* %call39, i32 0, i32 1, !dbg !2052
  store i32 %44, i32* %bufSize, align 4, !dbg !2052
  %46 = load %union.pthread_mutex_t** @_ZL8OutMutex, align 8, !dbg !2053
  %call40 = call i32 @pthread_mutex_unlock(%union.pthread_mutex_t* %46) nounwind, !dbg !2053
  %47 = load i8** %FileData, align 8, !dbg !2054
  %cmp41 = icmp ne i8* %47, null, !dbg !2054
  br i1 %cmp41, label %if.then42, label %if.end45, !dbg !2054

if.then42:                                        ; preds = %if.end34
  %48 = load %union.pthread_mutex_t** @_ZL8MemMutex, align 8, !dbg !2055
  %call43 = call i32 @pthread_mutex_lock(%union.pthread_mutex_t* %48) nounwind, !dbg !2055
  %49 = load i8** %FileData, align 8, !dbg !2057
  %isnull = icmp eq i8* %49, null, !dbg !2057
  br i1 %isnull, label %delete.end, label %delete.notnull, !dbg !2057

delete.notnull:                                   ; preds = %if.then42
  call void @_ZdaPv(i8* %49) nounwind, !dbg !2057
  br label %delete.end, !dbg !2057

delete.end:                                       ; preds = %delete.notnull, %if.then42
  store i8* null, i8** %FileData, align 8, !dbg !2058
  %50 = load %union.pthread_mutex_t** @_ZL8MemMutex, align 8, !dbg !2059
  %call44 = call i32 @pthread_mutex_unlock(%union.pthread_mutex_t* %50) nounwind, !dbg !2059
  br label %if.end45, !dbg !2060

if.end45:                                         ; preds = %delete.end, %if.end34
  br label %for.cond, !dbg !2061

return:                                           ; preds = %if.then27, %if.then
  %51 = load i8** %retval, !dbg !2062
  ret i8* %51, !dbg !2062
}

declare i32 @BZ2_bzBuffToBuffCompress(i8*, i32*, i8*, i32, i32, i32, i32)

define %struct.queue* @_Z9queueIniti(i32 %queueSize) uwtable {
entry:
  %retval = alloca %struct.queue*, align 8
  %queueSize.addr = alloca i32, align 4
  %q = alloca %struct.queue*, align 8
  store i32 %queueSize, i32* %queueSize.addr, align 4
  call void @llvm.dbg.declare(metadata !{i32* %queueSize.addr}, metadata !2063), !dbg !2064
  call void @llvm.dbg.declare(metadata !{%struct.queue** %q}, metadata !2065), !dbg !2067
  %0 = load i32* %queueSize.addr, align 4, !dbg !2068
  store i32 %0, i32* @_ZL9QUEUESIZE, align 4, !dbg !2068
  %call = call noalias i8* @_Znwm(i64 72), !dbg !2069
  %1 = bitcast i8* %call to %struct.queue*, !dbg !2069
  store %struct.queue* %1, %struct.queue** %q, align 8, !dbg !2069
  %2 = load %struct.queue** %q, align 8, !dbg !2070
  %cmp = icmp eq %struct.queue* %2, null, !dbg !2070
  br i1 %cmp, label %if.then, label %if.end, !dbg !2070

if.then:                                          ; preds = %entry
  store %struct.queue* null, %struct.queue** %retval, !dbg !2071
  br label %return, !dbg !2071

if.end:                                           ; preds = %entry
  %3 = load %struct.queue** %q, align 8, !dbg !2072
  %buf = getelementptr inbounds %struct.queue* %3, i32 0, i32 0, !dbg !2072
  store i8** null, i8*** %buf, align 8, !dbg !2072
  %4 = load i32* %queueSize.addr, align 4, !dbg !2073
  %5 = sext i32 %4 to i64, !dbg !2073
  %6 = call { i64, i1 } @llvm.umul.with.overflow.i64(i64 %5, i64 8), !dbg !2073
  %7 = extractvalue { i64, i1 } %6, 1, !dbg !2073
  %8 = extractvalue { i64, i1 } %6, 0, !dbg !2073
  %9 = select i1 %7, i64 -1, i64 %8, !dbg !2073
  %call1 = call noalias i8* @_Znam(i64 %9), !dbg !2073
  %10 = bitcast i8* %call1 to i8**, !dbg !2073
  %11 = load %struct.queue** %q, align 8, !dbg !2073
  %buf2 = getelementptr inbounds %struct.queue* %11, i32 0, i32 0, !dbg !2073
  store i8** %10, i8*** %buf2, align 8, !dbg !2073
  %12 = load %struct.queue** %q, align 8, !dbg !2074
  %buf3 = getelementptr inbounds %struct.queue* %12, i32 0, i32 0, !dbg !2074
  %13 = load i8*** %buf3, align 8, !dbg !2074
  %cmp4 = icmp eq i8** %13, null, !dbg !2074
  br i1 %cmp4, label %if.then5, label %if.end6, !dbg !2074

if.then5:                                         ; preds = %if.end
  store %struct.queue* null, %struct.queue** %retval, !dbg !2075
  br label %return, !dbg !2075

if.end6:                                          ; preds = %if.end
  %14 = load %struct.queue** %q, align 8, !dbg !2076
  %bufSize = getelementptr inbounds %struct.queue* %14, i32 0, i32 1, !dbg !2076
  store i32* null, i32** %bufSize, align 8, !dbg !2076
  %15 = load i32* %queueSize.addr, align 4, !dbg !2077
  %16 = sext i32 %15 to i64, !dbg !2077
  %17 = call { i64, i1 } @llvm.umul.with.overflow.i64(i64 %16, i64 4), !dbg !2077
  %18 = extractvalue { i64, i1 } %17, 1, !dbg !2077
  %19 = extractvalue { i64, i1 } %17, 0, !dbg !2077
  %20 = select i1 %18, i64 -1, i64 %19, !dbg !2077
  %call7 = call noalias i8* @_Znam(i64 %20), !dbg !2077
  %21 = bitcast i8* %call7 to i32*, !dbg !2077
  %22 = load %struct.queue** %q, align 8, !dbg !2077
  %bufSize8 = getelementptr inbounds %struct.queue* %22, i32 0, i32 1, !dbg !2077
  store i32* %21, i32** %bufSize8, align 8, !dbg !2077
  %23 = load %struct.queue** %q, align 8, !dbg !2078
  %bufSize9 = getelementptr inbounds %struct.queue* %23, i32 0, i32 1, !dbg !2078
  %24 = load i32** %bufSize9, align 8, !dbg !2078
  %cmp10 = icmp eq i32* %24, null, !dbg !2078
  br i1 %cmp10, label %if.then11, label %if.end12, !dbg !2078

if.then11:                                        ; preds = %if.end6
  store %struct.queue* null, %struct.queue** %retval, !dbg !2079
  br label %return, !dbg !2079

if.end12:                                         ; preds = %if.end6
  %25 = load %struct.queue** %q, align 8, !dbg !2080
  %blockNum = getelementptr inbounds %struct.queue* %25, i32 0, i32 2, !dbg !2080
  store i32* null, i32** %blockNum, align 8, !dbg !2080
  %26 = load i32* %queueSize.addr, align 4, !dbg !2081
  %27 = sext i32 %26 to i64, !dbg !2081
  %28 = call { i64, i1 } @llvm.umul.with.overflow.i64(i64 %27, i64 4), !dbg !2081
  %29 = extractvalue { i64, i1 } %28, 1, !dbg !2081
  %30 = extractvalue { i64, i1 } %28, 0, !dbg !2081
  %31 = select i1 %29, i64 -1, i64 %30, !dbg !2081
  %call13 = call noalias i8* @_Znam(i64 %31), !dbg !2081
  %32 = bitcast i8* %call13 to i32*, !dbg !2081
  %33 = load %struct.queue** %q, align 8, !dbg !2081
  %blockNum14 = getelementptr inbounds %struct.queue* %33, i32 0, i32 2, !dbg !2081
  store i32* %32, i32** %blockNum14, align 8, !dbg !2081
  %34 = load %struct.queue** %q, align 8, !dbg !2082
  %blockNum15 = getelementptr inbounds %struct.queue* %34, i32 0, i32 2, !dbg !2082
  %35 = load i32** %blockNum15, align 8, !dbg !2082
  %cmp16 = icmp eq i32* %35, null, !dbg !2082
  br i1 %cmp16, label %if.then17, label %if.end18, !dbg !2082

if.then17:                                        ; preds = %if.end12
  store %struct.queue* null, %struct.queue** %retval, !dbg !2083
  br label %return, !dbg !2083

if.end18:                                         ; preds = %if.end12
  %36 = load %struct.queue** %q, align 8, !dbg !2084
  %empty = getelementptr inbounds %struct.queue* %36, i32 0, i32 6, !dbg !2084
  store i32 1, i32* %empty, align 4, !dbg !2084
  %37 = load %struct.queue** %q, align 8, !dbg !2085
  %full = getelementptr inbounds %struct.queue* %37, i32 0, i32 5, !dbg !2085
  store i32 0, i32* %full, align 4, !dbg !2085
  %38 = load %struct.queue** %q, align 8, !dbg !2086
  %head = getelementptr inbounds %struct.queue* %38, i32 0, i32 3, !dbg !2086
  store i64 0, i64* %head, align 8, !dbg !2086
  %39 = load %struct.queue** %q, align 8, !dbg !2087
  %tail = getelementptr inbounds %struct.queue* %39, i32 0, i32 4, !dbg !2087
  store i64 0, i64* %tail, align 8, !dbg !2087
  %40 = load %struct.queue** %q, align 8, !dbg !2088
  %mut = getelementptr inbounds %struct.queue* %40, i32 0, i32 7, !dbg !2088
  store %union.pthread_mutex_t* null, %union.pthread_mutex_t** %mut, align 8, !dbg !2088
  %call19 = call noalias i8* @_Znwm(i64 40), !dbg !2089
  %41 = bitcast i8* %call19 to %union.pthread_mutex_t*, !dbg !2089
  %42 = load %struct.queue** %q, align 8, !dbg !2089
  %mut20 = getelementptr inbounds %struct.queue* %42, i32 0, i32 7, !dbg !2089
  store %union.pthread_mutex_t* %41, %union.pthread_mutex_t** %mut20, align 8, !dbg !2089
  %43 = load %struct.queue** %q, align 8, !dbg !2090
  %mut21 = getelementptr inbounds %struct.queue* %43, i32 0, i32 7, !dbg !2090
  %44 = load %union.pthread_mutex_t** %mut21, align 8, !dbg !2090
  %cmp22 = icmp eq %union.pthread_mutex_t* %44, null, !dbg !2090
  br i1 %cmp22, label %if.then23, label %if.end24, !dbg !2090

if.then23:                                        ; preds = %if.end18
  store %struct.queue* null, %struct.queue** %retval, !dbg !2091
  br label %return, !dbg !2091

if.end24:                                         ; preds = %if.end18
  %45 = load %struct.queue** %q, align 8, !dbg !2092
  %mut25 = getelementptr inbounds %struct.queue* %45, i32 0, i32 7, !dbg !2092
  %46 = load %union.pthread_mutex_t** %mut25, align 8, !dbg !2092
  %call26 = call i32 @pthread_mutex_init(%union.pthread_mutex_t* %46, %union.pthread_mutexattr_t* null) nounwind, !dbg !2092
  %47 = load %struct.queue** %q, align 8, !dbg !2093
  %notFull = getelementptr inbounds %struct.queue* %47, i32 0, i32 8, !dbg !2093
  store %union.pthread_cond_t* null, %union.pthread_cond_t** %notFull, align 8, !dbg !2093
  %call27 = call noalias i8* @_Znwm(i64 48), !dbg !2094
  %48 = bitcast i8* %call27 to %union.pthread_cond_t*, !dbg !2094
  %49 = load %struct.queue** %q, align 8, !dbg !2094
  %notFull28 = getelementptr inbounds %struct.queue* %49, i32 0, i32 8, !dbg !2094
  store %union.pthread_cond_t* %48, %union.pthread_cond_t** %notFull28, align 8, !dbg !2094
  %50 = load %struct.queue** %q, align 8, !dbg !2095
  %notFull29 = getelementptr inbounds %struct.queue* %50, i32 0, i32 8, !dbg !2095
  %51 = load %union.pthread_cond_t** %notFull29, align 8, !dbg !2095
  %cmp30 = icmp eq %union.pthread_cond_t* %51, null, !dbg !2095
  br i1 %cmp30, label %if.then31, label %if.end32, !dbg !2095

if.then31:                                        ; preds = %if.end24
  store %struct.queue* null, %struct.queue** %retval, !dbg !2096
  br label %return, !dbg !2096

if.end32:                                         ; preds = %if.end24
  %52 = load %struct.queue** %q, align 8, !dbg !2097
  %notFull33 = getelementptr inbounds %struct.queue* %52, i32 0, i32 8, !dbg !2097
  %53 = load %union.pthread_cond_t** %notFull33, align 8, !dbg !2097
  %call34 = call i32 @pthread_cond_init(%union.pthread_cond_t* %53, %union.pthread_condattr_t* null) nounwind, !dbg !2097
  %54 = load %struct.queue** %q, align 8, !dbg !2098
  %notEmpty = getelementptr inbounds %struct.queue* %54, i32 0, i32 9, !dbg !2098
  store %union.pthread_cond_t* null, %union.pthread_cond_t** %notEmpty, align 8, !dbg !2098
  %call35 = call noalias i8* @_Znwm(i64 48), !dbg !2099
  %55 = bitcast i8* %call35 to %union.pthread_cond_t*, !dbg !2099
  %56 = load %struct.queue** %q, align 8, !dbg !2099
  %notEmpty36 = getelementptr inbounds %struct.queue* %56, i32 0, i32 9, !dbg !2099
  store %union.pthread_cond_t* %55, %union.pthread_cond_t** %notEmpty36, align 8, !dbg !2099
  %57 = load %struct.queue** %q, align 8, !dbg !2100
  %notEmpty37 = getelementptr inbounds %struct.queue* %57, i32 0, i32 9, !dbg !2100
  %58 = load %union.pthread_cond_t** %notEmpty37, align 8, !dbg !2100
  %cmp38 = icmp eq %union.pthread_cond_t* %58, null, !dbg !2100
  br i1 %cmp38, label %if.then39, label %if.end40, !dbg !2100

if.then39:                                        ; preds = %if.end32
  store %struct.queue* null, %struct.queue** %retval, !dbg !2101
  br label %return, !dbg !2101

if.end40:                                         ; preds = %if.end32
  %59 = load %struct.queue** %q, align 8, !dbg !2102
  %notEmpty41 = getelementptr inbounds %struct.queue* %59, i32 0, i32 9, !dbg !2102
  %60 = load %union.pthread_cond_t** %notEmpty41, align 8, !dbg !2102
  %call42 = call i32 @pthread_cond_init(%union.pthread_cond_t* %60, %union.pthread_condattr_t* null) nounwind, !dbg !2102
  %61 = load %struct.queue** %q, align 8, !dbg !2103
  store %struct.queue* %61, %struct.queue** %retval, !dbg !2103
  br label %return, !dbg !2103

return:                                           ; preds = %if.end40, %if.then39, %if.then31, %if.then23, %if.then17, %if.then11, %if.then5, %if.then
  %62 = load %struct.queue** %retval, !dbg !2104
  ret %struct.queue* %62, !dbg !2104
}

declare noalias i8* @_Znwm(i64)

declare { i64, i1 } @llvm.umul.with.overflow.i64(i64, i64) nounwind readnone

declare i32 @pthread_mutex_init(%union.pthread_mutex_t*, %union.pthread_mutexattr_t*) nounwind

declare i32 @pthread_cond_init(%union.pthread_cond_t*, %union.pthread_condattr_t*) nounwind

define void @_Z11queueDeleteP5queue(%struct.queue* %q) nounwind uwtable {
entry:
  %q.addr = alloca %struct.queue*, align 8
  store %struct.queue* %q, %struct.queue** %q.addr, align 8
  call void @llvm.dbg.declare(metadata !{%struct.queue** %q.addr}, metadata !2105), !dbg !2106
  %0 = load %struct.queue** %q.addr, align 8, !dbg !2107
  %cmp = icmp eq %struct.queue* %0, null, !dbg !2107
  br i1 %cmp, label %if.then, label %if.end, !dbg !2107

if.then:                                          ; preds = %entry
  br label %return, !dbg !2109

if.end:                                           ; preds = %entry
  %1 = load %struct.queue** %q.addr, align 8, !dbg !2110
  %mut = getelementptr inbounds %struct.queue* %1, i32 0, i32 7, !dbg !2110
  %2 = load %union.pthread_mutex_t** %mut, align 8, !dbg !2110
  %cmp1 = icmp ne %union.pthread_mutex_t* %2, null, !dbg !2110
  br i1 %cmp1, label %if.then2, label %if.end6, !dbg !2110

if.then2:                                         ; preds = %if.end
  %3 = load %struct.queue** %q.addr, align 8, !dbg !2111
  %mut3 = getelementptr inbounds %struct.queue* %3, i32 0, i32 7, !dbg !2111
  %4 = load %union.pthread_mutex_t** %mut3, align 8, !dbg !2111
  %call = call i32 @pthread_mutex_destroy(%union.pthread_mutex_t* %4) nounwind, !dbg !2111
  %5 = load %struct.queue** %q.addr, align 8, !dbg !2113
  %mut4 = getelementptr inbounds %struct.queue* %5, i32 0, i32 7, !dbg !2113
  %6 = load %union.pthread_mutex_t** %mut4, align 8, !dbg !2113
  %isnull = icmp eq %union.pthread_mutex_t* %6, null, !dbg !2113
  br i1 %isnull, label %delete.end, label %delete.notnull, !dbg !2113

delete.notnull:                                   ; preds = %if.then2
  %7 = bitcast %union.pthread_mutex_t* %6 to i8*, !dbg !2113
  call void @_ZdlPv(i8* %7) nounwind, !dbg !2113
  br label %delete.end, !dbg !2113

delete.end:                                       ; preds = %delete.notnull, %if.then2
  %8 = load %struct.queue** %q.addr, align 8, !dbg !2114
  %mut5 = getelementptr inbounds %struct.queue* %8, i32 0, i32 7, !dbg !2114
  store %union.pthread_mutex_t* null, %union.pthread_mutex_t** %mut5, align 8, !dbg !2114
  br label %if.end6, !dbg !2115

if.end6:                                          ; preds = %delete.end, %if.end
  %9 = load %struct.queue** %q.addr, align 8, !dbg !2116
  %notFull = getelementptr inbounds %struct.queue* %9, i32 0, i32 8, !dbg !2116
  %10 = load %union.pthread_cond_t** %notFull, align 8, !dbg !2116
  %cmp7 = icmp ne %union.pthread_cond_t* %10, null, !dbg !2116
  br i1 %cmp7, label %if.then8, label %if.end16, !dbg !2116

if.then8:                                         ; preds = %if.end6
  %11 = load %struct.queue** %q.addr, align 8, !dbg !2117
  %notFull9 = getelementptr inbounds %struct.queue* %11, i32 0, i32 8, !dbg !2117
  %12 = load %union.pthread_cond_t** %notFull9, align 8, !dbg !2117
  %call10 = call i32 @pthread_cond_destroy(%union.pthread_cond_t* %12) nounwind, !dbg !2117
  %13 = load %struct.queue** %q.addr, align 8, !dbg !2119
  %notFull11 = getelementptr inbounds %struct.queue* %13, i32 0, i32 8, !dbg !2119
  %14 = load %union.pthread_cond_t** %notFull11, align 8, !dbg !2119
  %isnull12 = icmp eq %union.pthread_cond_t* %14, null, !dbg !2119
  br i1 %isnull12, label %delete.end14, label %delete.notnull13, !dbg !2119

delete.notnull13:                                 ; preds = %if.then8
  %15 = bitcast %union.pthread_cond_t* %14 to i8*, !dbg !2119
  call void @_ZdlPv(i8* %15) nounwind, !dbg !2119
  br label %delete.end14, !dbg !2119

delete.end14:                                     ; preds = %delete.notnull13, %if.then8
  %16 = load %struct.queue** %q.addr, align 8, !dbg !2120
  %notFull15 = getelementptr inbounds %struct.queue* %16, i32 0, i32 8, !dbg !2120
  store %union.pthread_cond_t* null, %union.pthread_cond_t** %notFull15, align 8, !dbg !2120
  br label %if.end16, !dbg !2121

if.end16:                                         ; preds = %delete.end14, %if.end6
  %17 = load %struct.queue** %q.addr, align 8, !dbg !2122
  %notEmpty = getelementptr inbounds %struct.queue* %17, i32 0, i32 9, !dbg !2122
  %18 = load %union.pthread_cond_t** %notEmpty, align 8, !dbg !2122
  %cmp17 = icmp ne %union.pthread_cond_t* %18, null, !dbg !2122
  br i1 %cmp17, label %if.then18, label %if.end26, !dbg !2122

if.then18:                                        ; preds = %if.end16
  %19 = load %struct.queue** %q.addr, align 8, !dbg !2123
  %notEmpty19 = getelementptr inbounds %struct.queue* %19, i32 0, i32 9, !dbg !2123
  %20 = load %union.pthread_cond_t** %notEmpty19, align 8, !dbg !2123
  %call20 = call i32 @pthread_cond_destroy(%union.pthread_cond_t* %20) nounwind, !dbg !2123
  %21 = load %struct.queue** %q.addr, align 8, !dbg !2125
  %notEmpty21 = getelementptr inbounds %struct.queue* %21, i32 0, i32 9, !dbg !2125
  %22 = load %union.pthread_cond_t** %notEmpty21, align 8, !dbg !2125
  %isnull22 = icmp eq %union.pthread_cond_t* %22, null, !dbg !2125
  br i1 %isnull22, label %delete.end24, label %delete.notnull23, !dbg !2125

delete.notnull23:                                 ; preds = %if.then18
  %23 = bitcast %union.pthread_cond_t* %22 to i8*, !dbg !2125
  call void @_ZdlPv(i8* %23) nounwind, !dbg !2125
  br label %delete.end24, !dbg !2125

delete.end24:                                     ; preds = %delete.notnull23, %if.then18
  %24 = load %struct.queue** %q.addr, align 8, !dbg !2126
  %notEmpty25 = getelementptr inbounds %struct.queue* %24, i32 0, i32 9, !dbg !2126
  store %union.pthread_cond_t* null, %union.pthread_cond_t** %notEmpty25, align 8, !dbg !2126
  br label %if.end26, !dbg !2127

if.end26:                                         ; preds = %delete.end24, %if.end16
  %25 = load %struct.queue** %q.addr, align 8, !dbg !2128
  %isnull27 = icmp eq %struct.queue* %25, null, !dbg !2128
  br i1 %isnull27, label %delete.end29, label %delete.notnull28, !dbg !2128

delete.notnull28:                                 ; preds = %if.end26
  %26 = bitcast %struct.queue* %25 to i8*, !dbg !2128
  call void @_ZdlPv(i8* %26) nounwind, !dbg !2128
  br label %delete.end29, !dbg !2128

delete.end29:                                     ; preds = %delete.notnull28, %if.end26
  store %struct.queue* null, %struct.queue** %q.addr, align 8, !dbg !2129
  br label %return, !dbg !2130

return:                                           ; preds = %delete.end29, %if.then
  ret void, !dbg !2131
}

declare i32 @pthread_mutex_destroy(%union.pthread_mutex_t*) nounwind

declare void @_ZdlPv(i8*) nounwind

declare i32 @pthread_cond_destroy(%union.pthread_cond_t*) nounwind

define i32 @_Z20testBZ2ErrorHandlingiPvi(i32 %bzerr, i8* %bzf, i32 %streamNo) uwtable {
entry:
  %retval = alloca i32, align 4
  %bzerr.addr = alloca i32, align 4
  %bzf.addr = alloca i8*, align 8
  %streamNo.addr = alloca i32, align 4
  %bzerr_dummy = alloca i32, align 4
  store i32 %bzerr, i32* %bzerr.addr, align 4
  call void @llvm.dbg.declare(metadata !{i32* %bzerr.addr}, metadata !2132), !dbg !2133
  store i8* %bzf, i8** %bzf.addr, align 8
  call void @llvm.dbg.declare(metadata !{i8** %bzf.addr}, metadata !2134), !dbg !2133
  store i32 %streamNo, i32* %streamNo.addr, align 4
  call void @llvm.dbg.declare(metadata !{i32* %streamNo.addr}, metadata !2135), !dbg !2133
  call void @llvm.dbg.declare(metadata !{i32* %bzerr_dummy}, metadata !2136), !dbg !2138
  %0 = load i8** %bzf.addr, align 8, !dbg !2139
  call void @BZ2_bzReadClose(i32* %bzerr_dummy, i8* %0), !dbg !2139
  %1 = load i32* %bzerr.addr, align 4, !dbg !2140
  switch i32 %1, label %sw.default [
    i32 -9, label %sw.bb
    i32 -6, label %sw.bb1
    i32 -4, label %sw.bb3
    i32 -3, label %sw.bb5
    i32 -7, label %sw.bb7
    i32 -5, label %sw.bb9
  ], !dbg !2140

sw.bb:                                            ; preds = %entry
  %2 = load %struct._IO_FILE** @stderr, align 8, !dbg !2141
  %call = call i32 (%struct._IO_FILE*, i8*, ...)* @fprintf(%struct._IO_FILE* %2, i8* getelementptr inbounds ([66 x i8]* @.str24, i32 0, i32 0)), !dbg !2141
  call void @exit(i32 3) noreturn nounwind, !dbg !2143
  unreachable, !dbg !2143

sw.bb1:                                           ; preds = %entry
  %3 = load %struct._IO_FILE** @stderr, align 8, !dbg !2144
  %call2 = call i32 (%struct._IO_FILE*, i8*, ...)* @fprintf(%struct._IO_FILE* %3, i8* getelementptr inbounds ([66 x i8]* @.str24, i32 0, i32 0)), !dbg !2144
  store i32 1, i32* %retval, !dbg !2145
  br label %return, !dbg !2145

sw.bb3:                                           ; preds = %entry
  %4 = load %struct._IO_FILE** @stderr, align 8, !dbg !2146
  %call4 = call i32 (%struct._IO_FILE*, i8*, ...)* @fprintf(%struct._IO_FILE* %4, i8* getelementptr inbounds ([59 x i8]* @.str25, i32 0, i32 0)), !dbg !2146
  store i32 -1, i32* %retval, !dbg !2147
  br label %return, !dbg !2147

sw.bb5:                                           ; preds = %entry
  %5 = load %struct._IO_FILE** @stderr, align 8, !dbg !2148
  %call6 = call i32 (%struct._IO_FILE*, i8*, ...)* @fprintf(%struct._IO_FILE* %5, i8* getelementptr inbounds ([54 x i8]* @.str26, i32 0, i32 0)), !dbg !2148
  store i32 1, i32* %retval, !dbg !2149
  br label %return, !dbg !2149

sw.bb7:                                           ; preds = %entry
  %6 = load %struct._IO_FILE** @stderr, align 8, !dbg !2150
  %call8 = call i32 (%struct._IO_FILE*, i8*, ...)* @fprintf(%struct._IO_FILE* %6, i8* getelementptr inbounds ([47 x i8]* @.str27, i32 0, i32 0)), !dbg !2150
  store i32 -1, i32* %retval, !dbg !2151
  br label %return, !dbg !2151

sw.bb9:                                           ; preds = %entry
  %7 = load i32* %streamNo.addr, align 4, !dbg !2152
  %cmp = icmp eq i32 %7, 1, !dbg !2152
  br i1 %cmp, label %if.then, label %if.else, !dbg !2152

if.then:                                          ; preds = %sw.bb9
  %8 = load %struct._IO_FILE** @stderr, align 8, !dbg !2153
  %call10 = call i32 (%struct._IO_FILE*, i8*, ...)* @fprintf(%struct._IO_FILE* %8, i8* getelementptr inbounds ([69 x i8]* @.str28, i32 0, i32 0)), !dbg !2153
  store i32 -1, i32* %retval, !dbg !2155
  br label %return, !dbg !2155

if.else:                                          ; preds = %sw.bb9
  %9 = load i32* @_ZL9QuietMode, align 4, !dbg !2156
  %cmp11 = icmp ne i32 %9, 1, !dbg !2156
  br i1 %cmp11, label %if.then12, label %if.end, !dbg !2156

if.then12:                                        ; preds = %if.else
  %10 = load %struct._IO_FILE** @stderr, align 8, !dbg !2158
  %call13 = call i32 (%struct._IO_FILE*, i8*, ...)* @fprintf(%struct._IO_FILE* %10, i8* getelementptr inbounds ([48 x i8]* @.str29, i32 0, i32 0)), !dbg !2158
  br label %if.end, !dbg !2158

if.end:                                           ; preds = %if.then12, %if.else
  store i32 0, i32* %retval, !dbg !2159
  br label %return, !dbg !2159

sw.default:                                       ; preds = %entry
  %11 = load %struct._IO_FILE** @stderr, align 8, !dbg !2160
  %call14 = call i32 (%struct._IO_FILE*, i8*, ...)* @fprintf(%struct._IO_FILE* %11, i8* getelementptr inbounds ([38 x i8]* @.str30, i32 0, i32 0)), !dbg !2160
  call void @exit(i32 3) noreturn nounwind, !dbg !2161
  unreachable, !dbg !2161

return:                                           ; preds = %if.end, %if.then, %sw.bb7, %sw.bb5, %sw.bb3, %sw.bb1
  %12 = load i32* %retval, !dbg !2162
  ret i32 %12, !dbg !2162
}

declare void @BZ2_bzReadClose(i32*, i8*)

define i32 @_Z18testCompressedDataPc(i8* %fileName) uwtable {
entry:
  %retval = alloca i32, align 4
  %fileName.addr = alloca i8*, align 8
  %zStream = alloca %struct._IO_FILE*, align 8
  %ret = alloca i32, align 4
  %bzf = alloca i8*, align 8
  %obuf = alloca [5000 x i8], align 16
  %unused = alloca [5000 x i8], align 16
  %unusedTmp = alloca i8*, align 8
  %bzerr = alloca i32, align 4
  %bzerr_dummy = alloca i32, align 4
  %nread = alloca i32, align 4
  %streamNo = alloca i32, align 4
  %nUnused = alloca i32, align 4
  %i = alloca i32, align 4
  %c = alloca i32, align 4
  store i8* %fileName, i8** %fileName.addr, align 8
  call void @llvm.dbg.declare(metadata !{i8** %fileName.addr}, metadata !2163), !dbg !2164
  call void @llvm.dbg.declare(metadata !{%struct._IO_FILE** %zStream}, metadata !2165), !dbg !2217
  store %struct._IO_FILE* null, %struct._IO_FILE** %zStream, align 8, !dbg !2217
  call void @llvm.dbg.declare(metadata !{i32* %ret}, metadata !2218), !dbg !2219
  store i32 0, i32* %ret, align 4, !dbg !2219
  call void @llvm.dbg.declare(metadata !{i8** %bzf}, metadata !2220), !dbg !2221
  store i8* null, i8** %bzf, align 8, !dbg !2221
  call void @llvm.dbg.declare(metadata !{[5000 x i8]* %obuf}, metadata !2222), !dbg !2227
  call void @llvm.dbg.declare(metadata !{[5000 x i8]* %unused}, metadata !2228), !dbg !2229
  call void @llvm.dbg.declare(metadata !{i8** %unusedTmp}, metadata !2230), !dbg !2232
  call void @llvm.dbg.declare(metadata !{i32* %bzerr}, metadata !2233), !dbg !2234
  call void @llvm.dbg.declare(metadata !{i32* %bzerr_dummy}, metadata !2235), !dbg !2234
  call void @llvm.dbg.declare(metadata !{i32* %nread}, metadata !2236), !dbg !2234
  call void @llvm.dbg.declare(metadata !{i32* %streamNo}, metadata !2237), !dbg !2234
  call void @llvm.dbg.declare(metadata !{i32* %nUnused}, metadata !2238), !dbg !2239
  call void @llvm.dbg.declare(metadata !{i32* %i}, metadata !2240), !dbg !2241
  store i32 0, i32* %nUnused, align 4, !dbg !2242
  store i32 0, i32* %streamNo, align 4, !dbg !2243
  %0 = load i8** %fileName.addr, align 8, !dbg !2244
  %call = call %struct._IO_FILE* @fopen64(i8* %0, i8* getelementptr inbounds ([3 x i8]* @.str31, i32 0, i32 0)), !dbg !2244
  store %struct._IO_FILE* %call, %struct._IO_FILE** %zStream, align 8, !dbg !2244
  %1 = load %struct._IO_FILE** %zStream, align 8, !dbg !2245
  %cmp = icmp eq %struct._IO_FILE* %1, null, !dbg !2245
  br i1 %cmp, label %if.then, label %if.end, !dbg !2245

if.then:                                          ; preds = %entry
  %2 = load %struct._IO_FILE** @stderr, align 8, !dbg !2246
  %3 = load i8** %fileName.addr, align 8, !dbg !2246
  %call1 = call i32 (%struct._IO_FILE*, i8*, ...)* @fprintf(%struct._IO_FILE* %2, i8* getelementptr inbounds ([55 x i8]* @.str32, i32 0, i32 0), i8* %3), !dbg !2246
  store i32 -1, i32* %retval, !dbg !2248
  br label %return, !dbg !2248

if.end:                                           ; preds = %entry
  %4 = load %struct._IO_FILE** %zStream, align 8, !dbg !2249
  %call2 = call i32 @ferror(%struct._IO_FILE* %4) nounwind, !dbg !2249
  %tobool = icmp ne i32 %call2, 0, !dbg !2249
  br i1 %tobool, label %if.then3, label %if.end6, !dbg !2249

if.then3:                                         ; preds = %if.end
  %5 = load %struct._IO_FILE** @stderr, align 8, !dbg !2250
  %6 = load i8** %fileName.addr, align 8, !dbg !2250
  %call4 = call i32 (%struct._IO_FILE*, i8*, ...)* @fprintf(%struct._IO_FILE* %5, i8* getelementptr inbounds ([57 x i8]* @.str33, i32 0, i32 0), i8* %6), !dbg !2250
  %7 = load %struct._IO_FILE** %zStream, align 8, !dbg !2252
  %call5 = call i32 @fclose(%struct._IO_FILE* %7), !dbg !2252
  store i32 -1, i32* %retval, !dbg !2253
  br label %return, !dbg !2253

if.end6:                                          ; preds = %if.end
  br label %while.body, !dbg !2254

while.body:                                       ; preds = %if.end48, %if.end6
  %8 = load %struct._IO_FILE** %zStream, align 8, !dbg !2255
  %9 = load i32* @_ZL9Verbosity, align 4, !dbg !2255
  %arraydecay = getelementptr inbounds [5000 x i8]* %unused, i32 0, i32 0, !dbg !2255
  %10 = load i32* %nUnused, align 4, !dbg !2255
  %call7 = call i8* @BZ2_bzReadOpen(i32* %bzerr, %struct._IO_FILE* %8, i32 %9, i32 0, i8* %arraydecay, i32 %10), !dbg !2255
  store i8* %call7, i8** %bzf, align 8, !dbg !2255
  %11 = load i8** %bzf, align 8, !dbg !2257
  %cmp8 = icmp eq i8* %11, null, !dbg !2257
  br i1 %cmp8, label %if.then10, label %lor.lhs.false, !dbg !2257

lor.lhs.false:                                    ; preds = %while.body
  %12 = load i32* %bzerr, align 4, !dbg !2257
  %cmp9 = icmp ne i32 %12, 0, !dbg !2257
  br i1 %cmp9, label %if.then10, label %if.end13, !dbg !2257

if.then10:                                        ; preds = %lor.lhs.false, %while.body
  %13 = load i32* %bzerr, align 4, !dbg !2258
  %14 = load i8** %bzf, align 8, !dbg !2258
  %15 = load i32* %streamNo, align 4, !dbg !2258
  %call11 = call i32 @_Z20testBZ2ErrorHandlingiPvi(i32 %13, i8* %14, i32 %15), !dbg !2258
  store i32 %call11, i32* %ret, align 4, !dbg !2258
  %16 = load %struct._IO_FILE** %zStream, align 8, !dbg !2260
  %call12 = call i32 @fclose(%struct._IO_FILE* %16), !dbg !2260
  %17 = load i32* %ret, align 4, !dbg !2261
  store i32 %17, i32* %retval, !dbg !2261
  br label %return, !dbg !2261

if.end13:                                         ; preds = %lor.lhs.false
  %18 = load i32* %streamNo, align 4, !dbg !2262
  %inc = add nsw i32 %18, 1, !dbg !2262
  store i32 %inc, i32* %streamNo, align 4, !dbg !2262
  br label %while.cond14, !dbg !2263

while.cond14:                                     ; preds = %if.end23, %if.end13
  %19 = load i32* %bzerr, align 4, !dbg !2263
  %cmp15 = icmp eq i32 %19, 0, !dbg !2263
  br i1 %cmp15, label %while.body16, label %while.end, !dbg !2263

while.body16:                                     ; preds = %while.cond14
  %20 = load i8** %bzf, align 8, !dbg !2264
  %arraydecay17 = getelementptr inbounds [5000 x i8]* %obuf, i32 0, i32 0, !dbg !2264
  %call18 = call i32 @BZ2_bzRead(i32* %bzerr, i8* %20, i8* %arraydecay17, i32 5000), !dbg !2264
  store i32 %call18, i32* %nread, align 4, !dbg !2264
  %21 = load i32* %bzerr, align 4, !dbg !2266
  %cmp19 = icmp eq i32 %21, -5, !dbg !2266
  br i1 %cmp19, label %if.then20, label %if.end23, !dbg !2266

if.then20:                                        ; preds = %while.body16
  %22 = load i32* %bzerr, align 4, !dbg !2267
  %23 = load i8** %bzf, align 8, !dbg !2267
  %24 = load i32* %streamNo, align 4, !dbg !2267
  %call21 = call i32 @_Z20testBZ2ErrorHandlingiPvi(i32 %22, i8* %23, i32 %24), !dbg !2267
  store i32 %call21, i32* %ret, align 4, !dbg !2267
  %25 = load %struct._IO_FILE** %zStream, align 8, !dbg !2269
  %call22 = call i32 @fclose(%struct._IO_FILE* %25), !dbg !2269
  %26 = load i32* %ret, align 4, !dbg !2270
  store i32 %26, i32* %retval, !dbg !2270
  br label %return, !dbg !2270

if.end23:                                         ; preds = %while.body16
  br label %while.cond14, !dbg !2271

while.end:                                        ; preds = %while.cond14
  %27 = load i32* %bzerr, align 4, !dbg !2272
  %cmp24 = icmp ne i32 %27, 4, !dbg !2272
  br i1 %cmp24, label %if.then25, label %if.end28, !dbg !2272

if.then25:                                        ; preds = %while.end
  %28 = load i32* %bzerr, align 4, !dbg !2273
  %29 = load i8** %bzf, align 8, !dbg !2273
  %30 = load i32* %streamNo, align 4, !dbg !2273
  %call26 = call i32 @_Z20testBZ2ErrorHandlingiPvi(i32 %28, i8* %29, i32 %30), !dbg !2273
  store i32 %call26, i32* %ret, align 4, !dbg !2273
  %31 = load %struct._IO_FILE** %zStream, align 8, !dbg !2275
  %call27 = call i32 @fclose(%struct._IO_FILE* %31), !dbg !2275
  %32 = load i32* %ret, align 4, !dbg !2276
  store i32 %32, i32* %retval, !dbg !2276
  br label %return, !dbg !2276

if.end28:                                         ; preds = %while.end
  %33 = load i8** %bzf, align 8, !dbg !2277
  call void @BZ2_bzReadGetUnused(i32* %bzerr, i8* %33, i8** %unusedTmp, i32* %nUnused), !dbg !2277
  %34 = load i32* %bzerr, align 4, !dbg !2278
  %cmp29 = icmp ne i32 %34, 0, !dbg !2278
  br i1 %cmp29, label %if.then30, label %if.end32, !dbg !2278

if.then30:                                        ; preds = %if.end28
  %35 = load %struct._IO_FILE** @stderr, align 8, !dbg !2279
  %call31 = call i32 (%struct._IO_FILE*, i8*, ...)* @fprintf(%struct._IO_FILE* %35, i8* getelementptr inbounds ([38 x i8]* @.str30, i32 0, i32 0)), !dbg !2279
  call void @exit(i32 3) noreturn nounwind, !dbg !2281
  unreachable, !dbg !2281

if.end32:                                         ; preds = %if.end28
  store i32 0, i32* %i, align 4, !dbg !2282
  br label %for.cond, !dbg !2282

for.cond:                                         ; preds = %for.inc, %if.end32
  %36 = load i32* %i, align 4, !dbg !2282
  %37 = load i32* %nUnused, align 4, !dbg !2282
  %cmp33 = icmp slt i32 %36, %37, !dbg !2282
  br i1 %cmp33, label %for.body, label %for.end, !dbg !2282

for.body:                                         ; preds = %for.cond
  %38 = load i32* %i, align 4, !dbg !2284
  %idxprom = sext i32 %38 to i64, !dbg !2284
  %39 = load i8** %unusedTmp, align 8, !dbg !2284
  %arrayidx = getelementptr inbounds i8* %39, i64 %idxprom, !dbg !2284
  %40 = load i8* %arrayidx, align 1, !dbg !2284
  %41 = load i32* %i, align 4, !dbg !2284
  %idxprom34 = sext i32 %41 to i64, !dbg !2284
  %arrayidx35 = getelementptr inbounds [5000 x i8]* %unused, i32 0, i64 %idxprom34, !dbg !2284
  store i8 %40, i8* %arrayidx35, align 1, !dbg !2284
  br label %for.inc, !dbg !2284

for.inc:                                          ; preds = %for.body
  %42 = load i32* %i, align 4, !dbg !2282
  %inc36 = add nsw i32 %42, 1, !dbg !2282
  store i32 %inc36, i32* %i, align 4, !dbg !2282
  br label %for.cond, !dbg !2282

for.end:                                          ; preds = %for.cond
  %43 = load i8** %bzf, align 8, !dbg !2285
  call void @BZ2_bzReadClose(i32* %bzerr, i8* %43), !dbg !2285
  %44 = load i32* %bzerr, align 4, !dbg !2286
  %cmp37 = icmp ne i32 %44, 0, !dbg !2286
  br i1 %cmp37, label %if.then38, label %if.end40, !dbg !2286

if.then38:                                        ; preds = %for.end
  %45 = load %struct._IO_FILE** @stderr, align 8, !dbg !2287
  %call39 = call i32 (%struct._IO_FILE*, i8*, ...)* @fprintf(%struct._IO_FILE* %45, i8* getelementptr inbounds ([38 x i8]* @.str30, i32 0, i32 0)), !dbg !2287
  call void @exit(i32 3) noreturn nounwind, !dbg !2289
  unreachable, !dbg !2289

if.end40:                                         ; preds = %for.end
  %46 = load i32* %nUnused, align 4, !dbg !2290
  %cmp41 = icmp eq i32 %46, 0, !dbg !2290
  br i1 %cmp41, label %if.then42, label %if.end48, !dbg !2290

if.then42:                                        ; preds = %if.end40
  call void @llvm.dbg.declare(metadata !{i32* %c}, metadata !2291), !dbg !2293
  %47 = load %struct._IO_FILE** %zStream, align 8, !dbg !2293
  %call43 = call i32 @fgetc(%struct._IO_FILE* %47), !dbg !2293
  store i32 %call43, i32* %c, align 4, !dbg !2293
  %48 = load i32* %c, align 4, !dbg !2294
  %cmp44 = icmp eq i32 %48, -1, !dbg !2294
  br i1 %cmp44, label %if.then45, label %if.else, !dbg !2294

if.then45:                                        ; preds = %if.then42
  br label %while.end49, !dbg !2295

if.else:                                          ; preds = %if.then42
  %49 = load i32* %c, align 4, !dbg !2296
  %50 = load %struct._IO_FILE** %zStream, align 8, !dbg !2296
  %call46 = call i32 @ungetc(i32 %49, %struct._IO_FILE* %50), !dbg !2296
  br label %if.end47

if.end47:                                         ; preds = %if.else
  br label %if.end48, !dbg !2297

if.end48:                                         ; preds = %if.end47, %if.end40
  br label %while.body, !dbg !2298

while.end49:                                      ; preds = %if.then45
  %51 = load %struct._IO_FILE** %zStream, align 8, !dbg !2299
  %call50 = call i32 @ferror(%struct._IO_FILE* %51) nounwind, !dbg !2299
  %tobool51 = icmp ne i32 %call50, 0, !dbg !2299
  br i1 %tobool51, label %if.then52, label %if.end55, !dbg !2299

if.then52:                                        ; preds = %while.end49
  %52 = load %struct._IO_FILE** @stderr, align 8, !dbg !2300
  %53 = load i8** %fileName.addr, align 8, !dbg !2300
  %call53 = call i32 (%struct._IO_FILE*, i8*, ...)* @fprintf(%struct._IO_FILE* %52, i8* getelementptr inbounds ([57 x i8]* @.str33, i32 0, i32 0), i8* %53), !dbg !2300
  %54 = load %struct._IO_FILE** %zStream, align 8, !dbg !2302
  %call54 = call i32 @fclose(%struct._IO_FILE* %54), !dbg !2302
  store i32 -1, i32* %retval, !dbg !2303
  br label %return, !dbg !2303

if.end55:                                         ; preds = %while.end49
  %55 = load %struct._IO_FILE** %zStream, align 8, !dbg !2304
  %call56 = call i32 @fclose(%struct._IO_FILE* %55), !dbg !2304
  store i32 %call56, i32* %ret, align 4, !dbg !2304
  %56 = load i32* %ret, align 4, !dbg !2305
  %cmp57 = icmp eq i32 %56, -1, !dbg !2305
  br i1 %cmp57, label %if.then58, label %if.end60, !dbg !2305

if.then58:                                        ; preds = %if.end55
  %57 = load %struct._IO_FILE** @stderr, align 8, !dbg !2306
  %58 = load i8** %fileName.addr, align 8, !dbg !2306
  %call59 = call i32 (%struct._IO_FILE*, i8*, ...)* @fprintf(%struct._IO_FILE* %57, i8* getelementptr inbounds ([50 x i8]* @.str34, i32 0, i32 0), i8* %58), !dbg !2306
  store i32 -1, i32* %retval, !dbg !2308
  br label %return, !dbg !2308

if.end60:                                         ; preds = %if.end55
  store i32 0, i32* %retval, !dbg !2309
  br label %return, !dbg !2309

return:                                           ; preds = %if.end60, %if.then58, %if.then52, %if.then25, %if.then20, %if.then10, %if.then3, %if.then
  %59 = load i32* %retval, !dbg !2310
  ret i32 %59, !dbg !2310
}

declare %struct._IO_FILE* @fopen64(i8*, i8*)

declare i32 @ferror(%struct._IO_FILE*) nounwind

declare i32 @fclose(%struct._IO_FILE*)

declare i8* @BZ2_bzReadOpen(i32*, %struct._IO_FILE*, i32, i32, i8*, i32)

declare i32 @BZ2_bzRead(i32*, i8*, i8*, i32)

declare void @BZ2_bzReadGetUnused(i32*, i8*, i8**, i32*)

declare i32 @fgetc(%struct._IO_FILE*)

declare i32 @ungetc(i32, %struct._IO_FILE*)

define i32 @_Z15getFileMetaDataPc(i8* %fileName) nounwind uwtable {
entry:
  %fileName.addr = alloca i8*, align 8
  %ret = alloca i32, align 4
  store i8* %fileName, i8** %fileName.addr, align 8
  call void @llvm.dbg.declare(metadata !{i8** %fileName.addr}, metadata !2311), !dbg !2312
  call void @llvm.dbg.declare(metadata !{i32* %ret}, metadata !2313), !dbg !2315
  store i32 0, i32* %ret, align 4, !dbg !2315
  %0 = load i8** %fileName.addr, align 8, !dbg !2316
  %call = call i32 @stat64(i8* %0, %struct.stat* @_ZL12fileMetaData) nounwind, !dbg !2316
  store i32 %call, i32* %ret, align 4, !dbg !2316
  %1 = load i32* %ret, align 4, !dbg !2317
  ret i32 %1, !dbg !2317
}

define i32 @_Z17writeFileMetaDataPc(i8* %fileName) nounwind uwtable {
entry:
  %retval = alloca i32, align 4
  %fileName.addr = alloca i8*, align 8
  %ret = alloca i32, align 4
  %uTimBuf = alloca %struct.utimbuf, align 8
  store i8* %fileName, i8** %fileName.addr, align 8
  call void @llvm.dbg.declare(metadata !{i8** %fileName.addr}, metadata !2318), !dbg !2319
  call void @llvm.dbg.declare(metadata !{i32* %ret}, metadata !2320), !dbg !2322
  store i32 0, i32* %ret, align 4, !dbg !2322
  call void @llvm.dbg.declare(metadata !{%struct.utimbuf* %uTimBuf}, metadata !2323), !dbg !2333
  %0 = load i64* getelementptr inbounds (%struct.stat* @_ZL12fileMetaData, i32 0, i32 11, i32 0), align 8, !dbg !2334
  %actime = getelementptr inbounds %struct.utimbuf* %uTimBuf, i32 0, i32 0, !dbg !2334
  store i64 %0, i64* %actime, align 8, !dbg !2334
  %1 = load i64* getelementptr inbounds (%struct.stat* @_ZL12fileMetaData, i32 0, i32 12, i32 0), align 8, !dbg !2335
  %modtime = getelementptr inbounds %struct.utimbuf* %uTimBuf, i32 0, i32 1, !dbg !2335
  store i64 %1, i64* %modtime, align 8, !dbg !2335
  %2 = load i8** %fileName.addr, align 8, !dbg !2336
  %3 = load i32* getelementptr inbounds (%struct.stat* @_ZL12fileMetaData, i32 0, i32 3), align 4, !dbg !2336
  %call = call i32 @chmod(i8* %2, i32 %3) nounwind, !dbg !2336
  store i32 %call, i32* %ret, align 4, !dbg !2336
  %4 = load i32* %ret, align 4, !dbg !2337
  %cmp = icmp ne i32 %4, 0, !dbg !2337
  br i1 %cmp, label %if.then, label %if.end, !dbg !2337

if.then:                                          ; preds = %entry
  %5 = load i32* %ret, align 4, !dbg !2338
  store i32 %5, i32* %retval, !dbg !2338
  br label %return, !dbg !2338

if.end:                                           ; preds = %entry
  %6 = load i8** %fileName.addr, align 8, !dbg !2339
  %call1 = call i32 @utime(i8* %6, %struct.utimbuf* %uTimBuf) nounwind, !dbg !2339
  store i32 %call1, i32* %ret, align 4, !dbg !2339
  %7 = load i32* %ret, align 4, !dbg !2340
  %cmp2 = icmp ne i32 %7, 0, !dbg !2340
  br i1 %cmp2, label %if.then3, label %if.end4, !dbg !2340

if.then3:                                         ; preds = %if.end
  %8 = load i32* %ret, align 4, !dbg !2341
  store i32 %8, i32* %retval, !dbg !2341
  br label %return, !dbg !2341

if.end4:                                          ; preds = %if.end
  %9 = load i8** %fileName.addr, align 8, !dbg !2342
  %10 = load i32* getelementptr inbounds (%struct.stat* @_ZL12fileMetaData, i32 0, i32 4), align 4, !dbg !2342
  %11 = load i32* getelementptr inbounds (%struct.stat* @_ZL12fileMetaData, i32 0, i32 5), align 4, !dbg !2342
  %call5 = call i32 @chown(i8* %9, i32 %10, i32 %11) nounwind, !dbg !2342
  store i32 0, i32* %retval, !dbg !2343
  br label %return, !dbg !2343

return:                                           ; preds = %if.end4, %if.then3, %if.then
  %12 = load i32* %retval, !dbg !2344
  ret i32 %12, !dbg !2344
}

declare i32 @chmod(i8*, i32) nounwind

declare i32 @utime(i8*, %struct.utimbuf*) nounwind

declare i32 @chown(i8*, i32, i32) nounwind

define void @_Z6bannerv() uwtable {
entry:
  %0 = load %struct._IO_FILE** @stderr, align 8, !dbg !2345
  %call = call i32 (%struct._IO_FILE*, i8*, ...)* @fprintf(%struct._IO_FILE* %0, i8* getelementptr inbounds ([68 x i8]* @.str35, i32 0, i32 0)), !dbg !2345
  %1 = load %struct._IO_FILE** @stderr, align 8, !dbg !2347
  %call1 = call i32 (%struct._IO_FILE*, i8*, ...)* @fprintf(%struct._IO_FILE* %1, i8* getelementptr inbounds ([64 x i8]* @.str36, i32 0, i32 0)), !dbg !2347
  %2 = load %struct._IO_FILE** @stderr, align 8, !dbg !2348
  %call2 = call i32 (%struct._IO_FILE*, i8*, ...)* @fprintf(%struct._IO_FILE* %2, i8* getelementptr inbounds ([54 x i8]* @.str37, i32 0, i32 0)), !dbg !2348
  ret void, !dbg !2349
}

define void @_Z5usagePc(i8* %progname) uwtable {
entry:
  %progname.addr = alloca i8*, align 8
  store i8* %progname, i8** %progname.addr, align 8
  call void @llvm.dbg.declare(metadata !{i8** %progname.addr}, metadata !2350), !dbg !2351
  call void @_Z6bannerv(), !dbg !2352
  %0 = load %struct._IO_FILE** @stderr, align 8, !dbg !2354
  %call = call i32 (%struct._IO_FILE*, i8*, ...)* @fprintf(%struct._IO_FILE* %0, i8* getelementptr inbounds ([38 x i8]* @.str38, i32 0, i32 0)), !dbg !2354
  %1 = load %struct._IO_FILE** @stderr, align 8, !dbg !2355
  %2 = load i8** %progname.addr, align 8, !dbg !2355
  %call1 = call i32 (%struct._IO_FILE*, i8*, ...)* @fprintf(%struct._IO_FILE* %1, i8* getelementptr inbounds ([73 x i8]* @.str39, i32 0, i32 0), i8* %2), !dbg !2355
  %3 = load %struct._IO_FILE** @stderr, align 8, !dbg !2356
  %call2 = call i32 (%struct._IO_FILE*, i8*, ...)* @fprintf(%struct._IO_FILE* %3, i8* getelementptr inbounds ([71 x i8]* @.str40, i32 0, i32 0)), !dbg !2356
  %4 = load %struct._IO_FILE** @stderr, align 8, !dbg !2357
  %call3 = call i32 (%struct._IO_FILE*, i8*, ...)* @fprintf(%struct._IO_FILE* %4, i8* getelementptr inbounds ([45 x i8]* @.str41, i32 0, i32 0)), !dbg !2357
  %5 = load %struct._IO_FILE** @stderr, align 8, !dbg !2358
  %call4 = call i32 (%struct._IO_FILE*, i8*, ...)* @fprintf(%struct._IO_FILE* %5, i8* getelementptr inbounds ([29 x i8]* @.str42, i32 0, i32 0)), !dbg !2358
  %6 = load %struct._IO_FILE** @stderr, align 8, !dbg !2359
  %call5 = call i32 (%struct._IO_FILE*, i8*, ...)* @fprintf(%struct._IO_FILE* %6, i8* getelementptr inbounds ([51 x i8]* @.str43, i32 0, i32 0)), !dbg !2359
  %7 = load %struct._IO_FILE** @stderr, align 8, !dbg !2360
  %call6 = call i32 (%struct._IO_FILE*, i8*, ...)* @fprintf(%struct._IO_FILE* %7, i8* getelementptr inbounds ([43 x i8]* @.str44, i32 0, i32 0)), !dbg !2360
  %8 = load %struct._IO_FILE** @stderr, align 8, !dbg !2361
  %call7 = call i32 (%struct._IO_FILE*, i8*, ...)* @fprintf(%struct._IO_FILE* %8, i8* getelementptr inbounds ([57 x i8]* @.str45, i32 0, i32 0)), !dbg !2361
  %9 = load %struct._IO_FILE** @stderr, align 8, !dbg !2362
  %call8 = call i32 (%struct._IO_FILE*, i8*, ...)* @fprintf(%struct._IO_FILE* %9, i8* getelementptr inbounds ([15 x i8]* @.str46, i32 0, i32 0)), !dbg !2362
  %10 = load %struct._IO_FILE** @stderr, align 8, !dbg !2363
  %call9 = call i32 (%struct._IO_FILE*, i8*, ...)* @fprintf(%struct._IO_FILE* %10, i8* getelementptr inbounds ([53 x i8]* @.str47, i32 0, i32 0)), !dbg !2363
  %11 = load %struct._IO_FILE** @stderr, align 8, !dbg !2364
  %call10 = call i32 (%struct._IO_FILE*, i8*, ...)* @fprintf(%struct._IO_FILE* %11, i8* getelementptr inbounds ([74 x i8]* @.str48, i32 0, i32 0)), !dbg !2364
  %12 = load %struct._IO_FILE** @stderr, align 8, !dbg !2365
  %call11 = call i32 (%struct._IO_FILE*, i8*, ...)* @fprintf(%struct._IO_FILE* %12, i8* getelementptr inbounds ([44 x i8]* @.str49, i32 0, i32 0)), !dbg !2365
  %13 = load %struct._IO_FILE** @stderr, align 8, !dbg !2366
  %call12 = call i32 (%struct._IO_FILE*, i8*, ...)* @fprintf(%struct._IO_FILE* %13, i8* getelementptr inbounds ([55 x i8]* @.str50, i32 0, i32 0)), !dbg !2366
  %14 = load %struct._IO_FILE** @stderr, align 8, !dbg !2367
  %call13 = call i32 (%struct._IO_FILE*, i8*, ...)* @fprintf(%struct._IO_FILE* %14, i8* getelementptr inbounds ([64 x i8]* @.str51, i32 0, i32 0)), !dbg !2367
  %15 = load %struct._IO_FILE** @stderr, align 8, !dbg !2368
  %call14 = call i32 (%struct._IO_FILE*, i8*, ...)* @fprintf(%struct._IO_FILE* %15, i8* getelementptr inbounds ([35 x i8]* @.str52, i32 0, i32 0)), !dbg !2368
  %16 = load %struct._IO_FILE** @stderr, align 8, !dbg !2369
  %call15 = call i32 (%struct._IO_FILE*, i8*, ...)* @fprintf(%struct._IO_FILE* %16, i8* getelementptr inbounds ([50 x i8]* @.str53, i32 0, i32 0)), !dbg !2369
  %17 = load %struct._IO_FILE** @stderr, align 8, !dbg !2370
  %call16 = call i32 (%struct._IO_FILE*, i8*, ...)* @fprintf(%struct._IO_FILE* %17, i8* getelementptr inbounds ([36 x i8]* @.str54, i32 0, i32 0)), !dbg !2370
  call void @exit(i32 -1) noreturn nounwind, !dbg !2371
  unreachable, !dbg !2371

return:                                           ; No predecessors!
  ret void, !dbg !2372
}

define i32 @main(i32 %argc, i8** %argv) uwtable {
entry:
  %retval = alloca i32, align 4
  %argc.addr = alloca i32, align 4
  %argv.addr = alloca i8**, align 8
  %fifo = alloca %struct.queue*, align 8
  %con = alloca i64, align 8
  %output = alloca i64, align 8
  %FileList = alloca i8**, align 8
  %InFilename = alloca i8*, align 8
  %bz2Header = alloca [11 x i8], align 1
  %OutFilename = alloca [255 x i8], align 16
  %cmdLineTemp = alloca [255 x i8], align 16
  %tmpBuff = alloca [50 x i8], align 16
  %tvStartTime = alloca %struct.timeval, align 8
  %tvStopTime = alloca %struct.timeval, align 8
  %tz = alloca %struct.timezone, align 4
  %statbuf = alloca %struct.stat, align 8
  %timeCalc = alloca double, align 8
  %timeStart = alloca double, align 8
  %timeStop = alloca double, align 8
  %fileSize = alloca i64, align 8
  %size = alloca i64, align 8
  %cmdLineTempCount = alloca i32, align 4
  %readEntireFile = alloca i32, align 4
  %numCPU = alloca i32, align 4
  %hInfile = alloca i32, align 4
  %hOutfile = alloca i32, align 4
  %numBlocks = alloca i32, align 4
  %blockSize = alloca i32, align 4
  %decompress = alloca i32, align 4
  %testFile = alloca i32, align 4
  %keep = alloca i32, align 4
  %force = alloca i32, align 4
  %ret = alloca i32, align 4
  %i = alloca i32, align 4
  %j = alloca i32, align 4
  %k = alloca i32, align 4
  %fileLoop = alloca i32, align 4
  %errLevel = alloca i32, align 4
  %agg.tmp = alloca %struct.outBuff, align 8
  store i32 0, i32* %retval
  store i32 %argc, i32* %argc.addr, align 4
  call void @llvm.dbg.declare(metadata !{i32* %argc.addr}, metadata !2373), !dbg !2374
  store i8** %argv, i8*** %argv.addr, align 8
  call void @llvm.dbg.declare(metadata !{i8*** %argv.addr}, metadata !2375), !dbg !2374
  call void @llvm.dbg.declare(metadata !{%struct.queue** %fifo}, metadata !2376), !dbg !2378
  call void @llvm.dbg.declare(metadata !{i64* %con}, metadata !2379), !dbg !2381
  call void @llvm.dbg.declare(metadata !{i64* %output}, metadata !2382), !dbg !2381
  call void @llvm.dbg.declare(metadata !{i8*** %FileList}, metadata !2383), !dbg !2384
  store i8** null, i8*** %FileList, align 8, !dbg !2384
  call void @llvm.dbg.declare(metadata !{i8** %InFilename}, metadata !2385), !dbg !2386
  store i8* null, i8** %InFilename, align 8, !dbg !2386
  call void @llvm.dbg.declare(metadata !{[11 x i8]* %bz2Header}, metadata !2387), !dbg !2388
  %0 = bitcast [11 x i8]* %bz2Header to i8*, !dbg !2388
  call void @llvm.memcpy.p0i8.p0i8.i64(i8* %0, i8* getelementptr inbounds ([11 x i8]* @_ZZ4mainE9bz2Header, i32 0, i32 0), i64 11, i32 1, i1 false), !dbg !2388
  call void @llvm.dbg.declare(metadata !{[255 x i8]* %OutFilename}, metadata !2389), !dbg !2393
  call void @llvm.dbg.declare(metadata !{[255 x i8]* %cmdLineTemp}, metadata !2394), !dbg !2395
  call void @llvm.dbg.declare(metadata !{[50 x i8]* %tmpBuff}, metadata !2396), !dbg !2400
  call void @llvm.dbg.declare(metadata !{%struct.timeval* %tvStartTime}, metadata !2401), !dbg !2402
  call void @llvm.dbg.declare(metadata !{%struct.timeval* %tvStopTime}, metadata !2403), !dbg !2404
  call void @llvm.dbg.declare(metadata !{%struct.timezone* %tz}, metadata !2405), !dbg !2406
  call void @llvm.dbg.declare(metadata !{%struct.stat* %statbuf}, metadata !2407), !dbg !2408
  call void @llvm.dbg.declare(metadata !{double* %timeCalc}, metadata !2409), !dbg !2411
  store double 0.000000e+00, double* %timeCalc, align 8, !dbg !2411
  call void @llvm.dbg.declare(metadata !{double* %timeStart}, metadata !2412), !dbg !2413
  store double 0.000000e+00, double* %timeStart, align 8, !dbg !2413
  call void @llvm.dbg.declare(metadata !{double* %timeStop}, metadata !2414), !dbg !2415
  store double 0.000000e+00, double* %timeStop, align 8, !dbg !2415
  call void @llvm.dbg.declare(metadata !{i64* %fileSize}, metadata !2416), !dbg !2417
  store i64 0, i64* %fileSize, align 8, !dbg !2417
  call void @llvm.dbg.declare(metadata !{i64* %size}, metadata !2418), !dbg !2419
  call void @llvm.dbg.declare(metadata !{i32* %cmdLineTempCount}, metadata !2420), !dbg !2421
  store i32 0, i32* %cmdLineTempCount, align 4, !dbg !2421
  call void @llvm.dbg.declare(metadata !{i32* %readEntireFile}, metadata !2422), !dbg !2423
  store i32 0, i32* %readEntireFile, align 4, !dbg !2423
  call void @llvm.dbg.declare(metadata !{i32* %numCPU}, metadata !2424), !dbg !2425
  store i32 2, i32* %numCPU, align 4, !dbg !2425
  call void @llvm.dbg.declare(metadata !{i32* %hInfile}, metadata !2426), !dbg !2427
  store i32 -1, i32* %hInfile, align 4, !dbg !2427
  call void @llvm.dbg.declare(metadata !{i32* %hOutfile}, metadata !2428), !dbg !2429
  store i32 -1, i32* %hOutfile, align 4, !dbg !2429
  call void @llvm.dbg.declare(metadata !{i32* %numBlocks}, metadata !2430), !dbg !2431
  store i32 0, i32* %numBlocks, align 4, !dbg !2431
  call void @llvm.dbg.declare(metadata !{i32* %blockSize}, metadata !2432), !dbg !2433
  store i32 900000, i32* %blockSize, align 4, !dbg !2433
  call void @llvm.dbg.declare(metadata !{i32* %decompress}, metadata !2434), !dbg !2435
  store i32 0, i32* %decompress, align 4, !dbg !2435
  call void @llvm.dbg.declare(metadata !{i32* %testFile}, metadata !2436), !dbg !2437
  store i32 0, i32* %testFile, align 4, !dbg !2437
  call void @llvm.dbg.declare(metadata !{i32* %keep}, metadata !2438), !dbg !2439
  store i32 0, i32* %keep, align 4, !dbg !2439
  call void @llvm.dbg.declare(metadata !{i32* %force}, metadata !2440), !dbg !2441
  store i32 0, i32* %force, align 4, !dbg !2441
  call void @llvm.dbg.declare(metadata !{i32* %ret}, metadata !2442), !dbg !2443
  store i32 0, i32* %ret, align 4, !dbg !2443
  call void @llvm.dbg.declare(metadata !{i32* %i}, metadata !2444), !dbg !2445
  call void @llvm.dbg.declare(metadata !{i32* %j}, metadata !2446), !dbg !2445
  call void @llvm.dbg.declare(metadata !{i32* %k}, metadata !2447), !dbg !2445
  call void @llvm.dbg.declare(metadata !{i32* %fileLoop}, metadata !2448), !dbg !2449
  call void @llvm.dbg.declare(metadata !{i32* %errLevel}, metadata !2450), !dbg !2451
  store i32 0, i32* %errLevel, align 4, !dbg !2451
  %call = call i32 @gettimeofday(%struct.timeval* %tvStartTime, %struct.timezone* %tz) nounwind, !dbg !2452
  %1 = load i32* %argc.addr, align 4, !dbg !2453
  %cmp = icmp slt i32 %1, 2, !dbg !2453
  br i1 %cmp, label %if.then, label %if.end, !dbg !2453

if.then:                                          ; preds = %entry
  %2 = load i8*** %argv.addr, align 8, !dbg !2454
  %arrayidx = getelementptr inbounds i8** %2, i64 0, !dbg !2454
  %3 = load i8** %arrayidx, align 8, !dbg !2454
  call void @_Z5usagePc(i8* %3), !dbg !2454
  br label %if.end, !dbg !2456

if.end:                                           ; preds = %if.then, %entry
  store i32 0, i32* @_ZL13FileListCount, align 4, !dbg !2457
  %4 = load i32* %argc.addr, align 4, !dbg !2458
  %5 = sext i32 %4 to i64, !dbg !2458
  %6 = call { i64, i1 } @llvm.umul.with.overflow.i64(i64 %5, i64 8), !dbg !2458
  %7 = extractvalue { i64, i1 } %6, 1, !dbg !2458
  %8 = extractvalue { i64, i1 } %6, 0, !dbg !2458
  %9 = select i1 %7, i64 -1, i64 %8, !dbg !2458
  %call1 = call noalias i8* @_Znam(i64 %9), !dbg !2458
  %10 = bitcast i8* %call1 to i8**, !dbg !2458
  store i8** %10, i8*** %FileList, align 8, !dbg !2458
  %11 = load i8*** %FileList, align 8, !dbg !2459
  %cmp2 = icmp eq i8** %11, null, !dbg !2459
  br i1 %cmp2, label %if.then3, label %if.end5, !dbg !2459

if.then3:                                         ; preds = %if.end
  %12 = load %struct._IO_FILE** @stderr, align 8, !dbg !2460
  %call4 = call i32 (%struct._IO_FILE*, i8*, ...)* @fprintf(%struct._IO_FILE* %12, i8* getelementptr inbounds ([42 x i8]* @.str55, i32 0, i32 0)), !dbg !2460
  store i32 1, i32* %retval, !dbg !2462
  br label %return, !dbg !2462

if.end5:                                          ; preds = %if.end
  %call6 = call i64 @sysconf(i32 84) nounwind, !dbg !2463
  %conv = trunc i64 %call6 to i32, !dbg !2463
  store i32 %conv, i32* %numCPU, align 4, !dbg !2463
  store i32 1, i32* %i, align 4, !dbg !2464
  br label %for.cond, !dbg !2464

for.cond:                                         ; preds = %for.inc131, %if.end5
  %13 = load i32* %i, align 4, !dbg !2464
  %14 = load i32* %argc.addr, align 4, !dbg !2464
  %cmp7 = icmp slt i32 %13, %14, !dbg !2464
  br i1 %cmp7, label %for.body, label %for.end133, !dbg !2464

for.body:                                         ; preds = %for.cond
  %15 = load i32* %i, align 4, !dbg !2466
  %idxprom = sext i32 %15 to i64, !dbg !2466
  %16 = load i8*** %argv.addr, align 8, !dbg !2466
  %arrayidx8 = getelementptr inbounds i8** %16, i64 %idxprom, !dbg !2466
  %17 = load i8** %arrayidx8, align 8, !dbg !2466
  %arrayidx9 = getelementptr inbounds i8* %17, i64 0, !dbg !2466
  %18 = load i8* %arrayidx9, align 1, !dbg !2466
  %conv10 = sext i8 %18 to i32, !dbg !2466
  %cmp11 = icmp eq i32 %conv10, 45, !dbg !2466
  br i1 %cmp11, label %if.then12, label %if.else124, !dbg !2466

if.then12:                                        ; preds = %for.body
  store i32 1, i32* %j, align 4, !dbg !2468
  br label %for.cond13, !dbg !2468

for.cond13:                                       ; preds = %for.inc, %if.then12
  %19 = load i32* %j, align 4, !dbg !2468
  %idxprom14 = sext i32 %19 to i64, !dbg !2468
  %20 = load i32* %i, align 4, !dbg !2468
  %idxprom15 = sext i32 %20 to i64, !dbg !2468
  %21 = load i8*** %argv.addr, align 8, !dbg !2468
  %arrayidx16 = getelementptr inbounds i8** %21, i64 %idxprom15, !dbg !2468
  %22 = load i8** %arrayidx16, align 8, !dbg !2468
  %arrayidx17 = getelementptr inbounds i8* %22, i64 %idxprom14, !dbg !2468
  %23 = load i8* %arrayidx17, align 1, !dbg !2468
  %conv18 = sext i8 %23 to i32, !dbg !2468
  %cmp19 = icmp ne i32 %conv18, 0, !dbg !2468
  br i1 %cmp19, label %for.body20, label %for.end, !dbg !2468

for.body20:                                       ; preds = %for.cond13
  %24 = load i32* %j, align 4, !dbg !2471
  %idxprom21 = sext i32 %24 to i64, !dbg !2471
  %25 = load i32* %i, align 4, !dbg !2471
  %idxprom22 = sext i32 %25 to i64, !dbg !2471
  %26 = load i8*** %argv.addr, align 8, !dbg !2471
  %arrayidx23 = getelementptr inbounds i8** %26, i64 %idxprom22, !dbg !2471
  %27 = load i8** %arrayidx23, align 8, !dbg !2471
  %arrayidx24 = getelementptr inbounds i8* %27, i64 %idxprom21, !dbg !2471
  %28 = load i8* %arrayidx24, align 1, !dbg !2471
  %conv25 = sext i8 %28 to i32, !dbg !2471
  switch i32 %conv25, label %sw.epilog [
    i32 112, label %sw.bb
    i32 98, label %sw.bb71
    i32 100, label %sw.bb106
    i32 99, label %sw.bb107
    i32 102, label %sw.bb108
    i32 107, label %sw.bb109
    i32 113, label %sw.bb110
    i32 114, label %sw.bb111
    i32 116, label %sw.bb112
    i32 86, label %sw.bb113
    i32 49, label %sw.bb114
    i32 50, label %sw.bb115
    i32 51, label %sw.bb116
    i32 52, label %sw.bb117
    i32 53, label %sw.bb118
    i32 54, label %sw.bb119
    i32 55, label %sw.bb120
    i32 56, label %sw.bb121
    i32 57, label %sw.bb122
  ], !dbg !2471

sw.bb:                                            ; preds = %for.body20
  %29 = load i32* %j, align 4, !dbg !2473
  %add = add nsw i32 %29, 1, !dbg !2473
  store i32 %add, i32* %k, align 4, !dbg !2473
  store i32 0, i32* %cmdLineTempCount, align 4, !dbg !2473
  %arraydecay = getelementptr inbounds [255 x i8]* %cmdLineTemp, i32 0, i32 0, !dbg !2473
  %call26 = call i8* @strcpy(i8* %arraydecay, i8* getelementptr inbounds ([2 x i8]* @.str56, i32 0, i32 0)) nounwind, !dbg !2473
  br label %while.cond, !dbg !2475

while.cond:                                       ; preds = %if.end48, %sw.bb
  %30 = load i32* %k, align 4, !dbg !2475
  %idxprom27 = sext i32 %30 to i64, !dbg !2475
  %31 = load i32* %i, align 4, !dbg !2475
  %idxprom28 = sext i32 %31 to i64, !dbg !2475
  %32 = load i8*** %argv.addr, align 8, !dbg !2475
  %arrayidx29 = getelementptr inbounds i8** %32, i64 %idxprom28, !dbg !2475
  %33 = load i8** %arrayidx29, align 8, !dbg !2475
  %arrayidx30 = getelementptr inbounds i8* %33, i64 %idxprom27, !dbg !2475
  %34 = load i8* %arrayidx30, align 1, !dbg !2475
  %conv31 = sext i8 %34 to i32, !dbg !2475
  %cmp32 = icmp ne i32 %conv31, 0, !dbg !2475
  br i1 %cmp32, label %land.rhs, label %land.end, !dbg !2475

land.rhs:                                         ; preds = %while.cond
  %35 = load i32* %k, align 4, !dbg !2475
  %conv33 = sext i32 %35 to i64, !dbg !2475
  %cmp34 = icmp ult i64 %conv33, 255, !dbg !2475
  br label %land.end

land.end:                                         ; preds = %land.rhs, %while.cond
  %36 = phi i1 [ false, %while.cond ], [ %cmp34, %land.rhs ]
  br i1 %36, label %while.body, label %while.end

while.body:                                       ; preds = %land.end
  %37 = load i32* %k, align 4, !dbg !2476
  %idxprom35 = sext i32 %37 to i64, !dbg !2476
  %38 = load i32* %i, align 4, !dbg !2476
  %idxprom36 = sext i32 %38 to i64, !dbg !2476
  %39 = load i8*** %argv.addr, align 8, !dbg !2476
  %arrayidx37 = getelementptr inbounds i8** %39, i64 %idxprom36, !dbg !2476
  %40 = load i8** %arrayidx37, align 8, !dbg !2476
  %arrayidx38 = getelementptr inbounds i8* %40, i64 %idxprom35, !dbg !2476
  %41 = load i8* %arrayidx38, align 1, !dbg !2476
  %conv39 = sext i8 %41 to i32, !dbg !2476
  %cmp40 = icmp slt i32 %conv39, 48, !dbg !2476
  br i1 %cmp40, label %if.then47, label %lor.lhs.false, !dbg !2476

lor.lhs.false:                                    ; preds = %while.body
  %42 = load i32* %k, align 4, !dbg !2476
  %idxprom41 = sext i32 %42 to i64, !dbg !2476
  %43 = load i32* %i, align 4, !dbg !2476
  %idxprom42 = sext i32 %43 to i64, !dbg !2476
  %44 = load i8*** %argv.addr, align 8, !dbg !2476
  %arrayidx43 = getelementptr inbounds i8** %44, i64 %idxprom42, !dbg !2476
  %45 = load i8** %arrayidx43, align 8, !dbg !2476
  %arrayidx44 = getelementptr inbounds i8* %45, i64 %idxprom41, !dbg !2476
  %46 = load i8* %arrayidx44, align 1, !dbg !2476
  %conv45 = sext i8 %46 to i32, !dbg !2476
  %cmp46 = icmp sgt i32 %conv45, 57, !dbg !2476
  br i1 %cmp46, label %if.then47, label %if.end48, !dbg !2476

if.then47:                                        ; preds = %lor.lhs.false, %while.body
  br label %while.end, !dbg !2478

if.end48:                                         ; preds = %lor.lhs.false
  %47 = load i32* %k, align 4, !dbg !2479
  %inc = add nsw i32 %47, 1, !dbg !2479
  store i32 %inc, i32* %k, align 4, !dbg !2479
  %48 = load i32* %cmdLineTempCount, align 4, !dbg !2480
  %inc49 = add nsw i32 %48, 1, !dbg !2480
  store i32 %inc49, i32* %cmdLineTempCount, align 4, !dbg !2480
  br label %while.cond, !dbg !2481

while.end:                                        ; preds = %if.then47, %land.end
  %49 = load i32* %cmdLineTempCount, align 4, !dbg !2482
  %cmp50 = icmp eq i32 %49, 0, !dbg !2482
  br i1 %cmp50, label %if.then51, label %if.end53, !dbg !2482

if.then51:                                        ; preds = %while.end
  %50 = load i8*** %argv.addr, align 8, !dbg !2483
  %arrayidx52 = getelementptr inbounds i8** %50, i64 0, !dbg !2483
  %51 = load i8** %arrayidx52, align 8, !dbg !2483
  call void @_Z5usagePc(i8* %51), !dbg !2483
  br label %if.end53, !dbg !2483

if.end53:                                         ; preds = %if.then51, %while.end
  %arraydecay54 = getelementptr inbounds [255 x i8]* %cmdLineTemp, i32 0, i32 0, !dbg !2484
  %52 = load i32* %i, align 4, !dbg !2484
  %idxprom55 = sext i32 %52 to i64, !dbg !2484
  %53 = load i8*** %argv.addr, align 8, !dbg !2484
  %arrayidx56 = getelementptr inbounds i8** %53, i64 %idxprom55, !dbg !2484
  %54 = load i8** %arrayidx56, align 8, !dbg !2484
  %55 = load i32* %j, align 4, !dbg !2484
  %idx.ext = sext i32 %55 to i64, !dbg !2484
  %add.ptr = getelementptr inbounds i8* %54, i64 %idx.ext, !dbg !2484
  %add.ptr57 = getelementptr inbounds i8* %add.ptr, i64 1, !dbg !2484
  %56 = load i32* %cmdLineTempCount, align 4, !dbg !2484
  %conv58 = sext i32 %56 to i64, !dbg !2484
  %call59 = call i8* @strncpy(i8* %arraydecay54, i8* %add.ptr57, i64 %conv58) nounwind, !dbg !2484
  %arraydecay60 = getelementptr inbounds [255 x i8]* %cmdLineTemp, i32 0, i32 0, !dbg !2485
  %call61 = call i32 @atoi(i8* %arraydecay60) nounwind readonly, !dbg !2485
  store i32 %call61, i32* %numCPU, align 4, !dbg !2485
  %57 = load i32* %numCPU, align 4, !dbg !2486
  %cmp62 = icmp sgt i32 %57, 4096, !dbg !2486
  br i1 %cmp62, label %if.then63, label %if.else, !dbg !2486

if.then63:                                        ; preds = %if.end53
  %58 = load %struct._IO_FILE** @stderr, align 8, !dbg !2487
  %call64 = call i32 (%struct._IO_FILE*, i8*, ...)* @fprintf(%struct._IO_FILE* %58, i8* getelementptr inbounds ([71 x i8]* @.str57, i32 0, i32 0)), !dbg !2487
  store i32 1, i32* %retval, !dbg !2489
  br label %return, !dbg !2489

if.else:                                          ; preds = %if.end53
  %59 = load i32* %numCPU, align 4, !dbg !2490
  %cmp65 = icmp slt i32 %59, 1, !dbg !2490
  br i1 %cmp65, label %if.then66, label %if.end68, !dbg !2490

if.then66:                                        ; preds = %if.else
  %60 = load %struct._IO_FILE** @stderr, align 8, !dbg !2491
  %call67 = call i32 (%struct._IO_FILE*, i8*, ...)* @fprintf(%struct._IO_FILE* %60, i8* getelementptr inbounds ([68 x i8]* @.str58, i32 0, i32 0)), !dbg !2491
  store i32 1, i32* %retval, !dbg !2493
  br label %return, !dbg !2493

if.end68:                                         ; preds = %if.else
  br label %if.end69

if.end69:                                         ; preds = %if.end68
  %61 = load i32* %cmdLineTempCount, align 4, !dbg !2494
  %62 = load i32* %j, align 4, !dbg !2494
  %add70 = add nsw i32 %62, %61, !dbg !2494
  store i32 %add70, i32* %j, align 4, !dbg !2494
  br label %sw.epilog, !dbg !2495

sw.bb71:                                          ; preds = %for.body20
  store i32 0, i32* %cmdLineTempCount, align 4, !dbg !2496
  store i32 900000, i32* %blockSize, align 4, !dbg !2496
  %63 = load i32* %j, align 4, !dbg !2497
  %add72 = add nsw i32 %63, 1, !dbg !2497
  %idxprom73 = sext i32 %add72 to i64, !dbg !2497
  %64 = load i32* %i, align 4, !dbg !2497
  %idxprom74 = sext i32 %64 to i64, !dbg !2497
  %65 = load i8*** %argv.addr, align 8, !dbg !2497
  %arrayidx75 = getelementptr inbounds i8** %65, i64 %idxprom74, !dbg !2497
  %66 = load i8** %arrayidx75, align 8, !dbg !2497
  %arrayidx76 = getelementptr inbounds i8* %66, i64 %idxprom73, !dbg !2497
  %67 = load i8* %arrayidx76, align 1, !dbg !2497
  %tobool = icmp ne i8 %67, 0, !dbg !2497
  br i1 %tobool, label %if.then77, label %if.else102, !dbg !2497

if.then77:                                        ; preds = %sw.bb71
  %68 = load i32* %j, align 4, !dbg !2498
  %add78 = add nsw i32 %68, 1, !dbg !2498
  %idxprom79 = sext i32 %add78 to i64, !dbg !2498
  %69 = load i32* %i, align 4, !dbg !2498
  %idxprom80 = sext i32 %69 to i64, !dbg !2498
  %70 = load i8*** %argv.addr, align 8, !dbg !2498
  %arrayidx81 = getelementptr inbounds i8** %70, i64 %idxprom80, !dbg !2498
  %71 = load i8** %arrayidx81, align 8, !dbg !2498
  %arrayidx82 = getelementptr inbounds i8* %71, i64 %idxprom79, !dbg !2498
  %72 = load i8* %arrayidx82, align 1, !dbg !2498
  %conv83 = sext i8 %72 to i32, !dbg !2498
  %cmp84 = icmp slt i32 %conv83, 49, !dbg !2498
  br i1 %cmp84, label %if.then93, label %lor.lhs.false85, !dbg !2498

lor.lhs.false85:                                  ; preds = %if.then77
  %73 = load i32* %j, align 4, !dbg !2498
  %add86 = add nsw i32 %73, 1, !dbg !2498
  %idxprom87 = sext i32 %add86 to i64, !dbg !2498
  %74 = load i32* %i, align 4, !dbg !2498
  %idxprom88 = sext i32 %74 to i64, !dbg !2498
  %75 = load i8*** %argv.addr, align 8, !dbg !2498
  %arrayidx89 = getelementptr inbounds i8** %75, i64 %idxprom88, !dbg !2498
  %76 = load i8** %arrayidx89, align 8, !dbg !2498
  %arrayidx90 = getelementptr inbounds i8* %76, i64 %idxprom87, !dbg !2498
  %77 = load i8* %arrayidx90, align 1, !dbg !2498
  %conv91 = sext i8 %77 to i32, !dbg !2498
  %cmp92 = icmp sgt i32 %conv91, 57, !dbg !2498
  br i1 %cmp92, label %if.then93, label %if.end95, !dbg !2498

if.then93:                                        ; preds = %lor.lhs.false85, %if.then77
  %78 = load %struct._IO_FILE** @stderr, align 8, !dbg !2500
  %call94 = call i32 (%struct._IO_FILE*, i8*, ...)* @fprintf(%struct._IO_FILE* %78, i8* getelementptr inbounds ([72 x i8]* @.str59, i32 0, i32 0)), !dbg !2500
  store i32 1, i32* %retval, !dbg !2502
  br label %return, !dbg !2502

if.end95:                                         ; preds = %lor.lhs.false85
  %79 = load i32* %j, align 4, !dbg !2503
  %add96 = add nsw i32 %79, 1, !dbg !2503
  %idxprom97 = sext i32 %add96 to i64, !dbg !2503
  %80 = load i32* %i, align 4, !dbg !2503
  %idxprom98 = sext i32 %80 to i64, !dbg !2503
  %81 = load i8*** %argv.addr, align 8, !dbg !2503
  %arrayidx99 = getelementptr inbounds i8** %81, i64 %idxprom98, !dbg !2503
  %82 = load i8** %arrayidx99, align 8, !dbg !2503
  %arrayidx100 = getelementptr inbounds i8* %82, i64 %idxprom97, !dbg !2503
  %83 = load i8* %arrayidx100, align 1, !dbg !2503
  %conv101 = sext i8 %83 to i32, !dbg !2503
  %sub = sub nsw i32 %conv101, 48, !dbg !2503
  %mul = mul nsw i32 %sub, 100000, !dbg !2503
  store i32 %mul, i32* %blockSize, align 4, !dbg !2503
  br label %if.end104, !dbg !2504

if.else102:                                       ; preds = %sw.bb71
  %84 = load i8*** %argv.addr, align 8, !dbg !2505
  %arrayidx103 = getelementptr inbounds i8** %84, i64 0, !dbg !2505
  %85 = load i8** %arrayidx103, align 8, !dbg !2505
  call void @_Z5usagePc(i8* %85), !dbg !2505
  br label %if.end104

if.end104:                                        ; preds = %if.else102, %if.end95
  %86 = load i32* %j, align 4, !dbg !2507
  %inc105 = add nsw i32 %86, 1, !dbg !2507
  store i32 %inc105, i32* %j, align 4, !dbg !2507
  br label %sw.epilog, !dbg !2508

sw.bb106:                                         ; preds = %for.body20
  store i32 1, i32* %decompress, align 4, !dbg !2509
  br label %sw.epilog, !dbg !2509

sw.bb107:                                         ; preds = %for.body20
  store i32 1, i32* @_ZL12OutputStdOut, align 4, !dbg !2510
  store i32 1, i32* %keep, align 4, !dbg !2510
  br label %sw.epilog, !dbg !2510

sw.bb108:                                         ; preds = %for.body20
  store i32 1, i32* %force, align 4, !dbg !2511
  br label %sw.epilog, !dbg !2511

sw.bb109:                                         ; preds = %for.body20
  store i32 1, i32* %keep, align 4, !dbg !2512
  br label %sw.epilog, !dbg !2512

sw.bb110:                                         ; preds = %for.body20
  store i32 1, i32* @_ZL9QuietMode, align 4, !dbg !2513
  br label %sw.epilog, !dbg !2513

sw.bb111:                                         ; preds = %for.body20
  store i32 1, i32* %readEntireFile, align 4, !dbg !2514
  br label %sw.epilog, !dbg !2514

sw.bb112:                                         ; preds = %for.body20
  store i32 1, i32* %testFile, align 4, !dbg !2515
  br label %sw.epilog, !dbg !2515

sw.bb113:                                         ; preds = %for.body20
  call void @_Z6bannerv(), !dbg !2516
  call void @exit(i32 0) noreturn nounwind, !dbg !2516
  unreachable, !dbg !2516

sw.bb114:                                         ; preds = %for.body20
  store i32 1, i32* @_ZL12BWTblockSize, align 4, !dbg !2517
  br label %sw.epilog, !dbg !2517

sw.bb115:                                         ; preds = %for.body20
  store i32 2, i32* @_ZL12BWTblockSize, align 4, !dbg !2518
  br label %sw.epilog, !dbg !2518

sw.bb116:                                         ; preds = %for.body20
  store i32 3, i32* @_ZL12BWTblockSize, align 4, !dbg !2519
  br label %sw.epilog, !dbg !2519

sw.bb117:                                         ; preds = %for.body20
  store i32 4, i32* @_ZL12BWTblockSize, align 4, !dbg !2520
  br label %sw.epilog, !dbg !2520

sw.bb118:                                         ; preds = %for.body20
  store i32 5, i32* @_ZL12BWTblockSize, align 4, !dbg !2521
  br label %sw.epilog, !dbg !2521

sw.bb119:                                         ; preds = %for.body20
  store i32 6, i32* @_ZL12BWTblockSize, align 4, !dbg !2522
  br label %sw.epilog, !dbg !2522

sw.bb120:                                         ; preds = %for.body20
  store i32 7, i32* @_ZL12BWTblockSize, align 4, !dbg !2523
  br label %sw.epilog, !dbg !2523

sw.bb121:                                         ; preds = %for.body20
  store i32 8, i32* @_ZL12BWTblockSize, align 4, !dbg !2524
  br label %sw.epilog, !dbg !2524

sw.bb122:                                         ; preds = %for.body20
  store i32 9, i32* @_ZL12BWTblockSize, align 4, !dbg !2525
  br label %sw.epilog, !dbg !2525

sw.epilog:                                        ; preds = %sw.bb122, %sw.bb121, %sw.bb120, %sw.bb119, %sw.bb118, %sw.bb117, %sw.bb116, %sw.bb115, %sw.bb114, %sw.bb112, %sw.bb111, %sw.bb110, %sw.bb109, %sw.bb108, %sw.bb107, %sw.bb106, %if.end104, %if.end69, %for.body20
  br label %for.inc, !dbg !2526

for.inc:                                          ; preds = %sw.epilog
  %87 = load i32* %j, align 4, !dbg !2468
  %inc123 = add nsw i32 %87, 1, !dbg !2468
  store i32 %inc123, i32* %j, align 4, !dbg !2468
  br label %for.cond13, !dbg !2468

for.end:                                          ; preds = %for.cond13
  br label %if.end130, !dbg !2527

if.else124:                                       ; preds = %for.body
  %88 = load i32* %i, align 4, !dbg !2528
  %idxprom125 = sext i32 %88 to i64, !dbg !2528
  %89 = load i8*** %argv.addr, align 8, !dbg !2528
  %arrayidx126 = getelementptr inbounds i8** %89, i64 %idxprom125, !dbg !2528
  %90 = load i8** %arrayidx126, align 8, !dbg !2528
  %91 = load i32* @_ZL13FileListCount, align 4, !dbg !2528
  %idxprom127 = sext i32 %91 to i64, !dbg !2528
  %92 = load i8*** %FileList, align 8, !dbg !2528
  %arrayidx128 = getelementptr inbounds i8** %92, i64 %idxprom127, !dbg !2528
  store i8* %90, i8** %arrayidx128, align 8, !dbg !2528
  %93 = load i32* @_ZL13FileListCount, align 4, !dbg !2530
  %inc129 = add nsw i32 %93, 1, !dbg !2530
  store i32 %inc129, i32* @_ZL13FileListCount, align 4, !dbg !2530
  br label %if.end130

if.end130:                                        ; preds = %if.else124, %for.end
  br label %for.inc131, !dbg !2531

for.inc131:                                       ; preds = %if.end130
  %94 = load i32* %i, align 4, !dbg !2464
  %inc132 = add nsw i32 %94, 1, !dbg !2464
  store i32 %inc132, i32* %i, align 4, !dbg !2464
  br label %for.cond, !dbg !2464

for.end133:                                       ; preds = %for.cond
  %95 = load i32* @_ZL13FileListCount, align 4, !dbg !2532
  %cmp134 = icmp eq i32 %95, 0, !dbg !2532
  br i1 %cmp134, label %if.then135, label %if.end137, !dbg !2532

if.then135:                                       ; preds = %for.end133
  %96 = load i8*** %argv.addr, align 8, !dbg !2533
  %arrayidx136 = getelementptr inbounds i8** %96, i64 0, !dbg !2533
  %97 = load i8** %arrayidx136, align 8, !dbg !2533
  call void @_Z5usagePc(i8* %97), !dbg !2533
  br label %if.end137, !dbg !2533

if.end137:                                        ; preds = %if.then135, %for.end133
  %98 = load i32* @_ZL9QuietMode, align 4, !dbg !2534
  %cmp138 = icmp ne i32 %98, 1, !dbg !2534
  br i1 %cmp138, label %if.then139, label %if.end140, !dbg !2534

if.then139:                                       ; preds = %if.end137
  call void @_Z6bannerv(), !dbg !2535
  br label %if.end140, !dbg !2537

if.end140:                                        ; preds = %if.then139, %if.end137
  store i8* null, i8** @_ZL13sigInFilename, align 8, !dbg !2538
  store i8* null, i8** @_ZL14sigOutFilename, align 8, !dbg !2539
  %call141 = call void (i32)* (i32, void (i32)*)* @signal(i32 2, void (i32)* @_Z15mySignalCatcheri) nounwind, !dbg !2540
  %call142 = call void (i32)* (i32, void (i32)*)* @signal(i32 15, void (i32)* @_Z15mySignalCatcheri) nounwind, !dbg !2541
  %call143 = call void (i32)* (i32, void (i32)*)* @signal(i32 1, void (i32)* @_Z15mySignalCatcheri) nounwind, !dbg !2542
  %99 = load i32* @_ZL9QuietMode, align 4, !dbg !2543
  %cmp144 = icmp ne i32 %99, 1, !dbg !2543
  br i1 %cmp144, label %if.then145, label %if.end161, !dbg !2543

if.then145:                                       ; preds = %if.end140
  %100 = load i32* %testFile, align 4, !dbg !2544
  %cmp146 = icmp ne i32 %100, 1, !dbg !2544
  br i1 %cmp146, label %if.then147, label %if.end159, !dbg !2544

if.then147:                                       ; preds = %if.then145
  %101 = load %struct._IO_FILE** @stderr, align 8, !dbg !2546
  %102 = load i32* %numCPU, align 4, !dbg !2546
  %call148 = call i32 (%struct._IO_FILE*, i8*, ...)* @fprintf(%struct._IO_FILE* %101, i8* getelementptr inbounds ([22 x i8]* @.str60, i32 0, i32 0), i32 %102), !dbg !2546
  %103 = load i32* %decompress, align 4, !dbg !2548
  %cmp149 = icmp ne i32 %103, 1, !dbg !2548
  br i1 %cmp149, label %if.then150, label %if.end158, !dbg !2548

if.then150:                                       ; preds = %if.then147
  %104 = load %struct._IO_FILE** @stderr, align 8, !dbg !2549
  %105 = load i32* @_ZL12BWTblockSize, align 4, !dbg !2549
  %call151 = call i32 (%struct._IO_FILE*, i8*, ...)* @fprintf(%struct._IO_FILE* %104, i8* getelementptr inbounds ([24 x i8]* @.str61, i32 0, i32 0), i32 %105), !dbg !2549
  %106 = load i32* %blockSize, align 4, !dbg !2551
  %cmp152 = icmp slt i32 %106, 100000, !dbg !2551
  br i1 %cmp152, label %if.then153, label %if.else155, !dbg !2551

if.then153:                                       ; preds = %if.then150
  %107 = load %struct._IO_FILE** @stderr, align 8, !dbg !2552
  %108 = load i32* %blockSize, align 4, !dbg !2552
  %call154 = call i32 (%struct._IO_FILE*, i8*, ...)* @fprintf(%struct._IO_FILE* %107, i8* getelementptr inbounds ([27 x i8]* @.str62, i32 0, i32 0), i32 %108), !dbg !2552
  br label %if.end157, !dbg !2552

if.else155:                                       ; preds = %if.then150
  %109 = load %struct._IO_FILE** @stderr, align 8, !dbg !2553
  %110 = load i32* %blockSize, align 4, !dbg !2553
  %div = sdiv i32 %110, 1000, !dbg !2553
  %call156 = call i32 (%struct._IO_FILE*, i8*, ...)* @fprintf(%struct._IO_FILE* %109, i8* getelementptr inbounds ([22 x i8]* @.str63, i32 0, i32 0), i32 %div), !dbg !2553
  br label %if.end157

if.end157:                                        ; preds = %if.else155, %if.then153
  br label %if.end158, !dbg !2554

if.end158:                                        ; preds = %if.end157, %if.then147
  br label %if.end159, !dbg !2555

if.end159:                                        ; preds = %if.end158, %if.then145
  %111 = load %struct._IO_FILE** @stderr, align 8, !dbg !2556
  %call160 = call i32 (%struct._IO_FILE*, i8*, ...)* @fprintf(%struct._IO_FILE* %111, i8* getelementptr inbounds ([45 x i8]* @.str64, i32 0, i32 0)), !dbg !2556
  br label %if.end161, !dbg !2557

if.end161:                                        ; preds = %if.end159, %if.end140
  %call162 = call noalias i8* @_Znwm(i64 40), !dbg !2558
  %112 = bitcast i8* %call162 to %union.pthread_mutex_t*, !dbg !2558
  store %union.pthread_mutex_t* %112, %union.pthread_mutex_t** @_ZL8OutMutex, align 8, !dbg !2558
  %113 = load %union.pthread_mutex_t** @_ZL8OutMutex, align 8, !dbg !2559
  %cmp163 = icmp eq %union.pthread_mutex_t* %113, null, !dbg !2559
  br i1 %cmp163, label %if.then164, label %if.end166, !dbg !2559

if.then164:                                       ; preds = %if.end161
  %114 = load %struct._IO_FILE** @stderr, align 8, !dbg !2560
  %call165 = call i32 (%struct._IO_FILE*, i8*, ...)* @fprintf(%struct._IO_FILE* %114, i8* getelementptr inbounds ([61 x i8]* @.str65, i32 0, i32 0)), !dbg !2560
  store i32 1, i32* %retval, !dbg !2562
  br label %return, !dbg !2562

if.end166:                                        ; preds = %if.end161
  %115 = load %union.pthread_mutex_t** @_ZL8OutMutex, align 8, !dbg !2563
  %call167 = call i32 @pthread_mutex_init(%union.pthread_mutex_t* %115, %union.pthread_mutexattr_t* null) nounwind, !dbg !2563
  %call168 = call noalias i8* @_Znwm(i64 40), !dbg !2564
  %116 = bitcast i8* %call168 to %union.pthread_mutex_t*, !dbg !2564
  store %union.pthread_mutex_t* %116, %union.pthread_mutex_t** @_ZL8MemMutex, align 8, !dbg !2564
  %117 = load %union.pthread_mutex_t** @_ZL8MemMutex, align 8, !dbg !2565
  %cmp169 = icmp eq %union.pthread_mutex_t* %117, null, !dbg !2565
  br i1 %cmp169, label %if.then170, label %if.end172, !dbg !2565

if.then170:                                       ; preds = %if.end166
  %118 = load %struct._IO_FILE** @stderr, align 8, !dbg !2566
  %call171 = call i32 (%struct._IO_FILE*, i8*, ...)* @fprintf(%struct._IO_FILE* %118, i8* getelementptr inbounds ([61 x i8]* @.str66, i32 0, i32 0)), !dbg !2566
  store i32 1, i32* %retval, !dbg !2568
  br label %return, !dbg !2568

if.end172:                                        ; preds = %if.end166
  %119 = load %union.pthread_mutex_t** @_ZL8MemMutex, align 8, !dbg !2569
  %call173 = call i32 @pthread_mutex_init(%union.pthread_mutex_t* %119, %union.pthread_mutexattr_t* null) nounwind, !dbg !2569
  %120 = load i32* %numCPU, align 4, !dbg !2570
  %call174 = call %struct.queue* @_Z9queueIniti(i32 %120), !dbg !2570
  store %struct.queue* %call174, %struct.queue** %fifo, align 8, !dbg !2570
  %121 = load %struct.queue** %fifo, align 8, !dbg !2571
  %cmp175 = icmp eq %struct.queue* %121, null, !dbg !2571
  br i1 %cmp175, label %if.then176, label %if.end178, !dbg !2571

if.then176:                                       ; preds = %if.end172
  %122 = load %struct._IO_FILE** @stderr, align 8, !dbg !2572
  %call177 = call i32 (%struct._IO_FILE*, i8*, ...)* @fprintf(%struct._IO_FILE* %122, i8* getelementptr inbounds ([42 x i8]* @.str67, i32 0, i32 0)), !dbg !2572
  store i32 1, i32* %retval, !dbg !2574
  br label %return, !dbg !2574

if.end178:                                        ; preds = %if.end172
  store i32 0, i32* %fileLoop, align 4, !dbg !2575
  br label %for.cond179, !dbg !2575

for.cond179:                                      ; preds = %for.inc487, %if.end178
  %123 = load i32* %fileLoop, align 4, !dbg !2575
  %124 = load i32* @_ZL13FileListCount, align 4, !dbg !2575
  %cmp180 = icmp slt i32 %123, %124, !dbg !2575
  br i1 %cmp180, label %for.body181, label %for.end489, !dbg !2575

for.body181:                                      ; preds = %for.cond179
  store i32 0, i32* @_ZL7allDone, align 4, !dbg !2577
  %125 = load i32* %fileLoop, align 4, !dbg !2579
  %idxprom182 = sext i32 %125 to i64, !dbg !2579
  %126 = load i8*** %FileList, align 8, !dbg !2579
  %arrayidx183 = getelementptr inbounds i8** %126, i64 %idxprom182, !dbg !2579
  %127 = load i8** %arrayidx183, align 8, !dbg !2579
  store i8* %127, i8** %InFilename, align 8, !dbg !2579
  %128 = load i32* %testFile, align 4, !dbg !2580
  %cmp184 = icmp ne i32 %128, 0, !dbg !2580
  br i1 %cmp184, label %if.then185, label %if.end209, !dbg !2580

if.then185:                                       ; preds = %for.body181
  %129 = load i32* @_ZL9QuietMode, align 4, !dbg !2581
  %cmp186 = icmp ne i32 %129, 1, !dbg !2581
  br i1 %cmp186, label %if.then187, label %if.end191, !dbg !2581

if.then187:                                       ; preds = %if.then185
  %130 = load %struct._IO_FILE** @stderr, align 8, !dbg !2583
  %131 = load i32* %fileLoop, align 4, !dbg !2583
  %add188 = add nsw i32 %131, 1, !dbg !2583
  %132 = load i32* @_ZL13FileListCount, align 4, !dbg !2583
  %call189 = call i32 (%struct._IO_FILE*, i8*, ...)* @fprintf(%struct._IO_FILE* %130, i8* getelementptr inbounds ([24 x i8]* @.str68, i32 0, i32 0), i32 %add188, i32 %132), !dbg !2583
  %133 = load %struct._IO_FILE** @stderr, align 8, !dbg !2585
  %134 = load i8** %InFilename, align 8, !dbg !2585
  %call190 = call i32 (%struct._IO_FILE*, i8*, ...)* @fprintf(%struct._IO_FILE* %133, i8* getelementptr inbounds ([18 x i8]* @.str69, i32 0, i32 0), i8* %134), !dbg !2585
  br label %if.end191, !dbg !2586

if.end191:                                        ; preds = %if.then187, %if.then185
  %135 = load i8** %InFilename, align 8, !dbg !2587
  %call192 = call i32 @_Z18testCompressedDataPc(i8* %135), !dbg !2587
  store i32 %call192, i32* %ret, align 4, !dbg !2587
  %136 = load i32* %ret, align 4, !dbg !2588
  %cmp193 = icmp sgt i32 %136, 0, !dbg !2588
  br i1 %cmp193, label %if.then194, label %if.else195, !dbg !2588

if.then194:                                       ; preds = %if.end191
  %137 = load i32* %ret, align 4, !dbg !2589
  store i32 %137, i32* %retval, !dbg !2589
  br label %return, !dbg !2589

if.else195:                                       ; preds = %if.end191
  %138 = load i32* %ret, align 4, !dbg !2590
  %cmp196 = icmp eq i32 %138, 0, !dbg !2590
  br i1 %cmp196, label %if.then197, label %if.else202, !dbg !2590

if.then197:                                       ; preds = %if.else195
  %139 = load i32* @_ZL9QuietMode, align 4, !dbg !2591
  %cmp198 = icmp ne i32 %139, 1, !dbg !2591
  br i1 %cmp198, label %if.then199, label %if.end201, !dbg !2591

if.then199:                                       ; preds = %if.then197
  %140 = load %struct._IO_FILE** @stderr, align 8, !dbg !2593
  %call200 = call i32 (%struct._IO_FILE*, i8*, ...)* @fprintf(%struct._IO_FILE* %140, i8* getelementptr inbounds ([18 x i8]* @.str70, i32 0, i32 0)), !dbg !2593
  br label %if.end201, !dbg !2593

if.end201:                                        ; preds = %if.then199, %if.then197
  br label %if.end203, !dbg !2594

if.else202:                                       ; preds = %if.else195
  store i32 2, i32* %errLevel, align 4, !dbg !2595
  br label %if.end203

if.end203:                                        ; preds = %if.else202, %if.end201
  br label %if.end204

if.end204:                                        ; preds = %if.end203
  %141 = load i32* @_ZL9QuietMode, align 4, !dbg !2596
  %cmp205 = icmp ne i32 %141, 1, !dbg !2596
  br i1 %cmp205, label %if.then206, label %if.end208, !dbg !2596

if.then206:                                       ; preds = %if.end204
  %142 = load %struct._IO_FILE** @stderr, align 8, !dbg !2597
  %call207 = call i32 (%struct._IO_FILE*, i8*, ...)* @fprintf(%struct._IO_FILE* %142, i8* getelementptr inbounds ([45 x i8]* @.str64, i32 0, i32 0)), !dbg !2597
  br label %if.end208, !dbg !2597

if.end208:                                        ; preds = %if.then206, %if.end204
  br label %for.inc487, !dbg !2598

if.end209:                                        ; preds = %for.body181
  %arraydecay210 = getelementptr inbounds [255 x i8]* %OutFilename, i32 0, i32 0, !dbg !2599
  %143 = load i32* %fileLoop, align 4, !dbg !2599
  %idxprom211 = sext i32 %143 to i64, !dbg !2599
  %144 = load i8*** %FileList, align 8, !dbg !2599
  %arrayidx212 = getelementptr inbounds i8** %144, i64 %idxprom211, !dbg !2599
  %145 = load i8** %arrayidx212, align 8, !dbg !2599
  %call213 = call i8* @strncpy(i8* %arraydecay210, i8* %145, i64 250) nounwind, !dbg !2599
  %146 = load i32* %decompress, align 4, !dbg !2600
  %cmp214 = icmp eq i32 %146, 1, !dbg !2600
  br i1 %cmp214, label %if.then215, label %if.else290, !dbg !2600

if.then215:                                       ; preds = %if.end209
  %147 = load i8** %InFilename, align 8, !dbg !2601
  %call216 = call i32 (i8*, i32, ...)* @open64(i8* %147, i32 0), !dbg !2601
  store i32 %call216, i32* %hInfile, align 4, !dbg !2601
  %148 = load i32* %hInfile, align 4, !dbg !2603
  %cmp217 = icmp eq i32 %148, -1, !dbg !2603
  br i1 %cmp217, label %if.then218, label %if.end221, !dbg !2603

if.then218:                                       ; preds = %if.then215
  %149 = load %struct._IO_FILE** @stderr, align 8, !dbg !2604
  %150 = load i8** %InFilename, align 8, !dbg !2604
  %call219 = call i32 (%struct._IO_FILE*, i8*, ...)* @fprintf(%struct._IO_FILE* %149, i8* getelementptr inbounds ([44 x i8]* @.str71, i32 0, i32 0), i8* %150), !dbg !2604
  %151 = load %struct._IO_FILE** @stderr, align 8, !dbg !2606
  %call220 = call i32 (%struct._IO_FILE*, i8*, ...)* @fprintf(%struct._IO_FILE* %151, i8* getelementptr inbounds ([45 x i8]* @.str64, i32 0, i32 0)), !dbg !2606
  br label %for.inc487, !dbg !2607

if.end221:                                        ; preds = %if.then215
  %152 = bitcast [50 x i8]* %tmpBuff to i8*, !dbg !2608
  call void @llvm.memset.p0i8.i64(i8* %152, i8 0, i64 50, i32 16, i1 false), !dbg !2608
  %153 = load i32* %hInfile, align 4, !dbg !2609
  %arraydecay222 = getelementptr inbounds [50 x i8]* %tmpBuff, i32 0, i32 0, !dbg !2609
  %arraydecay223 = getelementptr inbounds [11 x i8]* %bz2Header, i32 0, i32 0, !dbg !2609
  %call224 = call i64 @strlen(i8* %arraydecay223) nounwind readonly, !dbg !2609
  %add225 = add i64 %call224, 1, !dbg !2609
  %call226 = call i64 @read(i32 %153, i8* %arraydecay222, i64 %add225), !dbg !2609
  store i64 %call226, i64* %size, align 8, !dbg !2609
  %154 = load i32* %hInfile, align 4, !dbg !2610
  %call227 = call i32 @close(i32 %154), !dbg !2610
  %155 = load i64* %size, align 8, !dbg !2611
  %cmp228 = icmp eq i64 %155, -1, !dbg !2611
  br i1 %cmp228, label %if.then234, label %lor.lhs.false229, !dbg !2611

lor.lhs.false229:                                 ; preds = %if.end221
  %156 = load i64* %size, align 8, !dbg !2611
  %arraydecay230 = getelementptr inbounds [11 x i8]* %bz2Header, i32 0, i32 0, !dbg !2611
  %call231 = call i64 @strlen(i8* %arraydecay230) nounwind readonly, !dbg !2611
  %add232 = add i64 %call231, 1, !dbg !2611
  %cmp233 = icmp ult i64 %156, %add232, !dbg !2611
  br i1 %cmp233, label %if.then234, label %if.else237, !dbg !2611

if.then234:                                       ; preds = %lor.lhs.false229, %if.end221
  %157 = load %struct._IO_FILE** @stderr, align 8, !dbg !2612
  %158 = load i8** %InFilename, align 8, !dbg !2612
  %call235 = call i32 (%struct._IO_FILE*, i8*, ...)* @fprintf(%struct._IO_FILE* %157, i8* getelementptr inbounds ([55 x i8]* @.str72, i32 0, i32 0), i8* %158), !dbg !2612
  %159 = load %struct._IO_FILE** @stderr, align 8, !dbg !2614
  %call236 = call i32 (%struct._IO_FILE*, i8*, ...)* @fprintf(%struct._IO_FILE* %159, i8* getelementptr inbounds ([45 x i8]* @.str64, i32 0, i32 0)), !dbg !2614
  br label %for.inc487, !dbg !2615

if.else237:                                       ; preds = %lor.lhs.false229
  %arraydecay238 = getelementptr inbounds [50 x i8]* %tmpBuff, i32 0, i32 0, !dbg !2616
  %arraydecay239 = getelementptr inbounds [11 x i8]* %bz2Header, i32 0, i32 0, !dbg !2616
  %call240 = call i8* @_Z6memstrPciS_i(i8* %arraydecay238, i32 4, i8* %arraydecay239, i32 3), !dbg !2616
  %cmp241 = icmp eq i8* %call240, null, !dbg !2616
  br i1 %cmp241, label %if.then242, label %if.end245, !dbg !2616

if.then242:                                       ; preds = %if.else237
  %160 = load %struct._IO_FILE** @stderr, align 8, !dbg !2618
  %161 = load i8** %InFilename, align 8, !dbg !2618
  %call243 = call i32 (%struct._IO_FILE*, i8*, ...)* @fprintf(%struct._IO_FILE* %160, i8* getelementptr inbounds ([55 x i8]* @.str72, i32 0, i32 0), i8* %161), !dbg !2618
  %162 = load %struct._IO_FILE** @stderr, align 8, !dbg !2620
  %call244 = call i32 (%struct._IO_FILE*, i8*, ...)* @fprintf(%struct._IO_FILE* %162, i8* getelementptr inbounds ([45 x i8]* @.str64, i32 0, i32 0)), !dbg !2620
  br label %for.inc487, !dbg !2621

if.end245:                                        ; preds = %if.else237
  %arraydecay246 = getelementptr inbounds [50 x i8]* %tmpBuff, i32 0, i32 0, !dbg !2622
  %add.ptr247 = getelementptr inbounds i8* %arraydecay246, i64 4, !dbg !2622
  %163 = load i64* %size, align 8, !dbg !2622
  %sub248 = sub i64 %163, 4, !dbg !2622
  %conv249 = trunc i64 %sub248 to i32, !dbg !2622
  %arraydecay250 = getelementptr inbounds [11 x i8]* %bz2Header, i32 0, i32 0, !dbg !2622
  %add.ptr251 = getelementptr inbounds i8* %arraydecay250, i64 4, !dbg !2622
  %arraydecay252 = getelementptr inbounds [11 x i8]* %bz2Header, i32 0, i32 0, !dbg !2622
  %call253 = call i64 @strlen(i8* %arraydecay252) nounwind readonly, !dbg !2622
  %sub254 = sub i64 %call253, 4, !dbg !2622
  %conv255 = trunc i64 %sub254 to i32, !dbg !2622
  %call256 = call i8* @_Z6memstrPciS_i(i8* %add.ptr247, i32 %conv249, i8* %add.ptr251, i32 %conv255), !dbg !2622
  %cmp257 = icmp eq i8* %call256, null, !dbg !2622
  br i1 %cmp257, label %if.then258, label %if.end261, !dbg !2622

if.then258:                                       ; preds = %if.end245
  %164 = load %struct._IO_FILE** @stderr, align 8, !dbg !2623
  %165 = load i8** %InFilename, align 8, !dbg !2623
  %call259 = call i32 (%struct._IO_FILE*, i8*, ...)* @fprintf(%struct._IO_FILE* %164, i8* getelementptr inbounds ([55 x i8]* @.str72, i32 0, i32 0), i8* %165), !dbg !2623
  %166 = load %struct._IO_FILE** @stderr, align 8, !dbg !2625
  %call260 = call i32 (%struct._IO_FILE*, i8*, ...)* @fprintf(%struct._IO_FILE* %166, i8* getelementptr inbounds ([45 x i8]* @.str64, i32 0, i32 0)), !dbg !2625
  br label %for.inc487, !dbg !2626

if.end261:                                        ; preds = %if.end245
  %arrayidx262 = getelementptr inbounds [50 x i8]* %tmpBuff, i32 0, i64 3, !dbg !2627
  %167 = load i8* %arrayidx262, align 1, !dbg !2627
  %conv263 = sext i8 %167 to i32, !dbg !2627
  %cmp264 = icmp sge i32 %conv263, 49, !dbg !2627
  br i1 %cmp264, label %land.lhs.true, label %if.else270, !dbg !2627

land.lhs.true:                                    ; preds = %if.end261
  %arrayidx265 = getelementptr inbounds [50 x i8]* %tmpBuff, i32 0, i64 3, !dbg !2627
  %168 = load i8* %arrayidx265, align 1, !dbg !2627
  %conv266 = sext i8 %168 to i32, !dbg !2627
  %cmp267 = icmp sle i32 %conv266, 57, !dbg !2627
  br i1 %cmp267, label %if.then268, label %if.else270, !dbg !2627

if.then268:                                       ; preds = %land.lhs.true
  %arrayidx269 = getelementptr inbounds [50 x i8]* %tmpBuff, i32 0, i64 3, !dbg !2628
  %169 = load i8* %arrayidx269, align 1, !dbg !2628
  store i8 %169, i8* @_ZL16BWTblockSizeChar, align 1, !dbg !2628
  br label %if.end273, !dbg !2628

if.else270:                                       ; preds = %land.lhs.true, %if.end261
  %170 = load %struct._IO_FILE** @stderr, align 8, !dbg !2629
  %171 = load i8** %InFilename, align 8, !dbg !2629
  %call271 = call i32 (%struct._IO_FILE*, i8*, ...)* @fprintf(%struct._IO_FILE* %170, i8* getelementptr inbounds ([55 x i8]* @.str72, i32 0, i32 0), i8* %171), !dbg !2629
  %172 = load %struct._IO_FILE** @stderr, align 8, !dbg !2631
  %call272 = call i32 (%struct._IO_FILE*, i8*, ...)* @fprintf(%struct._IO_FILE* %172, i8* getelementptr inbounds ([45 x i8]* @.str64, i32 0, i32 0)), !dbg !2631
  br label %for.inc487, !dbg !2632

if.end273:                                        ; preds = %if.then268
  br label %if.end274

if.end274:                                        ; preds = %if.end273
  %arraydecay275 = getelementptr inbounds [255 x i8]* %OutFilename, i32 0, i32 0, !dbg !2633
  %call276 = call i64 @strlen(i8* %arraydecay275) nounwind readonly, !dbg !2633
  %sub277 = sub i64 %call276, 4, !dbg !2633
  %arrayidx278 = getelementptr inbounds [255 x i8]* %OutFilename, i32 0, i64 %sub277, !dbg !2633
  %call279 = call i32 @strncasecmp(i8* %arrayidx278, i8* getelementptr inbounds ([5 x i8]* @.str73, i32 0, i32 0), i64 4) nounwind readonly, !dbg !2633
  %cmp280 = icmp eq i32 %call279, 0, !dbg !2633
  br i1 %cmp280, label %if.then281, label %if.else286, !dbg !2633

if.then281:                                       ; preds = %if.end274
  %arraydecay282 = getelementptr inbounds [255 x i8]* %OutFilename, i32 0, i32 0, !dbg !2634
  %call283 = call i64 @strlen(i8* %arraydecay282) nounwind readonly, !dbg !2634
  %sub284 = sub i64 %call283, 4, !dbg !2634
  %arrayidx285 = getelementptr inbounds [255 x i8]* %OutFilename, i32 0, i64 %sub284, !dbg !2634
  store i8 0, i8* %arrayidx285, align 1, !dbg !2634
  br label %if.end289, !dbg !2636

if.else286:                                       ; preds = %if.end274
  %arraydecay287 = getelementptr inbounds [255 x i8]* %OutFilename, i32 0, i32 0, !dbg !2637
  %call288 = call i8* @strcat(i8* %arraydecay287, i8* getelementptr inbounds ([5 x i8]* @.str74, i32 0, i32 0)) nounwind, !dbg !2637
  br label %if.end289

if.end289:                                        ; preds = %if.else286, %if.then281
  br label %if.end302, !dbg !2639

if.else290:                                       ; preds = %if.end209
  %173 = load i8** %InFilename, align 8, !dbg !2640
  %call291 = call i64 @strlen(i8* %173) nounwind readonly, !dbg !2640
  %sub292 = sub i64 %call291, 4, !dbg !2640
  %174 = load i8** %InFilename, align 8, !dbg !2640
  %arrayidx293 = getelementptr inbounds i8* %174, i64 %sub292, !dbg !2640
  %call294 = call i32 @strncasecmp(i8* %arrayidx293, i8* getelementptr inbounds ([5 x i8]* @.str73, i32 0, i32 0), i64 4) nounwind readonly, !dbg !2640
  %cmp295 = icmp eq i32 %call294, 0, !dbg !2640
  br i1 %cmp295, label %if.then296, label %if.end299, !dbg !2640

if.then296:                                       ; preds = %if.else290
  %175 = load %struct._IO_FILE** @stderr, align 8, !dbg !2642
  %176 = load i8** %InFilename, align 8, !dbg !2642
  %call297 = call i32 (%struct._IO_FILE*, i8*, ...)* @fprintf(%struct._IO_FILE* %175, i8* getelementptr inbounds ([69 x i8]* @.str75, i32 0, i32 0), i8* %176), !dbg !2642
  %177 = load %struct._IO_FILE** @stderr, align 8, !dbg !2644
  %call298 = call i32 (%struct._IO_FILE*, i8*, ...)* @fprintf(%struct._IO_FILE* %177, i8* getelementptr inbounds ([45 x i8]* @.str64, i32 0, i32 0)), !dbg !2644
  br label %for.inc487, !dbg !2645

if.end299:                                        ; preds = %if.else290
  %arraydecay300 = getelementptr inbounds [255 x i8]* %OutFilename, i32 0, i32 0, !dbg !2646
  %call301 = call i8* @strcat(i8* %arraydecay300, i8* getelementptr inbounds ([5 x i8]* @.str73, i32 0, i32 0)) nounwind, !dbg !2646
  br label %if.end302

if.end302:                                        ; preds = %if.end299, %if.end289
  %178 = load i8** %InFilename, align 8, !dbg !2647
  store i8* %178, i8** @_ZL13sigInFilename, align 8, !dbg !2647
  %arraydecay303 = getelementptr inbounds [255 x i8]* %OutFilename, i32 0, i32 0, !dbg !2648
  store i8* %arraydecay303, i8** @_ZL14sigOutFilename, align 8, !dbg !2648
  %179 = load i8** %InFilename, align 8, !dbg !2649
  %call304 = call i32 (i8*, i32, ...)* @open64(i8* %179, i32 0), !dbg !2649
  store i32 %call304, i32* %hInfile, align 4, !dbg !2649
  %180 = load i32* %hInfile, align 4, !dbg !2650
  %cmp305 = icmp eq i32 %180, -1, !dbg !2650
  br i1 %cmp305, label %if.then306, label %if.end309, !dbg !2650

if.then306:                                       ; preds = %if.end302
  %181 = load %struct._IO_FILE** @stderr, align 8, !dbg !2651
  %182 = load i8** %InFilename, align 8, !dbg !2651
  %call307 = call i32 (%struct._IO_FILE*, i8*, ...)* @fprintf(%struct._IO_FILE* %181, i8* getelementptr inbounds ([44 x i8]* @.str71, i32 0, i32 0), i8* %182), !dbg !2651
  %183 = load %struct._IO_FILE** @stderr, align 8, !dbg !2653
  %call308 = call i32 (%struct._IO_FILE*, i8*, ...)* @fprintf(%struct._IO_FILE* %183, i8* getelementptr inbounds ([45 x i8]* @.str64, i32 0, i32 0)), !dbg !2653
  br label %for.inc487, !dbg !2654

if.end309:                                        ; preds = %if.end302
  %184 = load i32* %hInfile, align 4, !dbg !2655
  %call310 = call i32 @fstat64(i32 %184, %struct.stat* %statbuf) nounwind, !dbg !2655
  %st_mode = getelementptr inbounds %struct.stat* %statbuf, i32 0, i32 3, !dbg !2656
  %185 = load i32* %st_mode, align 4, !dbg !2656
  %and = and i32 %185, 61440, !dbg !2656
  %cmp311 = icmp eq i32 %and, 16384, !dbg !2656
  br i1 %cmp311, label %if.then312, label %if.end315, !dbg !2656

if.then312:                                       ; preds = %if.end309
  %186 = load %struct._IO_FILE** @stderr, align 8, !dbg !2657
  %187 = load i8** %InFilename, align 8, !dbg !2657
  %call313 = call i32 (%struct._IO_FILE*, i8*, ...)* @fprintf(%struct._IO_FILE* %186, i8* getelementptr inbounds ([49 x i8]* @.str76, i32 0, i32 0), i8* %187), !dbg !2657
  %188 = load %struct._IO_FILE** @stderr, align 8, !dbg !2659
  %call314 = call i32 (%struct._IO_FILE*, i8*, ...)* @fprintf(%struct._IO_FILE* %188, i8* getelementptr inbounds ([45 x i8]* @.str64, i32 0, i32 0)), !dbg !2659
  br label %for.inc487, !dbg !2660

if.end315:                                        ; preds = %if.end309
  %st_mode316 = getelementptr inbounds %struct.stat* %statbuf, i32 0, i32 3, !dbg !2661
  %189 = load i32* %st_mode316, align 4, !dbg !2661
  %and317 = and i32 %189, 61440, !dbg !2661
  %cmp318 = icmp eq i32 %and317, 32768, !dbg !2661
  br i1 %cmp318, label %if.end322, label %if.then319, !dbg !2661

if.then319:                                       ; preds = %if.end315
  %190 = load %struct._IO_FILE** @stderr, align 8, !dbg !2662
  %191 = load i8** %InFilename, align 8, !dbg !2662
  %call320 = call i32 (%struct._IO_FILE*, i8*, ...)* @fprintf(%struct._IO_FILE* %190, i8* getelementptr inbounds ([56 x i8]* @.str77, i32 0, i32 0), i8* %191), !dbg !2662
  %192 = load %struct._IO_FILE** @stderr, align 8, !dbg !2664
  %call321 = call i32 (%struct._IO_FILE*, i8*, ...)* @fprintf(%struct._IO_FILE* %192, i8* getelementptr inbounds ([45 x i8]* @.str64, i32 0, i32 0)), !dbg !2664
  br label %for.inc487, !dbg !2665

if.end322:                                        ; preds = %if.end315
  %st_size = getelementptr inbounds %struct.stat* %statbuf, i32 0, i32 8, !dbg !2666
  %193 = load i64* %st_size, align 8, !dbg !2666
  store i64 %193, i64* %fileSize, align 8, !dbg !2666
