	.file	"mutants/pbzip2.bc_rmMutex_0_0,0.o"
	.file	1 "pbzip2.cpp"
	.file	2 "/usr/lib/gcc/x86_64-linux-gnu/4.8/../../../../include/c++/4.8/ext/new_allocator.h"
	.file	3 "/usr/lib/gcc/x86_64-linux-gnu/4.8/../../../../include/c++/4.8/bits/c++config.h"
	.file	4 "/usr/lib/gcc/x86_64-linux-gnu/4.8/../../../../include/c++/4.8/bits/allocator.h"
	.file	5 "/usr/lib/gcc/x86_64-linux-gnu/4.8/../../../../include/c++/4.8/bits/stl_vector.h"
	.file	6 "/usr/lib/gcc/x86_64-linux-gnu/4.8/../../../../include/c++/4.8/ext/alloc_traits.h"
	.file	7 "/usr/lib/gcc/x86_64-linux-gnu/4.8/../../../../include/c++/4.8/bits/stl_iterator.h"
	.file	8 "/usr/lib/gcc/x86_64-linux-gnu/4.8/../../../../include/c++/4.8/bits/stl_iterator_base_types.h"
	.file	9 "/usr/include/x86_64-linux-gnu/bits/stat.h"
	.file	10 "/usr/include/time.h"
	.file	11 "/usr/include/x86_64-linux-gnu/bits/pthreadtypes.h"
	.file	12 "/usr/lib/gcc/x86_64-linux-gnu/4.8/../../../../include/c++/4.8/bits/stl_construct.h"
	.file	13 "/usr/lib/gcc/x86_64-linux-gnu/4.8/../../../../include/c++/4.8/bits/stl_uninitialized.h"
	.file	14 "/usr/lib/gcc/x86_64-linux-gnu/4.8/../../../../include/c++/4.8/bits/stl_algobase.h"
	.file	15 "/usr/lib/gcc/x86_64-linux-gnu/4.8/../../../../include/c++/4.8/ext/type_traits.h"
	.file	16 "/usr/include/x86_64-linux-gnu/bits/confname.h"
	.file	17 "/usr/lib/gcc/x86_64-linux-gnu/4.8/../../../../include/c++/4.8/bits/cpp_type_traits.h"
	.text
.Ltext_begin:
	.data
	.section	.text.startup,"ax",@progbits
	.align	16, 0x90
	.type	__cxx_global_var_init,@function
__cxx_global_var_init:                  # @__cxx_global_var_init
	.cfi_startproc
.Lfunc_begin0:
	.loc	1 150 0                 # pbzip2.cpp:150:0
# BB#0:                                 # %entry
	.loc	1 150 0 prologue_end    # pbzip2.cpp:150:0
	pushq	%rax
.Ltmp1:
	.cfi_def_cfa_offset 16
	movl	$_ZL12OutputBuffer, %edi
	callq	_ZNSt6vectorI7outBuffSaIS0_EEC1Ev
	movl	$_ZNSt6vectorI7outBuffSaIS0_EED1Ev, %edi
	movl	$_ZL12OutputBuffer, %esi
	movl	$__dso_handle, %edx
	callq	__cxa_atexit
	popq	%rax
	ret
.Ltmp2:
.Ltmp3:
	.size	__cxx_global_var_init, .Ltmp3-__cxx_global_var_init
.Lfunc_end0:
	.cfi_endproc

	.section	.text._ZNSt6vectorI7outBuffSaIS0_EEC1Ev,"axG",@progbits,_ZNSt6vectorI7outBuffSaIS0_EEC1Ev,comdat
	.weak	_ZNSt6vectorI7outBuffSaIS0_EEC1Ev
	.align	16, 0x90
	.type	_ZNSt6vectorI7outBuffSaIS0_EEC1Ev,@function
_ZNSt6vectorI7outBuffSaIS0_EEC1Ev:      # @_ZNSt6vectorI7outBuffSaIS0_EEC1Ev
	.cfi_startproc
.Lfunc_begin1:
	.loc	5 249 0                 # /usr/lib/gcc/x86_64-linux-gnu/4.8/../../../../include/c++/4.8/bits/stl_vector.h:249:0
# BB#0:                                 # %entry
	pushq	%rax
.Ltmp5:
	.cfi_def_cfa_offset 16
	movq	%rdi, (%rsp)
	.loc	5 249 0 prologue_end    # /usr/lib/gcc/x86_64-linux-gnu/4.8/../../../../include/c++/4.8/bits/stl_vector.h:249:0
.Ltmp6:
	callq	_ZNSt6vectorI7outBuffSaIS0_EEC2Ev
	popq	%rax
	ret
.Ltmp7:
.Ltmp8:
	.size	_ZNSt6vectorI7outBuffSaIS0_EEC1Ev, .Ltmp8-_ZNSt6vectorI7outBuffSaIS0_EEC1Ev
.Lfunc_end1:
	.cfi_endproc

	.section	.text._ZNSt6vectorI7outBuffSaIS0_EED1Ev,"axG",@progbits,_ZNSt6vectorI7outBuffSaIS0_EED1Ev,comdat
	.weak	_ZNSt6vectorI7outBuffSaIS0_EED1Ev
	.align	16, 0x90
	.type	_ZNSt6vectorI7outBuffSaIS0_EED1Ev,@function
_ZNSt6vectorI7outBuffSaIS0_EED1Ev:      # @_ZNSt6vectorI7outBuffSaIS0_EED1Ev
	.cfi_startproc
.Lfunc_begin2:
	.loc	5 415 0                 # /usr/lib/gcc/x86_64-linux-gnu/4.8/../../../../include/c++/4.8/bits/stl_vector.h:415:0
# BB#0:                                 # %entry
	pushq	%rax
.Ltmp10:
	.cfi_def_cfa_offset 16
	movq	%rdi, (%rsp)
	.loc	5 415 0 prologue_end    # /usr/lib/gcc/x86_64-linux-gnu/4.8/../../../../include/c++/4.8/bits/stl_vector.h:415:0
.Ltmp11:
	callq	_ZNSt6vectorI7outBuffSaIS0_EED2Ev
	.loc	5 416 0                 # /usr/lib/gcc/x86_64-linux-gnu/4.8/../../../../include/c++/4.8/bits/stl_vector.h:416:0
	popq	%rax
	ret
.Ltmp12:
.Ltmp13:
	.size	_ZNSt6vectorI7outBuffSaIS0_EED1Ev, .Ltmp13-_ZNSt6vectorI7outBuffSaIS0_EED1Ev
.Lfunc_end2:
	.cfi_endproc

	.text
	.globl	_Z15mySignalCatcheri
	.align	16, 0x90
	.type	_Z15mySignalCatcheri,@function
_Z15mySignalCatcheri:                   # @_Z15mySignalCatcheri
	.cfi_startproc
.Lfunc_begin3:
	.loc	1 180 0                 # pbzip2.cpp:180:0
# BB#0:                                 # %entry
	subq	$168, %rsp
.Ltmp15:
	.cfi_def_cfa_offset 176
	movl	%edi, 164(%rsp)
	.loc	1 182 0 prologue_end    # pbzip2.cpp:182:0
.Ltmp16:
	movl	$0, 12(%rsp)
	.loc	1 184 0                 # pbzip2.cpp:184:0
	movq	stderr(%rip), %rdi
	movl	$.L.str, %esi
	xorb	%al, %al
	callq	fprintf
	.loc	1 190 0                 # pbzip2.cpp:190:0
	cmpq	$0, _ZL13sigInFilename(%rip)
	je	.LBB3_8
# BB#1:                                 # %lor.lhs.false
	cmpq	$0, _ZL14sigOutFilename(%rip)
	je	.LBB3_8
# BB#2:                                 # %if.end
	.loc	1 194 0                 # pbzip2.cpp:194:0
	movq	_ZL13sigInFilename(%rip), %rdi
	leaq	16(%rsp), %rsi
	callq	stat
	movl	%eax, 12(%rsp)
	testl	%eax, %eax
	.loc	1 195 0                 # pbzip2.cpp:195:0
	jne	.LBB3_7
# BB#3:                                 # %if.then4
	.loc	1 198 0                 # pbzip2.cpp:198:0
.Ltmp17:
	cmpl	$1, _ZL9QuietMode(%rip)
	je	.LBB3_5
# BB#4:                                 # %if.then6
	.loc	1 199 0                 # pbzip2.cpp:199:0
	movq	_ZL14sigOutFilename(%rip), %rdx
	movq	stderr(%rip), %rdi
	movl	$.L.str1, %esi
	xorb	%al, %al
	callq	fprintf
.LBB3_5:                                # %if.end8
	.loc	1 200 0                 # pbzip2.cpp:200:0
	movq	_ZL14sigOutFilename(%rip), %rdi
	callq	remove
	movl	%eax, 12(%rsp)
	testl	%eax, %eax
	je	.LBB3_8
# BB#6:                                 # %if.then11
	.loc	1 202 0                 # pbzip2.cpp:202:0
	movq	stderr(%rip), %rdi
	movl	$.L.str2, %esi
	xorb	%al, %al
	callq	fprintf
	movl	$1, %edi
.Ltmp18:
	.loc	1 191 0                 # pbzip2.cpp:191:0
	callq	exit
.LBB3_7:                                # %if.else
	.loc	1 206 0                 # pbzip2.cpp:206:0
.Ltmp19:
	movq	stderr(%rip), %rdi
	movl	$.L.str3, %esi
	xorb	%al, %al
	callq	fprintf
	.loc	1 207 0                 # pbzip2.cpp:207:0
	movq	_ZL14sigOutFilename(%rip), %rdx
	movq	stderr(%rip), %rdi
	movl	$.L.str4, %esi
	xorb	%al, %al
	callq	fprintf
.Ltmp20:
.LBB3_8:                                # %if.then
	movl	$1, %edi
	.loc	1 191 0                 # pbzip2.cpp:191:0
	callq	exit
.Ltmp21:
.Ltmp22:
	.size	_Z15mySignalCatcheri, .Ltmp22-_Z15mySignalCatcheri
.Lfunc_end3:
	.cfi_endproc

	.globl	_Z6memstrPciS_i
	.align	16, 0x90
	.type	_Z6memstrPciS_i,@function
_Z6memstrPciS_i:                        # @_Z6memstrPciS_i
	.cfi_startproc
.Lfunc_begin4:
	.loc	1 221 0                 # pbzip2.cpp:221:0
# BB#0:                                 # %entry
	movq	%rdi, -16(%rsp)
	movl	%esi, -20(%rsp)
	movq	%rdx, -32(%rsp)
	movl	%ecx, -36(%rsp)
	.loc	1 224 0 prologue_end    # pbzip2.cpp:224:0
.Ltmp23:
	movl	$0, -48(%rsp)
	.loc	1 226 0                 # pbzip2.cpp:226:0
.Ltmp24:
	movl	$0, -40(%rsp)
	jmp	.LBB4_1
	.align	16, 0x90
.LBB4_10:                               # %for.inc25
                                        #   in Loop: Header=BB4_1 Depth=1
	incl	-40(%rsp)
.LBB4_1:                                # %for.cond
                                        # =>This Loop Header: Depth=1
                                        #     Child Loop BB4_5 Depth 2
	movl	-40(%rsp), %eax
	cmpl	-20(%rsp), %eax
	jge	.LBB4_11
# BB#2:                                 # %for.body
                                        #   in Loop: Header=BB4_1 Depth=1
	.loc	1 228 0                 # pbzip2.cpp:228:0
.Ltmp25:
	movl	-20(%rsp), %eax
	decl	%eax
	subl	-40(%rsp), %eax
	cmpl	-36(%rsp), %eax
	jl	.LBB4_11
# BB#3:                                 # %if.end
                                        #   in Loop: Header=BB4_1 Depth=1
	.loc	1 231 0                 # pbzip2.cpp:231:0
	movslq	-40(%rsp), %rax
	movq	-16(%rsp), %rcx
	movsbl	(%rcx,%rax), %eax
	movq	-32(%rsp), %rcx
	movsbl	(%rcx), %ecx
	cmpl	%ecx, %eax
	jne	.LBB4_10
# BB#4:                                 # %if.then6
                                        #   in Loop: Header=BB4_1 Depth=1
	.loc	1 233 0                 # pbzip2.cpp:233:0
.Ltmp26:
	movl	$0, -48(%rsp)
	.loc	1 235 0                 # pbzip2.cpp:235:0
.Ltmp27:
	movl	$1, -44(%rsp)
	jmp	.LBB4_5
	.align	16, 0x90
.LBB4_13:                               # %for.inc
                                        #   in Loop: Header=BB4_5 Depth=2
	incl	-44(%rsp)
.LBB4_5:                                # %for.cond7
                                        #   Parent Loop BB4_1 Depth=1
                                        # =>  This Inner Loop Header: Depth=2
	movl	-44(%rsp), %eax
	cmpl	-36(%rsp), %eax
	jge	.LBB4_8
# BB#6:                                 # %for.body9
                                        #   in Loop: Header=BB4_5 Depth=2
	.loc	1 237 0                 # pbzip2.cpp:237:0
.Ltmp28:
	movslq	-44(%rsp), %rcx
	movq	-32(%rsp), %rax
	movsbl	(%rax,%rcx), %eax
	addl	-40(%rsp), %ecx
	movslq	%ecx, %rcx
	movq	-16(%rsp), %rdx
	movsbl	(%rdx,%rcx), %ecx
	cmpl	%eax, %ecx
	je	.LBB4_13
# BB#7:                                 # %if.then17
                                        #   in Loop: Header=BB4_1 Depth=1
	.loc	1 238 0                 # pbzip2.cpp:238:0
.Ltmp29:
	movl	$1, -48(%rsp)
.Ltmp30:
.LBB4_8:                                # %for.end
                                        #   in Loop: Header=BB4_1 Depth=1
	.loc	1 243 0                 # pbzip2.cpp:243:0
	cmpl	$0, -48(%rsp)
	jne	.LBB4_10
# BB#9:                                 # %if.then20
	.loc	1 248 0                 # pbzip2.cpp:248:0
.Ltmp31:
	movslq	-40(%rsp), %rax
	addq	-16(%rsp), %rax
	movq	%rax, -8(%rsp)
.Ltmp32:
	.loc	1 254 0                 # pbzip2.cpp:254:0
	movq	-8(%rsp), %rax
	ret
.LBB4_11:                               # %for.end27
	.loc	1 253 0                 # pbzip2.cpp:253:0
	movq	$0, -8(%rsp)
	.loc	1 254 0                 # pbzip2.cpp:254:0
	movq	-8(%rsp), %rax
	ret
.Ltmp33:
.Ltmp34:
	.size	_Z6memstrPciS_i, .Ltmp34-_Z6memstrPciS_i
.Lfunc_end4:
	.cfi_endproc

	.globl	_Z19producer_decompressilP5queue
	.align	16, 0x90
	.type	_Z19producer_decompressilP5queue,@function
_Z19producer_decompressilP5queue:       # @_Z19producer_decompressilP5queue
	.cfi_startproc
	.cfi_personality 3, __gxx_personality_v0
.Leh_func_begin5:
	.cfi_lsda 3, .Lexception5
.Lfunc_begin5:
	.loc	1 265 0                 # pbzip2.cpp:265:0
# BB#0:                                 # %entry
	pushq	%rbp
.Ltmp131:
	.cfi_def_cfa_offset 16
	pushq	%r15
.Ltmp132:
	.cfi_def_cfa_offset 24
	pushq	%r14
.Ltmp133:
	.cfi_def_cfa_offset 32
	pushq	%r13
.Ltmp134:
	.cfi_def_cfa_offset 40
	pushq	%r12
.Ltmp135:
	.cfi_def_cfa_offset 48
	pushq	%rbx
.Ltmp136:
	.cfi_def_cfa_offset 56
	subq	$184, %rsp
.Ltmp137:
	.cfi_def_cfa_offset 240
.Ltmp138:
	.cfi_offset %rbx, -56
.Ltmp139:
	.cfi_offset %r12, -48
.Ltmp140:
	.cfi_offset %r13, -40
.Ltmp141:
	.cfi_offset %r14, -32
.Ltmp142:
	.cfi_offset %r15, -24
.Ltmp143:
	.cfi_offset %rbp, -16
	movl	%edi, 176(%rsp)
	movq	%rsi, 168(%rsp)
	movq	%rdx, 160(%rsp)
	leaq	136(%rsp), %rdi
	.loc	1 266 0 prologue_end    # pbzip2.cpp:266:0
.Ltmp144:
	callq	_ZNSt6vectorI15bz2BlockListingSaIS0_EEC1Ev
	.loc	1 269 0                 # pbzip2.cpp:269:0
	movq	$0, 96(%rsp)
	movabsq	$2763311526040853058, %rax # imm = 0x2659413139685A42
	.loc	1 270 0                 # pbzip2.cpp:270:0
	movq	%rax, 80(%rsp)
	movb	$0, 90(%rsp)
	movw	$22867, 88(%rsp)        # imm = 0x5953
	.loc	1 271 0                 # pbzip2.cpp:271:0
	movq	$0, 72(%rsp)
	.loc	1 272 0                 # pbzip2.cpp:272:0
	movq	$100000, 64(%rsp)       # imm = 0x186A0
	.loc	1 273 0                 # pbzip2.cpp:273:0
	movl	$0, 60(%rsp)
	.loc	1 274 0                 # pbzip2.cpp:274:0
	movq	$0, 48(%rsp)
	.loc	1 276 0                 # pbzip2.cpp:276:0
	movl	$0, 40(%rsp)
	.loc	1 277 0                 # pbzip2.cpp:277:0
	movq	$0, 32(%rsp)
	.loc	1 278 0                 # pbzip2.cpp:278:0
	movq	$0, 24(%rsp)
	.loc	1 279 0                 # pbzip2.cpp:279:0
	movq	$0, 16(%rsp)
	.loc	1 281 0                 # pbzip2.cpp:281:0
	movq	$0, 120(%rsp)
	.loc	1 282 0                 # pbzip2.cpp:282:0
	movl	$0, 128(%rsp)
	.loc	1 284 0                 # pbzip2.cpp:284:0
	movb	_ZL16BWTblockSizeChar(%rip), %al
	movb	%al, 83(%rsp)
	.loc	1 287 0                 # pbzip2.cpp:287:0
	movl	176(%rsp), %edi
	xorl	%esi, %esi
	xorl	%edx, %edx
	callq	lseek
	movq	%rax, 48(%rsp)
	testq	%rax, %rax
	.loc	1 288 0                 # pbzip2.cpp:288:0
	je	.LBB5_12
# BB#1:                                 # %if.then
	.loc	1 290 0                 # pbzip2.cpp:290:0
.Ltmp145:
	movq	48(%rsp), %rdx
	movq	stderr(%rip), %rdi
.Ltmp116:
	movl	$.L.str5, %esi
	xorb	%al, %al
	callq	fprintf
.Ltmp117:
# BB#2:                                 # %invoke.cont
	.loc	1 291 0                 # pbzip2.cpp:291:0
	movl	176(%rsp), %edi
.Ltmp118:
	callq	close
.Ltmp119:
	jmp	.LBB5_3
.Ltmp146:
.LBB5_12:                               # %if.end
	.loc	1 299 0                 # pbzip2.cpp:299:0
	movq	$0, 96(%rsp)
	movq	$-1, %rdi
	.loc	1 300 0                 # pbzip2.cpp:300:0
	movq	64(%rsp), %rax
	testq	%rax, %rax
	cmovnsq	%rax, %rdi
.Ltmp35:
	callq	_Znam
.Ltmp36:
# BB#13:                                # %invoke.cont5
	movq	%rax, 96(%rsp)
	testq	%rax, %rax
	je	.LBB5_14
# BB#16:                                # %if.end14
	.loc	1 311 0                 # pbzip2.cpp:311:0
	movq	168(%rsp), %rax
	movq	%rax, 72(%rsp)
	leaq	80(%rsp), %r12
	leaq	136(%rsp), %r14
	leaq	104(%rsp), %r15
	jmp	.LBB5_17
	.align	16, 0x90
.LBB5_39:                               # %while.end
                                        #   in Loop: Header=BB5_17 Depth=1
	.loc	1 383 0                 # pbzip2.cpp:383:0
.Ltmp147:
	movq	48(%rsp), %rax
	addq	%rax, 24(%rsp)
	.loc	1 384 0                 # pbzip2.cpp:384:0
	movq	48(%rsp), %rax
	subq	%rax, 72(%rsp)
.Ltmp148:
.LBB5_17:                               # %while.cond
                                        # =>This Loop Header: Depth=1
                                        #     Child Loop BB5_31 Depth 2
	.loc	1 312 0                 # pbzip2.cpp:312:0
	cmpq	$0, 72(%rsp)
	jle	.LBB5_40
# BB#18:                                # %while.body
                                        #   in Loop: Header=BB5_17 Depth=1
	.loc	1 314 0                 # pbzip2.cpp:314:0
.Ltmp149:
	cmpq	$0, 24(%rsp)
	jne	.LBB5_20
# BB#19:                                # %if.then17
                                        #   in Loop: Header=BB5_17 Depth=1
	.loc	1 321 0                 # pbzip2.cpp:321:0
.Ltmp150:
	movq	64(%rsp), %rdx
	movq	96(%rsp), %rsi
	movl	176(%rsp), %edi
.Ltmp94:
	callq	read
.Ltmp95:
	jmp	.LBB5_21
.Ltmp151:
	.align	16, 0x90
.LBB5_20:                               # %if.else
                                        #   in Loop: Header=BB5_17 Depth=1
	.loc	1 327 0                 # pbzip2.cpp:327:0
	movq	96(%rsp), %r13
	movq	64(%rsp), %rbx
	addq	%r13, %rbx
	movq	%r12, %rdi
	callq	strlen
	movq	%rax, %rbp
	movq	%r12, %rdi
	callq	strlen
	decq	%rbp
	subq	%rbp, %rbx
	leaq	-1(%rax), %rdx
	movq	%r13, %rdi
	movq	%rbx, %rsi
	callq	memcpy
	.loc	1 333 0                 # pbzip2.cpp:333:0
	movl	176(%rsp), %r13d
	movq	96(%rsp), %rbx
	movq	%r12, %rdi
	callq	strlen
	leaq	-1(%rbx,%rax), %rbp
	movq	64(%rsp), %rbx
	movq	%r12, %rdi
	callq	strlen
	decq	%rax
	subq	%rax, %rbx
.Ltmp92:
	movl	%r13d, %edi
	movq	%rbp, %rsi
	movq	%rbx, %rdx
	callq	read
.Ltmp93:
.LBB5_21:                               # %invoke.cont33
                                        #   in Loop: Header=BB5_17 Depth=1
	movq	%rax, 48(%rsp)
.Ltmp152:
	.loc	1 338 0                 # pbzip2.cpp:338:0
	cmpq	$0, 48(%rsp)
	js	.LBB5_22
# BB#28:                                # %if.end47
                                        #   in Loop: Header=BB5_17 Depth=1
	.loc	1 351 0                 # pbzip2.cpp:351:0
	cmpq	$0, 24(%rsp)
	jne	.LBB5_30
# BB#29:                                # %if.then49
                                        #   in Loop: Header=BB5_17 Depth=1
	.loc	1 352 0                 # pbzip2.cpp:352:0
	movl	48(%rsp), %ebx
	movq	96(%rsp), %rbp
	movq	%r12, %rdi
	callq	strlen
.Ltmp98:
	movq	%rbp, %rdi
	movl	%ebx, %esi
	movq	%r12, %rdx
	movl	%eax, %ecx
	callq	_Z6memstrPciS_i
.Ltmp99:
	jmp	.LBB5_31
	.align	16, 0x90
.LBB5_30:                               # %if.else56
                                        #   in Loop: Header=BB5_17 Depth=1
	.loc	1 354 0                 # pbzip2.cpp:354:0
	movq	96(%rsp), %r13
	movl	48(%rsp), %ebx
	movq	%r12, %rdi
	callq	strlen
	movq	%rax, %rbp
	movq	%r12, %rdi
	callq	strlen
	leal	-1(%rbp,%rbx), %esi
.Ltmp96:
	movq	%r13, %rdi
	movq	%r12, %rdx
	movl	%eax, %ecx
	callq	_Z6memstrPciS_i
.Ltmp97:
	.align	16, 0x90
.LBB5_31:                               # %invoke.cont65
                                        #   Parent Loop BB5_17 Depth=1
                                        # =>  This Inner Loop Header: Depth=2
	movq	%rax, 32(%rsp)
	.loc	1 355 0                 # pbzip2.cpp:355:0
	cmpq	$0, 32(%rsp)
	je	.LBB5_39
# BB#32:                                # %while.body70
                                        #   in Loop: Header=BB5_31 Depth=2
	.loc	1 357 0                 # pbzip2.cpp:357:0
.Ltmp153:
	cmpq	$0, 24(%rsp)
	jne	.LBB5_34
# BB#33:                                # %if.then72
                                        #   in Loop: Header=BB5_31 Depth=2
	.loc	1 358 0                 # pbzip2.cpp:358:0
	movq	32(%rsp), %rax
	subq	96(%rsp), %rax
	addq	24(%rsp), %rax
	movq	%rax, 16(%rsp)
	jmp	.LBB5_35
	.align	16, 0x90
.LBB5_34:                               # %if.else74
                                        #   in Loop: Header=BB5_31 Depth=2
	.loc	1 360 0                 # pbzip2.cpp:360:0
	movq	32(%rsp), %rbx
	subq	96(%rsp), %rbx
	addq	24(%rsp), %rbx
	movq	%r12, %rdi
	callq	strlen
	decq	%rax
	subq	%rax, %rbx
	movq	%rbx, 16(%rsp)
.LBB5_35:                               # %if.end83
                                        #   in Loop: Header=BB5_31 Depth=2
	.loc	1 368 0                 # pbzip2.cpp:368:0
	movq	16(%rsp), %rax
	movq	%rax, 104(%rsp)
	.loc	1 369 0                 # pbzip2.cpp:369:0
	movq	$0, 112(%rsp)
	.loc	1 370 0                 # pbzip2.cpp:370:0
.Ltmp101:
	movq	%r14, %rdi
	movq	%r15, %rsi
	callq	_ZNSt6vectorI15bz2BlockListingSaIS0_EE9push_backERKS0_
.Ltmp102:
# BB#36:                                # %invoke.cont84
                                        #   in Loop: Header=BB5_31 Depth=2
	.loc	1 371 0                 # pbzip2.cpp:371:0
	incl	40(%rsp)
	.loc	1 373 0                 # pbzip2.cpp:373:0
	cmpq	$0, 24(%rsp)
	jne	.LBB5_38
# BB#37:                                # %if.then86
                                        #   in Loop: Header=BB5_31 Depth=2
	.loc	1 375 0                 # pbzip2.cpp:375:0
.Ltmp154:
	movq	32(%rsp), %rbx
	movl	96(%rsp), %eax
	movl	%ebx, %ebp
	subl	%eax, %ebp
	movl	48(%rsp), %r13d
	movq	%r12, %rdi
	callq	strlen
	negl	%ebp
	leal	-1(%r13,%rbp), %esi
.Ltmp105:
	incq	%rbx
	movq	%rbx, %rdi
	movq	%r12, %rdx
	movl	%eax, %ecx
	callq	_Z6memstrPciS_i
.Ltmp106:
	jmp	.LBB5_31
.Ltmp155:
	.align	16, 0x90
.LBB5_38:                               # %if.else100
                                        #   in Loop: Header=BB5_31 Depth=2
	.loc	1 379 0                 # pbzip2.cpp:379:0
	movq	32(%rsp), %rbx
	movl	96(%rsp), %ecx
	movl	%ebx, %eax
	subl	%ecx, %eax
	movl	48(%rsp), %ebp
	subl	%eax, %ebp
	movq	%r12, %rdi
	callq	strlen
	movq	%rax, %r13
	movq	%r12, %rdi
	callq	strlen
	leal	-2(%r13,%rbp), %esi
.Ltmp103:
	incq	%rbx
	movq	%rbx, %rdi
	movq	%r12, %rdx
	movl	%eax, %ecx
	callq	_Z6memstrPciS_i
.Ltmp104:
	jmp	.LBB5_31
.Ltmp156:
.LBB5_7:                                # %lpad.nonloopexit.nonloopexit.nonloopexit.loopexit
.Ltmp107:
	jmp	.LBB5_10
.LBB5_14:                               # %if.then9
	.loc	1 305 0                 # pbzip2.cpp:305:0
.Ltmp157:
	movq	stderr(%rip), %rdi
.Ltmp112:
	movl	$.L.str6, %esi
	xorb	%al, %al
	callq	fprintf
.Ltmp113:
# BB#15:                                # %invoke.cont10
	.loc	1 306 0                 # pbzip2.cpp:306:0
	movl	176(%rsp), %edi
.Ltmp114:
	callq	close
.Ltmp115:
	jmp	.LBB5_3
.Ltmp158:
.LBB5_40:                               # %while.end121
	.loc	1 386 0                 # pbzip2.cpp:386:0
	movq	_ZL8MemMutex(%rip), %rdi
	callq	pthread_mutex_lock
	.loc	1 387 0                 # pbzip2.cpp:387:0
	cmpq	$0, 96(%rsp)
	je	.LBB5_43
# BB#41:                                # %if.then124
	.loc	1 388 0                 # pbzip2.cpp:388:0
	movq	96(%rsp), %rdi
	testq	%rdi, %rdi
	je	.LBB5_43
# BB#42:                                # %delete.notnull126
	callq	_ZdaPv
.LBB5_43:                               # %if.end128
	.loc	1 389 0                 # pbzip2.cpp:389:0
	movl	40(%rsp), %eax
	movl	%eax, _ZL9NumBlocks(%rip)
	.loc	1 390 0                 # pbzip2.cpp:390:0
	movq	_ZL8MemMutex(%rip), %rdi
	callq	pthread_mutex_unlock
	.loc	1 393 0                 # pbzip2.cpp:393:0
.Ltmp159:
	movl	$0, 44(%rsp)
	leaq	136(%rsp), %rbx
	jmp	.LBB5_44
	.align	16, 0x90
.LBB5_48:                               # %invoke.cont140
                                        #   in Loop: Header=BB5_44 Depth=1
	.loc	1 398 0                 # pbzip2.cpp:398:0
.Ltmp160:
	movq	%rbp, 8(%rax)
.Ltmp161:
	.loc	1 393 0                 # pbzip2.cpp:393:0
	incl	44(%rsp)
.LBB5_44:                               # %for.cond
                                        # =>This Inner Loop Header: Depth=1
	movl	44(%rsp), %eax
	cmpl	40(%rsp), %eax
	jge	.LBB5_55
# BB#45:                                # %for.body
                                        #   in Loop: Header=BB5_44 Depth=1
	.loc	1 395 0                 # pbzip2.cpp:395:0
.Ltmp162:
	movl	40(%rsp), %eax
	decl	%eax
	cmpl	%eax, 44(%rsp)
	jne	.LBB5_49
# BB#46:                                # %if.then133
                                        #   in Loop: Header=BB5_44 Depth=1
	.loc	1 398 0                 # pbzip2.cpp:398:0
.Ltmp163:
	movq	168(%rsp), %rbp
	movslq	44(%rsp), %rsi
.Ltmp87:
	movq	%rbx, %rdi
	callq	_ZNSt6vectorI15bz2BlockListingSaIS0_EEixEm
.Ltmp88:
# BB#47:                                # %invoke.cont135
                                        #   in Loop: Header=BB5_44 Depth=1
	subq	(%rax), %rbp
	movslq	44(%rsp), %rsi
.Ltmp89:
	movq	%rbx, %rdi
	callq	_ZNSt6vectorI15bz2BlockListingSaIS0_EEixEm
.Ltmp90:
	jmp	.LBB5_48
.Ltmp164:
	.align	16, 0x90
.LBB5_49:                               # %if.else143
                                        #   in Loop: Header=BB5_44 Depth=1
	.loc	1 400 0                 # pbzip2.cpp:400:0
	cmpl	$0, 44(%rsp)
	jne	.LBB5_52
# BB#50:                                # %if.then145
                                        #   in Loop: Header=BB5_44 Depth=1
	.loc	1 403 0                 # pbzip2.cpp:403:0
.Ltmp165:
	movl	44(%rsp), %eax
.Ltmp83:
	incl	%eax
	movslq	%eax, %rsi
	movq	%rbx, %rdi
	callq	_ZNSt6vectorI15bz2BlockListingSaIS0_EEixEm
.Ltmp84:
# BB#51:                                # %invoke.cont148
                                        #   in Loop: Header=BB5_44 Depth=1
	movq	(%rax), %rbp
	movslq	44(%rsp), %rsi
.Ltmp85:
	movq	%rbx, %rdi
	callq	_ZNSt6vectorI15bz2BlockListingSaIS0_EEixEm
.Ltmp86:
	jmp	.LBB5_48
.Ltmp166:
	.align	16, 0x90
.LBB5_52:                               # %if.else155
                                        #   in Loop: Header=BB5_44 Depth=1
	.loc	1 408 0                 # pbzip2.cpp:408:0
	movl	44(%rsp), %eax
.Ltmp77:
	incl	%eax
	movslq	%eax, %rsi
	movq	%rbx, %rdi
	callq	_ZNSt6vectorI15bz2BlockListingSaIS0_EEixEm
.Ltmp78:
# BB#53:                                # %invoke.cont158
                                        #   in Loop: Header=BB5_44 Depth=1
	movq	(%rax), %rbp
	movslq	44(%rsp), %rsi
.Ltmp79:
	movq	%rbx, %rdi
	callq	_ZNSt6vectorI15bz2BlockListingSaIS0_EEixEm
.Ltmp80:
# BB#54:                                # %invoke.cont162
                                        #   in Loop: Header=BB5_44 Depth=1
	subq	(%rax), %rbp
	movslq	44(%rsp), %rsi
.Ltmp81:
	movq	%rbx, %rdi
	callq	_ZNSt6vectorI15bz2BlockListingSaIS0_EEixEm
.Ltmp82:
	jmp	.LBB5_48
.Ltmp167:
.LBB5_6:                                # %lpad.nonloopexit.nonloopexit.loopexit
.Ltmp91:
	jmp	.LBB5_10
.LBB5_22:                               # %if.then37
	.loc	1 340 0                 # pbzip2.cpp:340:0
.Ltmp168:
	movq	stderr(%rip), %rdi
.Ltmp108:
	movl	$.L.str7, %esi
	xorb	%al, %al
	callq	fprintf
.Ltmp109:
# BB#23:                                # %invoke.cont38
	.loc	1 341 0                 # pbzip2.cpp:341:0
	movl	176(%rsp), %edi
.Ltmp110:
	callq	close
.Ltmp111:
.LBB5_24:                               # %invoke.cont40
	.loc	1 342 0                 # pbzip2.cpp:342:0
	movq	_ZL8MemMutex(%rip), %rdi
	callq	pthread_mutex_lock
	.loc	1 343 0                 # pbzip2.cpp:343:0
	cmpq	$0, 96(%rsp)
	je	.LBB5_27
# BB#25:                                # %if.then44
	.loc	1 344 0                 # pbzip2.cpp:344:0
	movq	96(%rsp), %rdi
	testq	%rdi, %rdi
	je	.LBB5_27
# BB#26:                                # %delete.notnull
	callq	_ZdaPv
.LBB5_27:                               # %if.end45
	.loc	1 345 0                 # pbzip2.cpp:345:0
	movq	_ZL8MemMutex(%rip), %rdi
	callq	pthread_mutex_unlock
.Ltmp169:
.LBB5_3:                                # %invoke.cont2
	.loc	1 292 0                 # pbzip2.cpp:292:0
	movl	$1, _ZL7allDone(%rip)
	.loc	1 293 0                 # pbzip2.cpp:293:0
	movl	$-1, 180(%rsp)
.Ltmp170:
.LBB5_79:                               # %invoke.cont281
	movl	$1, (%rsp)
	leaq	136(%rsp), %rdi
	.loc	1 525 0                 # pbzip2.cpp:525:0
	callq	_ZNSt6vectorI15bz2BlockListingSaIS0_EED1Ev
.Ltmp171:
	.loc	1 525 0                 # pbzip2.cpp:525:0
	movl	180(%rsp), %eax
	addq	$184, %rsp
	popq	%rbx
	popq	%r12
	popq	%r13
	popq	%r14
	popq	%r15
	popq	%rbp
	ret
.LBB5_55:                               # %for.end
	.loc	1 417 0                 # pbzip2.cpp:417:0
.Ltmp172:
	movl	$0, 44(%rsp)
	leaq	136(%rsp), %rbx
	movq	$-1, %r15
	leaq	120(%rsp), %r14
	jmp	.LBB5_56
.LBB5_91:                               # %for.inc278
                                        #   in Loop: Header=BB5_56 Depth=1
	.loc	1 515 0                 # pbzip2.cpp:515:0
.Ltmp173:
	movq	160(%rsp), %rax
	movq	48(%rax), %rdi
	callq	pthread_mutex_unlock
	.loc	1 516 0                 # pbzip2.cpp:516:0
	movq	160(%rsp), %rax
	movq	64(%rax), %rdi
	callq	pthread_cond_signal
	.loc	1 518 0                 # pbzip2.cpp:518:0
	incl	60(%rsp)
.Ltmp174:
	.loc	1 417 0                 # pbzip2.cpp:417:0
	incl	44(%rsp)
.LBB5_56:                               # %for.cond173
                                        # =>This Loop Header: Depth=1
                                        #     Child Loop BB5_88 Depth 2
	movl	44(%rsp), %eax
	cmpl	40(%rsp), %eax
	jge	.LBB5_77
# BB#57:                                # %for.body175
                                        #   in Loop: Header=BB5_56 Depth=1
	.loc	1 420 0                 # pbzip2.cpp:420:0
.Ltmp175:
	movl	176(%rsp), %ebp
	movslq	44(%rsp), %rsi
.Ltmp37:
	movq	%rbx, %rdi
	callq	_ZNSt6vectorI15bz2BlockListingSaIS0_EEixEm
.Ltmp38:
# BB#58:                                # %invoke.cont177
                                        #   in Loop: Header=BB5_56 Depth=1
	movq	(%rax), %rsi
	movl	%ebp, %edi
	xorl	%edx, %edx
	callq	lseek
	movq	%rax, %rbp
	movq	%rbp, 48(%rsp)
	.loc	1 421 0                 # pbzip2.cpp:421:0
	movslq	44(%rsp), %rsi
.Ltmp39:
	movq	%rbx, %rdi
	callq	_ZNSt6vectorI15bz2BlockListingSaIS0_EEixEm
.Ltmp40:
# BB#59:                                # %invoke.cont182
                                        #   in Loop: Header=BB5_56 Depth=1
	cmpq	(%rax), %rbp
	jne	.LBB5_60
# BB#62:                                # %if.end191
                                        #   in Loop: Header=BB5_56 Depth=1
	.loc	1 430 0                 # pbzip2.cpp:430:0
	movslq	44(%rsp), %rsi
.Ltmp41:
	movq	%rbx, %rdi
	callq	_ZNSt6vectorI15bz2BlockListingSaIS0_EEixEm
.Ltmp42:
# BB#63:                                # %invoke.cont193
                                        #   in Loop: Header=BB5_56 Depth=1
	movq	8(%rax), %rax
	movq	%rax, 64(%rsp)
	.loc	1 436 0                 # pbzip2.cpp:436:0
	cmpl	$1, _ZL9QuietMode(%rip)
	je	.LBB5_67
# BB#64:                                # %if.then197
                                        #   in Loop: Header=BB5_56 Depth=1
	.loc	1 439 0                 # pbzip2.cpp:439:0
.Ltmp176:
	cmpq	$250000001, 64(%rsp)    # imm = 0xEE6B281
	jl	.LBB5_67
# BB#65:                                # %if.then199
                                        #   in Loop: Header=BB5_56 Depth=1
	.loc	1 441 0                 # pbzip2.cpp:441:0
.Ltmp177:
	movq	64(%rsp), %rdx
	movq	stderr(%rip), %rdi
.Ltmp43:
	movl	$.L.str8, %esi
	xorb	%al, %al
	callq	fprintf
.Ltmp44:
# BB#66:                                # %invoke.cont200
                                        #   in Loop: Header=BB5_56 Depth=1
	.loc	1 442 0                 # pbzip2.cpp:442:0
	movq	stderr(%rip), %rdi
.Ltmp45:
	movl	$.L.str9, %esi
	xorb	%al, %al
	callq	fprintf
.Ltmp46:
.Ltmp178:
.LBB5_67:                               # %if.end205
                                        #   in Loop: Header=BB5_56 Depth=1
	.loc	1 446 0                 # pbzip2.cpp:446:0
	movq	_ZL8MemMutex(%rip), %rdi
	callq	pthread_mutex_lock
	.loc	1 448 0                 # pbzip2.cpp:448:0
	movq	$0, 96(%rsp)
	.loc	1 449 0                 # pbzip2.cpp:449:0
	movq	64(%rsp), %rdi
	testq	%rdi, %rdi
	cmovsq	%r15, %rdi
.Ltmp47:
	callq	_Znam
.Ltmp48:
# BB#68:                                # %invoke.cont207
                                        #   in Loop: Header=BB5_56 Depth=1
	movq	%rax, 96(%rsp)
	.loc	1 450 0                 # pbzip2.cpp:450:0
	movq	_ZL8MemMutex(%rip), %rdi
	callq	pthread_mutex_unlock
	.loc	1 452 0                 # pbzip2.cpp:452:0
	cmpq	$0, 96(%rsp)
	je	.LBB5_69
# BB#71:                                # %if.end216
                                        #   in Loop: Header=BB5_56 Depth=1
	.loc	1 461 0                 # pbzip2.cpp:461:0
	movq	64(%rsp), %rdx
	movq	96(%rsp), %rsi
	movl	176(%rsp), %edi
.Ltmp49:
	callq	read
.Ltmp50:
# BB#72:                                # %invoke.cont217
                                        #   in Loop: Header=BB5_56 Depth=1
	movq	%rax, 48(%rsp)
	testq	%rax, %rax
	je	.LBB5_73
# BB#80:                                # %if.else229
                                        #   in Loop: Header=BB5_56 Depth=1
	.loc	1 474 0                 # pbzip2.cpp:474:0
	cmpq	$0, 48(%rsp)
	js	.LBB5_81
# BB#83:                                # %if.else244
                                        #   in Loop: Header=BB5_56 Depth=1
	.loc	1 485 0                 # pbzip2.cpp:485:0
	movq	48(%rsp), %rax
	cmpq	64(%rsp), %rax
	jne	.LBB5_84
# BB#86:                                # %if.end261
                                        #   in Loop: Header=BB5_56 Depth=1
	.loc	1 498 0                 # pbzip2.cpp:498:0
	movq	_ZL8OutMutex(%rip), %rdi
	callq	pthread_mutex_lock
	.loc	1 499 0                 # pbzip2.cpp:499:0
.Ltmp51:
	movl	$_ZL12OutputBuffer, %edi
	movq	%r14, %rsi
	callq	_ZNSt6vectorI7outBuffSaIS0_EE9push_backERKS0_
.Ltmp52:
# BB#87:                                # %invoke.cont263
                                        #   in Loop: Header=BB5_56 Depth=1
	.loc	1 500 0                 # pbzip2.cpp:500:0
	movq	_ZL8OutMutex(%rip), %rdi
	callq	pthread_mutex_unlock
	.loc	1 503 0                 # pbzip2.cpp:503:0
	movq	160(%rsp), %rax
	movq	48(%rax), %rdi
	callq	pthread_mutex_lock
	.align	16, 0x90
.LBB5_88:                               # %while.cond266
                                        #   Parent Loop BB5_56 Depth=1
                                        # =>  This Inner Loop Header: Depth=2
	.loc	1 504 0                 # pbzip2.cpp:504:0
	movq	160(%rsp), %rax
	cmpl	$0, 40(%rax)
	je	.LBB5_90
# BB#89:                                # %while.body267
                                        #   in Loop: Header=BB5_88 Depth=2
	.loc	1 508 0                 # pbzip2.cpp:508:0
.Ltmp179:
	movq	160(%rsp), %rax
	movq	48(%rax), %rsi
	movq	56(%rax), %rdi
.Ltmp56:
	callq	pthread_cond_wait
.Ltmp57:
	jmp	.LBB5_88
.Ltmp180:
.LBB5_90:                               # %while.end271
                                        #   in Loop: Header=BB5_56 Depth=1
	.loc	1 514 0                 # pbzip2.cpp:514:0
	movl	60(%rsp), %ecx
	movl	64(%rsp), %edx
	movq	96(%rsp), %rsi
	movq	160(%rsp), %rdi
.Ltmp53:
	callq	_Z8queueAddP5queuePcji
.Ltmp54:
	jmp	.LBB5_91
.LBB5_5:                                # %lpad.nonloopexit.loopexit
.Ltmp55:
	jmp	.LBB5_10
.LBB5_60:                               # %if.then186
	.loc	1 423 0                 # pbzip2.cpp:423:0
.Ltmp181:
	movq	48(%rsp), %rdx
	movq	stderr(%rip), %rdi
.Ltmp73:
	movl	$.L.str5, %esi
	xorb	%al, %al
	callq	fprintf
.Ltmp74:
# BB#61:                                # %invoke.cont187
	.loc	1 424 0                 # pbzip2.cpp:424:0
	movl	176(%rsp), %edi
.Ltmp75:
	callq	close
.Ltmp76:
	jmp	.LBB5_3
.Ltmp182:
.LBB5_69:                               # %if.then211
	.loc	1 454 0                 # pbzip2.cpp:454:0
	movq	stderr(%rip), %rdi
.Ltmp69:
	movl	$.L.str6, %esi
	xorb	%al, %al
	callq	fprintf
.Ltmp70:
# BB#70:                                # %invoke.cont212
	.loc	1 455 0                 # pbzip2.cpp:455:0
	movl	176(%rsp), %edi
.Ltmp71:
	callq	close
.Ltmp72:
	jmp	.LBB5_3
.Ltmp183:
.LBB5_73:                               # %if.then220
	.loc	1 468 0                 # pbzip2.cpp:468:0
	movq	_ZL8MemMutex(%rip), %rdi
	callq	pthread_mutex_lock
	.loc	1 469 0                 # pbzip2.cpp:469:0
	cmpq	$0, 96(%rsp)
	je	.LBB5_76
# BB#74:                                # %if.then223
	.loc	1 470 0                 # pbzip2.cpp:470:0
	movq	96(%rsp), %rdi
	testq	%rdi, %rdi
	je	.LBB5_76
# BB#75:                                # %delete.notnull225
	callq	_ZdaPv
.LBB5_76:                               # %if.end227
	.loc	1 471 0                 # pbzip2.cpp:471:0
	movq	_ZL8MemMutex(%rip), %rdi
	callq	pthread_mutex_unlock
.Ltmp184:
.LBB5_77:                               # %for.end280
	.loc	1 521 0                 # pbzip2.cpp:521:0
	movl	176(%rsp), %edi
.Ltmp67:
	callq	close
.Ltmp68:
# BB#78:                                # %invoke.cont281
	.loc	1 523 0                 # pbzip2.cpp:523:0
	movl	$1, _ZL7allDone(%rip)
	.loc	1 524 0                 # pbzip2.cpp:524:0
	movl	$0, 180(%rsp)
	jmp	.LBB5_79
.LBB5_81:                               # %if.then231
	.loc	1 476 0                 # pbzip2.cpp:476:0
.Ltmp185:
	movq	stderr(%rip), %rdi
.Ltmp63:
	movl	$.L.str10, %esi
	xorb	%al, %al
	callq	fprintf
.Ltmp64:
# BB#82:                                # %invoke.cont232
	.loc	1 477 0                 # pbzip2.cpp:477:0
	movl	176(%rsp), %edi
.Ltmp65:
	callq	close
.Ltmp66:
	jmp	.LBB5_24
.Ltmp186:
.LBB5_84:                               # %if.then246
	.loc	1 487 0                 # pbzip2.cpp:487:0
	movq	stderr(%rip), %rdi
.Ltmp59:
	movl	$.L.str11, %esi
	xorb	%al, %al
	callq	fprintf
.Ltmp60:
# BB#85:                                # %invoke.cont247
	.loc	1 488 0                 # pbzip2.cpp:488:0
	movl	176(%rsp), %edi
.Ltmp61:
	callq	close
.Ltmp62:
	jmp	.LBB5_24
.Ltmp187:
.LBB5_9:                                # %lpad.nonloopexit.nonloopexit.nonloopexit.nonloopexit.nonloopexit
.Ltmp120:
	jmp	.LBB5_10
.LBB5_8:                                # %lpad.nonloopexit.nonloopexit.nonloopexit.nonloopexit.loopexit
.Ltmp100:
	jmp	.LBB5_10
.LBB5_4:                                # %lpad.loopexit
.Ltmp58:
.LBB5_10:                               # %lpad
	.loc	1 290 0                 # pbzip2.cpp:290:0
.Ltmp188:
	movq	%rax, 8(%rsp)
	movl	%edx, 4(%rsp)
.Ltmp189:
	.loc	1 525 0                 # pbzip2.cpp:525:0
.Ltmp121:
	leaq	136(%rsp), %rdi
	callq	_ZNSt6vectorI15bz2BlockListingSaIS0_EED1Ev
.Ltmp122:
# BB#11:                                # %eh.resume
	movq	8(%rsp), %rdi
	callq	_Unwind_Resume
.LBB5_92:                               # %terminate.lpad
.Ltmp123:
	callq	_ZSt9terminatev
.Ltmp190:
.Ltmp191:
	.size	_Z19producer_decompressilP5queue, .Ltmp191-_Z19producer_decompressilP5queue
.Lfunc_end5:
	.cfi_endproc
.Leh_func_end5:
	.section	.gcc_except_table,"a",@progbits
	.align	4
GCC_except_table5:
.Lexception5:
	.byte	255                     # @LPStart Encoding = omit
	.byte	3                       # @TType Encoding = udata4
	.asciz	 "\331\201\200\200"     # @TType base offset
	.byte	3                       # Call site Encoding = udata4
	.ascii	 "\320\001"             # Call site table length
.Lset0 = .Leh_func_begin5-.Leh_func_begin5 # >> Call Site 1 <<
	.long	.Lset0
.Lset1 = .Ltmp116-.Leh_func_begin5      #   Call between .Leh_func_begin5 and .Ltmp116
	.long	.Lset1
	.long	0                       #     has no landing pad
	.byte	0                       #   On action: cleanup
.Lset2 = .Ltmp116-.Leh_func_begin5      # >> Call Site 2 <<
	.long	.Lset2
.Lset3 = .Ltmp36-.Ltmp116               #   Call between .Ltmp116 and .Ltmp36
	.long	.Lset3
.Lset4 = .Ltmp120-.Leh_func_begin5      #     jumps to .Ltmp120
	.long	.Lset4
	.byte	0                       #   On action: cleanup
.Lset5 = .Ltmp94-.Leh_func_begin5       # >> Call Site 3 <<
	.long	.Lset5
.Lset6 = .Ltmp95-.Ltmp94                #   Call between .Ltmp94 and .Ltmp95
	.long	.Lset6
.Lset7 = .Ltmp100-.Leh_func_begin5      #     jumps to .Ltmp100
	.long	.Lset7
	.byte	0                       #   On action: cleanup
.Lset8 = .Ltmp95-.Leh_func_begin5       # >> Call Site 4 <<
	.long	.Lset8
.Lset9 = .Ltmp92-.Ltmp95                #   Call between .Ltmp95 and .Ltmp92
	.long	.Lset9
	.long	0                       #     has no landing pad
	.byte	0                       #   On action: cleanup
.Lset10 = .Ltmp92-.Leh_func_begin5      # >> Call Site 5 <<
	.long	.Lset10
.Lset11 = .Ltmp97-.Ltmp92               #   Call between .Ltmp92 and .Ltmp97
	.long	.Lset11
.Lset12 = .Ltmp100-.Leh_func_begin5     #     jumps to .Ltmp100
	.long	.Lset12
	.byte	0                       #   On action: cleanup
.Lset13 = .Ltmp101-.Leh_func_begin5     # >> Call Site 6 <<
	.long	.Lset13
.Lset14 = .Ltmp104-.Ltmp101             #   Call between .Ltmp101 and .Ltmp104
	.long	.Lset14
.Lset15 = .Ltmp107-.Leh_func_begin5     #     jumps to .Ltmp107
	.long	.Lset15
	.byte	0                       #   On action: cleanup
.Lset16 = .Ltmp112-.Leh_func_begin5     # >> Call Site 7 <<
	.long	.Lset16
.Lset17 = .Ltmp115-.Ltmp112             #   Call between .Ltmp112 and .Ltmp115
	.long	.Lset17
.Lset18 = .Ltmp120-.Leh_func_begin5     #     jumps to .Ltmp120
	.long	.Lset18
	.byte	0                       #   On action: cleanup
.Lset19 = .Ltmp87-.Leh_func_begin5      # >> Call Site 8 <<
	.long	.Lset19
.Lset20 = .Ltmp82-.Ltmp87               #   Call between .Ltmp87 and .Ltmp82
	.long	.Lset20
.Lset21 = .Ltmp91-.Leh_func_begin5      #     jumps to .Ltmp91
	.long	.Lset21
	.byte	0                       #   On action: cleanup
.Lset22 = .Ltmp108-.Leh_func_begin5     # >> Call Site 9 <<
	.long	.Lset22
.Lset23 = .Ltmp111-.Ltmp108             #   Call between .Ltmp108 and .Ltmp111
	.long	.Lset23
.Lset24 = .Ltmp120-.Leh_func_begin5     #     jumps to .Ltmp120
	.long	.Lset24
	.byte	0                       #   On action: cleanup
.Lset25 = .Ltmp111-.Leh_func_begin5     # >> Call Site 10 <<
	.long	.Lset25
.Lset26 = .Ltmp37-.Ltmp111              #   Call between .Ltmp111 and .Ltmp37
	.long	.Lset26
	.long	0                       #     has no landing pad
	.byte	0                       #   On action: cleanup
.Lset27 = .Ltmp37-.Leh_func_begin5      # >> Call Site 11 <<
	.long	.Lset27
.Lset28 = .Ltmp52-.Ltmp37               #   Call between .Ltmp37 and .Ltmp52
	.long	.Lset28
.Lset29 = .Ltmp55-.Leh_func_begin5      #     jumps to .Ltmp55
	.long	.Lset29
	.byte	0                       #   On action: cleanup
.Lset30 = .Ltmp56-.Leh_func_begin5      # >> Call Site 12 <<
	.long	.Lset30
.Lset31 = .Ltmp57-.Ltmp56               #   Call between .Ltmp56 and .Ltmp57
	.long	.Lset31
.Lset32 = .Ltmp58-.Leh_func_begin5      #     jumps to .Ltmp58
	.long	.Lset32
	.byte	0                       #   On action: cleanup
.Lset33 = .Ltmp53-.Leh_func_begin5      # >> Call Site 13 <<
	.long	.Lset33
.Lset34 = .Ltmp54-.Ltmp53               #   Call between .Ltmp53 and .Ltmp54
	.long	.Lset34
.Lset35 = .Ltmp55-.Leh_func_begin5      #     jumps to .Ltmp55
	.long	.Lset35
	.byte	0                       #   On action: cleanup
.Lset36 = .Ltmp73-.Leh_func_begin5      # >> Call Site 14 <<
	.long	.Lset36
.Lset37 = .Ltmp62-.Ltmp73               #   Call between .Ltmp73 and .Ltmp62
	.long	.Lset37
.Lset38 = .Ltmp120-.Leh_func_begin5     #     jumps to .Ltmp120
	.long	.Lset38
	.byte	0                       #   On action: cleanup
.Lset39 = .Ltmp121-.Leh_func_begin5     # >> Call Site 15 <<
	.long	.Lset39
.Lset40 = .Ltmp122-.Ltmp121             #   Call between .Ltmp121 and .Ltmp122
	.long	.Lset40
.Lset41 = .Ltmp123-.Leh_func_begin5     #     jumps to .Ltmp123
	.long	.Lset41
	.byte	1                       #   On action: 1
.Lset42 = .Ltmp122-.Leh_func_begin5     # >> Call Site 16 <<
	.long	.Lset42
.Lset43 = .Leh_func_end5-.Ltmp122       #   Call between .Ltmp122 and .Leh_func_end5
	.long	.Lset43
	.long	0                       #     has no landing pad
	.byte	0                       #   On action: cleanup
	.byte	1                       # >> Action Record 1 <<
                                        #   Catch TypeInfo 1
	.byte	0                       #   No further actions
                                        # >> Catch TypeInfos <<
	.long	0                       # TypeInfo 1
	.align	4

	.section	.text._ZNSt6vectorI15bz2BlockListingSaIS0_EEC1Ev,"axG",@progbits,_ZNSt6vectorI15bz2BlockListingSaIS0_EEC1Ev,comdat
	.weak	_ZNSt6vectorI15bz2BlockListingSaIS0_EEC1Ev
	.align	16, 0x90
	.type	_ZNSt6vectorI15bz2BlockListingSaIS0_EEC1Ev,@function
_ZNSt6vectorI15bz2BlockListingSaIS0_EEC1Ev: # @_ZNSt6vectorI15bz2BlockListingSaIS0_EEC1Ev
	.cfi_startproc
.Lfunc_begin6:
	.loc	5 249 0                 # /usr/lib/gcc/x86_64-linux-gnu/4.8/../../../../include/c++/4.8/bits/stl_vector.h:249:0
# BB#0:                                 # %entry
	pushq	%rax
.Ltmp193:
	.cfi_def_cfa_offset 16
	movq	%rdi, (%rsp)
	.loc	5 249 0 prologue_end    # /usr/lib/gcc/x86_64-linux-gnu/4.8/../../../../include/c++/4.8/bits/stl_vector.h:249:0
.Ltmp194:
	callq	_ZNSt6vectorI15bz2BlockListingSaIS0_EEC2Ev
	popq	%rax
	ret
.Ltmp195:
.Ltmp196:
	.size	_ZNSt6vectorI15bz2BlockListingSaIS0_EEC1Ev, .Ltmp196-_ZNSt6vectorI15bz2BlockListingSaIS0_EEC1Ev
.Lfunc_end6:
	.cfi_endproc

	.section	.text._ZNSt6vectorI15bz2BlockListingSaIS0_EE9push_backERKS0_,"axG",@progbits,_ZNSt6vectorI15bz2BlockListingSaIS0_EE9push_backERKS0_,comdat
	.weak	_ZNSt6vectorI15bz2BlockListingSaIS0_EE9push_backERKS0_
	.align	16, 0x90
	.type	_ZNSt6vectorI15bz2BlockListingSaIS0_EE9push_backERKS0_,@function
_ZNSt6vectorI15bz2BlockListingSaIS0_EE9push_backERKS0_: # @_ZNSt6vectorI15bz2BlockListingSaIS0_EE9push_backERKS0_
	.cfi_startproc
.Lfunc_begin7:
	.loc	5 902 0                 # /usr/lib/gcc/x86_64-linux-gnu/4.8/../../../../include/c++/4.8/bits/stl_vector.h:902:0
# BB#0:                                 # %entry
	pushq	%rbx
.Ltmp199:
	.cfi_def_cfa_offset 16
	subq	$32, %rsp
.Ltmp200:
	.cfi_def_cfa_offset 48
.Ltmp201:
	.cfi_offset %rbx, -16
	movq	%rdi, 24(%rsp)
	movq	%rsi, 16(%rsp)
	movq	24(%rsp), %rbx
	.loc	5 903 0 prologue_end    # /usr/lib/gcc/x86_64-linux-gnu/4.8/../../../../include/c++/4.8/bits/stl_vector.h:903:0
.Ltmp202:
	movq	8(%rbx), %rax
	cmpq	16(%rbx), %rax
	je	.LBB7_2
# BB#1:                                 # %if.then
	.loc	5 905 0                 # /usr/lib/gcc/x86_64-linux-gnu/4.8/../../../../include/c++/4.8/bits/stl_vector.h:905:0
.Ltmp203:
	movq	8(%rbx), %rsi
	movq	16(%rsp), %rdx
	movq	%rbx, %rdi
	callq	_ZN9__gnu_cxx14__alloc_traitsISaI15bz2BlockListingEE9constructIS1_EEvRS2_PS1_RKT_
	.loc	5 907 0                 # /usr/lib/gcc/x86_64-linux-gnu/4.8/../../../../include/c++/4.8/bits/stl_vector.h:907:0
	addq	$16, 8(%rbx)
	jmp	.LBB7_3
.Ltmp204:
.LBB7_2:                                # %if.else
	.loc	5 913 0                 # /usr/lib/gcc/x86_64-linux-gnu/4.8/../../../../include/c++/4.8/bits/stl_vector.h:913:0
	movq	%rbx, %rdi
	callq	_ZNSt6vectorI15bz2BlockListingSaIS0_EE3endEv
	movq	%rax, 8(%rsp)
	movq	16(%rsp), %rdx
	movq	%rbx, %rdi
	movq	%rax, %rsi
	callq	_ZNSt6vectorI15bz2BlockListingSaIS0_EE13_M_insert_auxEN9__gnu_cxx17__normal_iteratorIPS0_S2_EERKS0_
.LBB7_3:                                # %if.end
	.loc	5 915 0                 # /usr/lib/gcc/x86_64-linux-gnu/4.8/../../../../include/c++/4.8/bits/stl_vector.h:915:0
	addq	$32, %rsp
	popq	%rbx
	ret
.Ltmp205:
.Ltmp206:
	.size	_ZNSt6vectorI15bz2BlockListingSaIS0_EE9push_backERKS0_, .Ltmp206-_ZNSt6vectorI15bz2BlockListingSaIS0_EE9push_backERKS0_
.Lfunc_end7:
	.cfi_endproc

	.section	.text._ZNSt6vectorI15bz2BlockListingSaIS0_EEixEm,"axG",@progbits,_ZNSt6vectorI15bz2BlockListingSaIS0_EEixEm,comdat
	.weak	_ZNSt6vectorI15bz2BlockListingSaIS0_EEixEm
	.align	16, 0x90
	.type	_ZNSt6vectorI15bz2BlockListingSaIS0_EEixEm,@function
_ZNSt6vectorI15bz2BlockListingSaIS0_EEixEm: # @_ZNSt6vectorI15bz2BlockListingSaIS0_EEixEm
	.cfi_startproc
.Lfunc_begin8:
	.loc	5 771 0                 # /usr/lib/gcc/x86_64-linux-gnu/4.8/../../../../include/c++/4.8/bits/stl_vector.h:771:0
# BB#0:                                 # %entry
	movq	%rdi, -8(%rsp)
	movq	%rsi, -16(%rsp)
	.loc	5 771 0 prologue_end    # /usr/lib/gcc/x86_64-linux-gnu/4.8/../../../../include/c++/4.8/bits/stl_vector.h:771:0
.Ltmp207:
	shlq	$4, %rsi
	movq	-8(%rsp), %rax
	addq	(%rax), %rsi
	movq	%rsi, %rax
	ret
.Ltmp208:
.Ltmp209:
	.size	_ZNSt6vectorI15bz2BlockListingSaIS0_EEixEm, .Ltmp209-_ZNSt6vectorI15bz2BlockListingSaIS0_EEixEm
.Lfunc_end8:
	.cfi_endproc

	.section	.text._ZNSt6vectorI7outBuffSaIS0_EE9push_backERKS0_,"axG",@progbits,_ZNSt6vectorI7outBuffSaIS0_EE9push_backERKS0_,comdat
	.weak	_ZNSt6vectorI7outBuffSaIS0_EE9push_backERKS0_
	.align	16, 0x90
	.type	_ZNSt6vectorI7outBuffSaIS0_EE9push_backERKS0_,@function
_ZNSt6vectorI7outBuffSaIS0_EE9push_backERKS0_: # @_ZNSt6vectorI7outBuffSaIS0_EE9push_backERKS0_
	.cfi_startproc
.Lfunc_begin9:
	.loc	5 902 0                 # /usr/lib/gcc/x86_64-linux-gnu/4.8/../../../../include/c++/4.8/bits/stl_vector.h:902:0
# BB#0:                                 # %entry
	pushq	%rbx
.Ltmp212:
	.cfi_def_cfa_offset 16
	subq	$32, %rsp
.Ltmp213:
	.cfi_def_cfa_offset 48
.Ltmp214:
	.cfi_offset %rbx, -16
	movq	%rdi, 24(%rsp)
	movq	%rsi, 16(%rsp)
	movq	24(%rsp), %rbx
	.loc	5 903 0 prologue_end    # /usr/lib/gcc/x86_64-linux-gnu/4.8/../../../../include/c++/4.8/bits/stl_vector.h:903:0
.Ltmp215:
	movq	8(%rbx), %rax
	cmpq	16(%rbx), %rax
	je	.LBB9_2
# BB#1:                                 # %if.then
	.loc	5 905 0                 # /usr/lib/gcc/x86_64-linux-gnu/4.8/../../../../include/c++/4.8/bits/stl_vector.h:905:0
.Ltmp216:
	movq	8(%rbx), %rsi
	movq	16(%rsp), %rdx
	movq	%rbx, %rdi
	callq	_ZN9__gnu_cxx14__alloc_traitsISaI7outBuffEE9constructIS1_EEvRS2_PS1_RKT_
	.loc	5 907 0                 # /usr/lib/gcc/x86_64-linux-gnu/4.8/../../../../include/c++/4.8/bits/stl_vector.h:907:0
	addq	$16, 8(%rbx)
	jmp	.LBB9_3
.Ltmp217:
.LBB9_2:                                # %if.else
	.loc	5 913 0                 # /usr/lib/gcc/x86_64-linux-gnu/4.8/../../../../include/c++/4.8/bits/stl_vector.h:913:0
	movq	%rbx, %rdi
	callq	_ZNSt6vectorI7outBuffSaIS0_EE3endEv
	movq	%rax, 8(%rsp)
	movq	16(%rsp), %rdx
	movq	%rbx, %rdi
	movq	%rax, %rsi
	callq	_ZNSt6vectorI7outBuffSaIS0_EE13_M_insert_auxEN9__gnu_cxx17__normal_iteratorIPS0_S2_EERKS0_
.LBB9_3:                                # %if.end
	.loc	5 915 0                 # /usr/lib/gcc/x86_64-linux-gnu/4.8/../../../../include/c++/4.8/bits/stl_vector.h:915:0
	addq	$32, %rsp
	popq	%rbx
	ret
.Ltmp218:
.Ltmp219:
	.size	_ZNSt6vectorI7outBuffSaIS0_EE9push_backERKS0_, .Ltmp219-_ZNSt6vectorI7outBuffSaIS0_EE9push_backERKS0_
.Lfunc_end9:
	.cfi_endproc

	.text
	.globl	_Z8queueAddP5queuePcji
	.align	16, 0x90
	.type	_Z8queueAddP5queuePcji,@function
_Z8queueAddP5queuePcji:                 # @_Z8queueAddP5queuePcji
	.cfi_startproc
.Lfunc_begin10:
	.loc	1 1075 0                # pbzip2.cpp:1075:0
# BB#0:                                 # %entry
	movq	%rdi, -8(%rsp)
	movq	%rsi, -16(%rsp)
	movl	%edx, -20(%rsp)
	movl	%ecx, -24(%rsp)
	.loc	1 1076 0 prologue_end   # pbzip2.cpp:1076:0
.Ltmp220:
	movq	-8(%rsp), %rcx
	movq	(%rcx), %rax
	movq	32(%rcx), %rcx
	movq	-16(%rsp), %rdx
	movq	%rdx, (%rax,%rcx,8)
	.loc	1 1077 0                # pbzip2.cpp:1077:0
	movq	-8(%rsp), %rcx
	movq	8(%rcx), %rax
	movq	32(%rcx), %rcx
	movl	-20(%rsp), %edx
	movl	%edx, (%rax,%rcx,4)
	.loc	1 1078 0                # pbzip2.cpp:1078:0
	movq	-8(%rsp), %rcx
	movq	16(%rcx), %rax
	movq	32(%rcx), %rcx
	movl	-24(%rsp), %edx
	movl	%edx, (%rax,%rcx,4)
	.loc	1 1079 0                # pbzip2.cpp:1079:0
	movq	-8(%rsp), %rax
	incq	32(%rax)
	.loc	1 1080 0                # pbzip2.cpp:1080:0
	movq	-8(%rsp), %rax
	movq	32(%rax), %rax
	movslq	_ZL9QUEUESIZE(%rip), %rcx
	cmpq	%rcx, %rax
	jne	.LBB10_2
# BB#1:                                 # %if.then
	.loc	1 1081 0                # pbzip2.cpp:1081:0
	movq	-8(%rsp), %rax
	movq	$0, 32(%rax)
.LBB10_2:                               # %if.end
	.loc	1 1082 0                # pbzip2.cpp:1082:0
	movq	-8(%rsp), %rax
	movq	32(%rax), %rcx
	cmpq	24(%rax), %rcx
	jne	.LBB10_4
# BB#3:                                 # %if.then12
	.loc	1 1083 0                # pbzip2.cpp:1083:0
	movq	-8(%rsp), %rax
	movl	$1, 40(%rax)
.LBB10_4:                               # %if.end13
	.loc	1 1084 0                # pbzip2.cpp:1084:0
	movq	-8(%rsp), %rax
	movl	$0, 44(%rax)
	.loc	1 1086 0                # pbzip2.cpp:1086:0
	ret
.Ltmp221:
.Ltmp222:
	.size	_Z8queueAddP5queuePcji, .Ltmp222-_Z8queueAddP5queuePcji
.Lfunc_end10:
	.cfi_endproc

	.section	.text._ZNSt6vectorI15bz2BlockListingSaIS0_EED1Ev,"axG",@progbits,_ZNSt6vectorI15bz2BlockListingSaIS0_EED1Ev,comdat
	.weak	_ZNSt6vectorI15bz2BlockListingSaIS0_EED1Ev
	.align	16, 0x90
	.type	_ZNSt6vectorI15bz2BlockListingSaIS0_EED1Ev,@function
_ZNSt6vectorI15bz2BlockListingSaIS0_EED1Ev: # @_ZNSt6vectorI15bz2BlockListingSaIS0_EED1Ev
	.cfi_startproc
.Lfunc_begin11:
	.loc	5 415 0                 # /usr/lib/gcc/x86_64-linux-gnu/4.8/../../../../include/c++/4.8/bits/stl_vector.h:415:0
# BB#0:                                 # %entry
	pushq	%rax
.Ltmp224:
	.cfi_def_cfa_offset 16
	movq	%rdi, (%rsp)
	.loc	5 415 0 prologue_end    # /usr/lib/gcc/x86_64-linux-gnu/4.8/../../../../include/c++/4.8/bits/stl_vector.h:415:0
.Ltmp225:
	callq	_ZNSt6vectorI15bz2BlockListingSaIS0_EED2Ev
	.loc	5 416 0                 # /usr/lib/gcc/x86_64-linux-gnu/4.8/../../../../include/c++/4.8/bits/stl_vector.h:416:0
	popq	%rax
	ret
.Ltmp226:
.Ltmp227:
	.size	_ZNSt6vectorI15bz2BlockListingSaIS0_EED1Ev, .Ltmp227-_ZNSt6vectorI15bz2BlockListingSaIS0_EED1Ev
.Lfunc_end11:
	.cfi_endproc

	.text
	.globl	_Z19consumer_decompressPv
	.align	16, 0x90
	.type	_Z19consumer_decompressPv,@function
_Z19consumer_decompressPv:              # @_Z19consumer_decompressPv
	.cfi_startproc
.Lfunc_begin12:
	.loc	1 531 0                 # pbzip2.cpp:531:0
# BB#0:                                 # %entry
	pushq	%rbp
.Ltmp235:
	.cfi_def_cfa_offset 16
	pushq	%r15
.Ltmp236:
	.cfi_def_cfa_offset 24
	pushq	%r14
.Ltmp237:
	.cfi_def_cfa_offset 32
	pushq	%r13
.Ltmp238:
	.cfi_def_cfa_offset 40
	pushq	%r12
.Ltmp239:
	.cfi_def_cfa_offset 48
	pushq	%rbx
.Ltmp240:
	.cfi_def_cfa_offset 56
	subq	$104, %rsp
.Ltmp241:
	.cfi_def_cfa_offset 160
.Ltmp242:
	.cfi_offset %rbx, -56
.Ltmp243:
	.cfi_offset %r12, -48
.Ltmp244:
	.cfi_offset %r13, -40
.Ltmp245:
	.cfi_offset %r14, -32
.Ltmp246:
	.cfi_offset %r15, -24
.Ltmp247:
	.cfi_offset %rbp, -16
	movq	%rdi, 88(%rsp)
	.loc	1 541 0 prologue_end    # pbzip2.cpp:541:0
.Ltmp248:
	movq	$0, 32(%rsp)
	.loc	1 542 0                 # pbzip2.cpp:542:0
	movq	$0, 24(%rsp)
	.loc	1 543 0                 # pbzip2.cpp:543:0
	movl	$0, 20(%rsp)
	.loc	1 544 0                 # pbzip2.cpp:544:0
	movl	$0, 16(%rsp)
	.loc	1 545 0                 # pbzip2.cpp:545:0
	movl	$-1, 12(%rsp)
	.loc	1 546 0                 # pbzip2.cpp:546:0
	movl	$-1, 8(%rsp)
	.loc	1 547 0                 # pbzip2.cpp:547:0
	movl	$-1, 4(%rsp)
	.loc	1 549 0                 # pbzip2.cpp:549:0
	movq	88(%rsp), %rax
	movq	%rax, 40(%rsp)
	leaq	56(%rsp), %r14
	leaq	48(%rsp), %r15
	leaq	72(%rsp), %r13
	leaq	16(%rsp), %rbp
	jmp	.LBB12_1
.LBB12_22:                              # %delete.end55
                                        #   in Loop: Header=BB12_1 Depth=1
	.loc	1 666 0                 # pbzip2.cpp:666:0
.Ltmp249:
	movq	$0, 32(%rsp)
	.loc	1 667 0                 # pbzip2.cpp:667:0
	movq	_ZL8MemMutex(%rip), %rdi
	callq	pthread_mutex_unlock
.Ltmp250:
	.align	16, 0x90
.LBB12_1:                               # %for.cond
                                        # =>This Loop Header: Depth=1
                                        #     Child Loop BB12_2 Depth 2
                                        #     Child Loop BB12_8 Depth 2
	.loc	1 553 0                 # pbzip2.cpp:553:0
	movq	40(%rsp), %rax
	movq	48(%rax), %rdi
	callq	pthread_mutex_lock
	.align	16, 0x90
.LBB12_2:                               # %while.cond
                                        #   Parent Loop BB12_1 Depth=1
                                        # =>  This Inner Loop Header: Depth=2
	.loc	1 554 0                 # pbzip2.cpp:554:0
	movq	40(%rsp), %rax
	cmpl	$0, 44(%rax)
	je	.LBB12_7
# BB#3:                                 # %while.body
                                        #   in Loop: Header=BB12_2 Depth=2
	.loc	1 559 0                 # pbzip2.cpp:559:0
.Ltmp251:
	cmpl	$1, _ZL7allDone(%rip)
	je	.LBB12_4
# BB#5:                                 # %if.end
                                        #   in Loop: Header=BB12_2 Depth=2
	.loc	1 570 0                 # pbzip2.cpp:570:0
	movq	%r14, %rdi
	movq	%r15, %rsi
	callq	gettimeofday
	.loc	1 571 0                 # pbzip2.cpp:571:0
	movq	56(%rsp), %rax
	incq	%rax
	movq	%rax, 72(%rsp)
	.loc	1 572 0                 # pbzip2.cpp:572:0
	imulq	$1000, 64(%rsp), %rax   # imm = 0x3E8
	movq	%rax, 80(%rsp)
	.loc	1 583 0                 # pbzip2.cpp:583:0
	movq	40(%rsp), %rax
	movq	48(%rax), %rsi
	movq	64(%rax), %rdi
	movq	%r13, %rdx
	callq	pthread_cond_timedwait
	movl	%eax, 4(%rsp)
	cmpl	$22, %eax
	jne	.LBB12_2
	jmp	.LBB12_6
.Ltmp252:
	.align	16, 0x90
.LBB12_7:                               # %while.end
                                        #   in Loop: Header=BB12_1 Depth=1
	.loc	1 592 0                 # pbzip2.cpp:592:0
	movq	40(%rsp), %rdi
	leaq	20(%rsp), %rsi
	leaq	12(%rsp), %rdx
	callq	_Z8queueDelP5queuePjPi
	movq	%rax, 32(%rsp)
	.loc	1 597 0                 # pbzip2.cpp:597:0
	movq	40(%rsp), %rax
	movq	48(%rax), %rdi
	callq	pthread_mutex_unlock
	.loc	1 598 0                 # pbzip2.cpp:598:0
	movq	40(%rsp), %rax
	movq	56(%rax), %rdi
	callq	pthread_cond_signal
	.loc	1 603 0                 # pbzip2.cpp:603:0
	movl	$900000, 16(%rsp)       # imm = 0xDBBA0
	.loc	1 604 0                 # pbzip2.cpp:604:0
	movq	_ZL8MemMutex(%rip), %rdi
	callq	pthread_mutex_lock
	jmp	.LBB12_8
	.align	16, 0x90
.LBB12_15:                              # %if.end30
                                        #   in Loop: Header=BB12_8 Depth=2
	.loc	1 626 0                 # pbzip2.cpp:626:0
.Ltmp253:
	movq	$0, 24(%rsp)
	.loc	1 628 0                 # pbzip2.cpp:628:0
	shll	$2, 16(%rsp)
.Ltmp254:
.LBB12_8:                               # %while.end
                                        #   Parent Loop BB12_1 Depth=1
                                        # =>  This Inner Loop Header: Depth=2
	.loc	1 606 0                 # pbzip2.cpp:606:0
	movl	16(%rsp), %edi
	callq	_Znam
	movq	%rax, 24(%rsp)
	.loc	1 607 0                 # pbzip2.cpp:607:0
	movq	_ZL8MemMutex(%rip), %rdi
	callq	pthread_mutex_unlock
	.loc	1 609 0                 # pbzip2.cpp:609:0
	cmpq	$0, 24(%rsp)
	je	.LBB12_9
# BB#11:                                # %if.end22
                                        #   in Loop: Header=BB12_8 Depth=2
	.loc	1 616 0                 # pbzip2.cpp:616:0
	movl	_ZL9Verbosity(%rip), %r9d
	movl	20(%rsp), %ecx
	movq	32(%rsp), %rdx
	movq	24(%rsp), %rdi
	movq	%rbp, %rsi
	xorl	%r8d, %r8d
	callq	BZ2_bzBuffToBuffDecompress
	movl	%eax, 8(%rsp)
	.loc	1 617 0                 # pbzip2.cpp:617:0
	cmpl	$-8, 8(%rsp)
	jne	.LBB12_16
# BB#12:                                # %while.body26
                                        #   in Loop: Header=BB12_8 Depth=2
	.loc	1 623 0                 # pbzip2.cpp:623:0
.Ltmp255:
	movq	_ZL8MemMutex(%rip), %rdi
	callq	pthread_mutex_lock
	.loc	1 624 0                 # pbzip2.cpp:624:0
	cmpq	$0, 24(%rsp)
	je	.LBB12_15
# BB#13:                                # %if.then29
                                        #   in Loop: Header=BB12_8 Depth=2
	.loc	1 625 0                 # pbzip2.cpp:625:0
	movq	24(%rsp), %rdi
	testq	%rdi, %rdi
	je	.LBB12_15
# BB#14:                                # %delete.notnull
                                        #   in Loop: Header=BB12_8 Depth=2
	callq	_ZdaPv
	jmp	.LBB12_15
.Ltmp256:
	.align	16, 0x90
.LBB12_16:                              # %while.end39
                                        #   in Loop: Header=BB12_1 Depth=1
	.loc	1 643 0                 # pbzip2.cpp:643:0
	cmpl	$0, 8(%rsp)
	je	.LBB12_19
# BB#17:                                # %land.lhs.true
                                        #   in Loop: Header=BB12_1 Depth=1
	cmpl	$-8, 8(%rsp)
	je	.LBB12_19
# BB#18:                                # %if.then42
                                        #   in Loop: Header=BB12_1 Depth=1
	.loc	1 644 0                 # pbzip2.cpp:644:0
	movl	8(%rsp), %edx
	movq	stderr(%rip), %rdi
	movl	$.L.str15, %esi
	xorb	%al, %al
	callq	fprintf
.LBB12_19:                              # %if.end44
                                        #   in Loop: Header=BB12_1 Depth=1
	.loc	1 652 0                 # pbzip2.cpp:652:0
	movq	_ZL8OutMutex(%rip), %rdi
	callq	pthread_mutex_lock
	.loc	1 653 0                 # pbzip2.cpp:653:0
	movq	24(%rsp), %r12
	movslq	12(%rsp), %rsi
	movl	$_ZL12OutputBuffer, %edi
	callq	_ZNSt6vectorI7outBuffSaIS0_EEixEm
	movq	%r12, (%rax)
	.loc	1 654 0                 # pbzip2.cpp:654:0
	movl	16(%rsp), %ebx
	movslq	12(%rsp), %rsi
	.loc	1 653 0                 # pbzip2.cpp:653:0
	movl	$_ZL12OutputBuffer, %edi
	.loc	1 654 0                 # pbzip2.cpp:654:0
	callq	_ZNSt6vectorI7outBuffSaIS0_EEixEm
	movl	%ebx, 8(%rax)
	.loc	1 655 0                 # pbzip2.cpp:655:0
	movq	_ZL8OutMutex(%rip), %rdi
	callq	pthread_mutex_unlock
	.loc	1 662 0                 # pbzip2.cpp:662:0
	cmpq	$0, 32(%rsp)
	je	.LBB12_1
# BB#20:                                # %if.then51
                                        #   in Loop: Header=BB12_1 Depth=1
	.loc	1 664 0                 # pbzip2.cpp:664:0
.Ltmp257:
	movq	_ZL8MemMutex(%rip), %rdi
	callq	pthread_mutex_lock
	.loc	1 665 0                 # pbzip2.cpp:665:0
	movq	32(%rsp), %rdi
	testq	%rdi, %rdi
	je	.LBB12_22
# BB#21:                                # %delete.notnull54
                                        #   in Loop: Header=BB12_1 Depth=1
	callq	_ZdaPv
	jmp	.LBB12_22
.Ltmp258:
.LBB12_4:                               # %if.then
	.loc	1 561 0                 # pbzip2.cpp:561:0
	movq	40(%rsp), %rax
	movq	48(%rax), %rdi
	callq	pthread_mutex_unlock
	jmp	.LBB12_10
.Ltmp259:
.LBB12_9:                               # %if.then20
	.loc	1 611 0                 # pbzip2.cpp:611:0
	movq	stderr(%rip), %rdi
	movl	$.L.str14, %esi
	xorb	%al, %al
	callq	fprintf
.LBB12_10:                              # %if.then20
	.loc	1 612 0                 # pbzip2.cpp:612:0
	movq	$0, 96(%rsp)
.Ltmp260:
	.loc	1 674 0                 # pbzip2.cpp:674:0
	movq	96(%rsp), %rax
	addq	$104, %rsp
	popq	%rbx
	popq	%r12
	popq	%r13
	popq	%r14
	popq	%r15
	popq	%rbp
	ret
.LBB12_6:                               # %if.then8
	.loc	1 587 0                 # pbzip2.cpp:587:0
.Ltmp261:
	movq	stderr(%rip), %rdi
	movl	$.L.str12, %esi
	xorb	%al, %al
	callq	fprintf
	.loc	1 588 0                 # pbzip2.cpp:588:0
	movq	stderr(%rip), %rdi
	movl	$.L.str13, %esi
	xorb	%al, %al
	callq	fprintf
	movl	$1, %edi
	.loc	1 589 0                 # pbzip2.cpp:589:0
	callq	exit
.Ltmp262:
.Ltmp263:
	.size	_Z19consumer_decompressPv, .Ltmp263-_Z19consumer_decompressPv
.Lfunc_end12:
	.file	18 "/usr/include/x86_64-linux-gnu/bits/time.h"
	.file	19 "/usr/include/x86_64-linux-gnu/sys/time.h"
	.cfi_endproc

	.globl	_Z8queueDelP5queuePjPi
	.align	16, 0x90
	.type	_Z8queueDelP5queuePjPi,@function
_Z8queueDelP5queuePjPi:                 # @_Z8queueDelP5queuePjPi
	.cfi_startproc
.Lfunc_begin13:
	.loc	1 1093 0                # pbzip2.cpp:1093:0
# BB#0:                                 # %entry
	movq	%rdi, -8(%rsp)
	movq	%rsi, -16(%rsp)
	movq	%rdx, -24(%rsp)
	.loc	1 1096 0 prologue_end   # pbzip2.cpp:1096:0
.Ltmp264:
	movq	-8(%rsp), %rax
	movq	(%rax), %rcx
	movq	24(%rax), %rax
	movq	(%rcx,%rax,8), %rax
	movq	%rax, -32(%rsp)
	.loc	1 1097 0                # pbzip2.cpp:1097:0
	movq	-8(%rsp), %rax
	movq	8(%rax), %rcx
	movq	24(%rax), %rax
	movl	(%rcx,%rax,4), %eax
	movq	-16(%rsp), %rcx
	movl	%eax, (%rcx)
	.loc	1 1098 0                # pbzip2.cpp:1098:0
	movq	-8(%rsp), %rax
	movq	16(%rax), %rcx
	movq	24(%rax), %rax
	movl	(%rcx,%rax,4), %eax
	movq	-24(%rsp), %rcx
	movl	%eax, (%rcx)
	.loc	1 1100 0                # pbzip2.cpp:1100:0
	movq	-8(%rsp), %rax
	incq	24(%rax)
	.loc	1 1101 0                # pbzip2.cpp:1101:0
	movq	-8(%rsp), %rax
	movq	24(%rax), %rax
	movslq	_ZL9QUEUESIZE(%rip), %rcx
	cmpq	%rcx, %rax
	jne	.LBB13_2
# BB#1:                                 # %if.then
	.loc	1 1102 0                # pbzip2.cpp:1102:0
	movq	-8(%rsp), %rax
	movq	$0, 24(%rax)
.LBB13_2:                               # %if.end
	.loc	1 1103 0                # pbzip2.cpp:1103:0
	movq	-8(%rsp), %rax
	movq	24(%rax), %rcx
	cmpq	32(%rax), %rcx
	jne	.LBB13_4
# BB#3:                                 # %if.then12
	.loc	1 1104 0                # pbzip2.cpp:1104:0
	movq	-8(%rsp), %rax
	movl	$1, 44(%rax)
.LBB13_4:                               # %if.end13
	.loc	1 1105 0                # pbzip2.cpp:1105:0
	movq	-8(%rsp), %rax
	movl	$0, 40(%rax)
	.loc	1 1107 0                # pbzip2.cpp:1107:0
	movq	-32(%rsp), %rax
	ret
.Ltmp265:
.Ltmp266:
	.size	_Z8queueDelP5queuePjPi, .Ltmp266-_Z8queueDelP5queuePjPi
.Lfunc_end13:
	.cfi_endproc

	.section	.text._ZNSt6vectorI7outBuffSaIS0_EEixEm,"axG",@progbits,_ZNSt6vectorI7outBuffSaIS0_EEixEm,comdat
	.weak	_ZNSt6vectorI7outBuffSaIS0_EEixEm
	.align	16, 0x90
	.type	_ZNSt6vectorI7outBuffSaIS0_EEixEm,@function
_ZNSt6vectorI7outBuffSaIS0_EEixEm:      # @_ZNSt6vectorI7outBuffSaIS0_EEixEm
	.cfi_startproc
.Lfunc_begin14:
	.loc	5 771 0                 # /usr/lib/gcc/x86_64-linux-gnu/4.8/../../../../include/c++/4.8/bits/stl_vector.h:771:0
# BB#0:                                 # %entry
	movq	%rdi, -8(%rsp)
	movq	%rsi, -16(%rsp)
	.loc	5 771 0 prologue_end    # /usr/lib/gcc/x86_64-linux-gnu/4.8/../../../../include/c++/4.8/bits/stl_vector.h:771:0
.Ltmp267:
	shlq	$4, %rsi
	movq	-8(%rsp), %rax
	addq	(%rax), %rsi
	movq	%rsi, %rax
	ret
.Ltmp268:
.Ltmp269:
	.size	_ZNSt6vectorI7outBuffSaIS0_EEixEm, .Ltmp269-_ZNSt6vectorI7outBuffSaIS0_EEixEm
.Lfunc_end14:
	.cfi_endproc

	.text
	.globl	_Z10fileWriterPv
	.align	16, 0x90
	.type	_Z10fileWriterPv,@function
_Z10fileWriterPv:                       # @_Z10fileWriterPv
	.cfi_startproc
.Lfunc_begin15:
	.loc	1 680 0                 # pbzip2.cpp:680:0
# BB#0:                                 # %entry
	pushq	%rbp
.Ltmp273:
	.cfi_def_cfa_offset 16
	pushq	%rbx
.Ltmp274:
	.cfi_def_cfa_offset 24
	subq	$56, %rsp
.Ltmp275:
	.cfi_def_cfa_offset 80
.Ltmp276:
	.cfi_offset %rbx, -24
.Ltmp277:
	.cfi_offset %rbp, -16
	movq	%rdi, 40(%rsp)
	.loc	1 682 0 prologue_end    # pbzip2.cpp:682:0
.Ltmp278:
	movq	$0, 24(%rsp)
	.loc	1 683 0                 # pbzip2.cpp:683:0
	movl	$0, 20(%rsp)
	.loc	1 684 0                 # pbzip2.cpp:684:0
	movl	$1, 16(%rsp)
	.loc	1 685 0                 # pbzip2.cpp:685:0
	movl	$0, 12(%rsp)
	.loc	1 686 0                 # pbzip2.cpp:686:0
	movl	$-1, 8(%rsp)
	.loc	1 688 0                 # pbzip2.cpp:688:0
	movq	40(%rsp), %rax
	movq	%rax, 32(%rsp)
	.loc	1 691 0                 # pbzip2.cpp:691:0
	cmpl	$0, _ZL12OutputStdOut(%rip)
	jne	.LBB15_3
# BB#1:                                 # %if.then
	.loc	1 693 0                 # pbzip2.cpp:693:0
.Ltmp279:
	movq	32(%rsp), %rdi
	movl	$578, %esi              # imm = 0x242
	movl	$420, %edx              # imm = 0x1A4
	xorb	%al, %al
	callq	open
	movl	%eax, 16(%rsp)
	cmpl	$-1, %eax
	jne	.LBB15_3
# BB#2:                                 # %if.then2
	.loc	1 697 0                 # pbzip2.cpp:697:0
.Ltmp280:
	movq	32(%rsp), %rdx
	movq	stderr(%rip), %rdi
	movl	$.L.str16, %esi
	jmp	.LBB15_26
.Ltmp281:
	.align	16, 0x90
.LBB15_9:                               # %if.then15
                                        #   in Loop: Header=BB15_3 Depth=1
	movl	$50000, %edi            # imm = 0xC350
	.loc	1 707 0                 # pbzip2.cpp:707:0
.Ltmp282:
	callq	usleep
.Ltmp283:
.LBB15_3:                               # %while.cond
                                        # =>This Inner Loop Header: Depth=1
	movb	$1, %al
	.loc	1 702 0                 # pbzip2.cpp:702:0
	movl	12(%rsp), %ecx
	cmpl	_ZL9NumBlocks(%rip), %ecx
	jl	.LBB15_5
# BB#4:                                 # %lor.rhs
                                        #   in Loop: Header=BB15_3 Depth=1
	cmpl	$0, _ZL7allDone(%rip)
	sete	%al
.LBB15_5:                               # %lor.end
                                        #   in Loop: Header=BB15_3 Depth=1
	cmpb	$1, %al
	jne	.LBB15_22
# BB#6:                                 # %while.body
                                        #   in Loop: Header=BB15_3 Depth=1
	.loc	1 704 0                 # pbzip2.cpp:704:0
.Ltmp284:
	movl	$_ZL12OutputBuffer, %edi
	callq	_ZNKSt6vectorI7outBuffSaIS0_EE4sizeEv
	testq	%rax, %rax
	je	.LBB15_9
# BB#7:                                 # %lor.lhs.false
                                        #   in Loop: Header=BB15_3 Depth=1
	movslq	12(%rsp), %rsi
	movl	$_ZL12OutputBuffer, %edi
	callq	_ZNSt6vectorI7outBuffSaIS0_EEixEm
	cmpl	$0, 8(%rax)
	je	.LBB15_9
# BB#8:                                 # %lor.lhs.false11
                                        #   in Loop: Header=BB15_3 Depth=1
	movslq	12(%rsp), %rsi
	movl	$_ZL12OutputBuffer, %edi
	callq	_ZNSt6vectorI7outBuffSaIS0_EEixEm
	cmpq	$0, (%rax)
	je	.LBB15_9
# BB#10:                                # %if.end17
                                        #   in Loop: Header=BB15_3 Depth=1
	.loc	1 716 0                 # pbzip2.cpp:716:0
	movl	16(%rsp), %ebp
	movslq	12(%rsp), %rsi
	movl	$_ZL12OutputBuffer, %edi
	callq	_ZNSt6vectorI7outBuffSaIS0_EEixEm
	movq	(%rax), %rbx
	movslq	12(%rsp), %rsi
	movl	$_ZL12OutputBuffer, %edi
	callq	_ZNSt6vectorI7outBuffSaIS0_EEixEm
	movl	8(%rax), %edx
	movl	%ebp, %edi
	movq	%rbx, %rsi
	callq	write
	movl	%eax, 8(%rsp)
	.loc	1 721 0                 # pbzip2.cpp:721:0
	movslq	8(%rsp), %rax
	addq	%rax, 24(%rsp)
	.loc	1 722 0                 # pbzip2.cpp:722:0
	cmpl	$0, 8(%rsp)
	jle	.LBB15_11
# BB#17:                                # %if.end46
                                        #   in Loop: Header=BB15_3 Depth=1
	.loc	1 734 0                 # pbzip2.cpp:734:0
	movq	_ZL8MemMutex(%rip), %rdi
	callq	pthread_mutex_lock
	.loc	1 735 0                 # pbzip2.cpp:735:0
	movslq	12(%rsp), %rsi
	movl	$_ZL12OutputBuffer, %edi
	callq	_ZNSt6vectorI7outBuffSaIS0_EEixEm
	cmpq	$0, (%rax)
	je	.LBB15_20
# BB#18:                                # %if.then52
                                        #   in Loop: Header=BB15_3 Depth=1
	.loc	1 736 0                 # pbzip2.cpp:736:0
	movslq	12(%rsp), %rsi
	movl	$_ZL12OutputBuffer, %edi
	callq	_ZNSt6vectorI7outBuffSaIS0_EEixEm
	movq	(%rax), %rdi
	testq	%rdi, %rdi
	je	.LBB15_20
# BB#19:                                # %delete.notnull57
                                        #   in Loop: Header=BB15_3 Depth=1
	callq	_ZdaPv
.LBB15_20:                              # %if.end59
                                        #   in Loop: Header=BB15_3 Depth=1
	.loc	1 737 0                 # pbzip2.cpp:737:0
	movq	_ZL8MemMutex(%rip), %rdi
	callq	pthread_mutex_unlock
	.loc	1 739 0                 # pbzip2.cpp:739:0
	movl	12(%rsp), %eax
	incl	%eax
	movl	%eax, 12(%rsp)
	.loc	1 741 0                 # pbzip2.cpp:741:0
	imull	$100, %eax, %eax
	cltd
	idivl	_ZL9NumBlocks(%rip)
	movl	%eax, 20(%rsp)
	.loc	1 742 0                 # pbzip2.cpp:742:0
	cmpl	$1, _ZL9QuietMode(%rip)
	je	.LBB15_3
# BB#21:                                # %if.then62
                                        #   in Loop: Header=BB15_3 Depth=1
	.loc	1 744 0                 # pbzip2.cpp:744:0
.Ltmp285:
	movl	20(%rsp), %edx
	movq	stderr(%rip), %rdi
	movl	$.L.str18, %esi
	xorb	%al, %al
	callq	fprintf
	.loc	1 745 0                 # pbzip2.cpp:745:0
	movq	stderr(%rip), %rdi
	callq	fflush
	jmp	.LBB15_3
.Ltmp286:
.LBB15_22:                              # %while.end
	.loc	1 749 0                 # pbzip2.cpp:749:0
	cmpl	$0, _ZL12OutputStdOut(%rip)
	jne	.LBB15_24
# BB#23:                                # %if.then67
	.loc	1 750 0                 # pbzip2.cpp:750:0
	movl	16(%rsp), %edi
	callq	close
.LBB15_24:                              # %if.end69
	.loc	1 751 0                 # pbzip2.cpp:751:0
	cmpl	$1, _ZL9QuietMode(%rip)
	je	.LBB15_27
# BB#25:                                # %if.then71
	.loc	1 753 0                 # pbzip2.cpp:753:0
.Ltmp287:
	movq	24(%rsp), %rdx
	movq	stderr(%rip), %rdi
	movl	$.L.str19, %esi
.LBB15_26:                              # %if.then71
	xorb	%al, %al
	callq	fprintf
.Ltmp288:
.LBB15_27:                              # %if.end73
	.loc	1 756 0                 # pbzip2.cpp:756:0
	movq	$0, 48(%rsp)
	.loc	1 757 0                 # pbzip2.cpp:757:0
	movq	48(%rsp), %rax
	addq	$56, %rsp
	popq	%rbx
	popq	%rbp
	ret
.LBB15_11:                              # %if.then29
	.loc	1 724 0                 # pbzip2.cpp:724:0
.Ltmp289:
	movq	stderr(%rip), %rdi
	movl	$.L.str17, %esi
	xorb	%al, %al
	callq	fprintf
	.loc	1 725 0                 # pbzip2.cpp:725:0
	cmpl	$0, _ZL12OutputStdOut(%rip)
	jne	.LBB15_13
# BB#12:                                # %if.then32
	.loc	1 726 0                 # pbzip2.cpp:726:0
	movl	16(%rsp), %edi
	callq	close
.LBB15_13:                              # %if.end34
	.loc	1 727 0                 # pbzip2.cpp:727:0
	movq	_ZL8MemMutex(%rip), %rdi
	callq	pthread_mutex_lock
	.loc	1 728 0                 # pbzip2.cpp:728:0
	movslq	12(%rsp), %rsi
	movl	$_ZL12OutputBuffer, %edi
	callq	_ZNSt6vectorI7outBuffSaIS0_EEixEm
	cmpq	$0, (%rax)
	je	.LBB15_16
# BB#14:                                # %if.then40
	.loc	1 729 0                 # pbzip2.cpp:729:0
	movslq	12(%rsp), %rsi
	movl	$_ZL12OutputBuffer, %edi
	callq	_ZNSt6vectorI7outBuffSaIS0_EEixEm
	movq	(%rax), %rdi
	testq	%rdi, %rdi
	je	.LBB15_16
# BB#15:                                # %delete.notnull
	callq	_ZdaPv
.LBB15_16:                              # %if.end44
	.loc	1 730 0                 # pbzip2.cpp:730:0
	movq	_ZL8MemMutex(%rip), %rdi
	callq	pthread_mutex_unlock
	jmp	.LBB15_27
.Ltmp290:
.Ltmp291:
	.size	_Z10fileWriterPv, .Ltmp291-_Z10fileWriterPv
.Lfunc_end15:
	.cfi_endproc

	.section	.text._ZNKSt6vectorI7outBuffSaIS0_EE4sizeEv,"axG",@progbits,_ZNKSt6vectorI7outBuffSaIS0_EE4sizeEv,comdat
	.weak	_ZNKSt6vectorI7outBuffSaIS0_EE4sizeEv
	.align	16, 0x90
	.type	_ZNKSt6vectorI7outBuffSaIS0_EE4sizeEv,@function
_ZNKSt6vectorI7outBuffSaIS0_EE4sizeEv:  # @_ZNKSt6vectorI7outBuffSaIS0_EE4sizeEv
	.cfi_startproc
.Lfunc_begin16:
	.loc	5 646 0                 # /usr/lib/gcc/x86_64-linux-gnu/4.8/../../../../include/c++/4.8/bits/stl_vector.h:646:0
# BB#0:                                 # %entry
	movq	%rdi, -8(%rsp)
	.loc	5 646 0 prologue_end    # /usr/lib/gcc/x86_64-linux-gnu/4.8/../../../../include/c++/4.8/bits/stl_vector.h:646:0
.Ltmp292:
	movq	8(%rdi), %rax
	subq	(%rdi), %rax
	sarq	$4, %rax
	ret
.Ltmp293:
.Ltmp294:
	.size	_ZNKSt6vectorI7outBuffSaIS0_EE4sizeEv, .Ltmp294-_ZNKSt6vectorI7outBuffSaIS0_EE4sizeEv
.Lfunc_end16:
	.cfi_endproc

	.text
	.globl	_Z8produceriliP5queue
	.align	16, 0x90
	.type	_Z8produceriliP5queue,@function
_Z8produceriliP5queue:                  # @_Z8produceriliP5queue
	.cfi_startproc
.Lfunc_begin17:
	.loc	1 763 0                 # pbzip2.cpp:763:0
# BB#0:                                 # %entry
	pushq	%rbx
.Ltmp297:
	.cfi_def_cfa_offset 16
	subq	$80, %rsp
.Ltmp298:
	.cfi_def_cfa_offset 96
.Ltmp299:
	.cfi_offset %rbx, -16
	movl	%edi, 72(%rsp)
	movq	%rsi, 64(%rsp)
	movl	%edx, 60(%rsp)
	movq	%rcx, 48(%rsp)
	.loc	1 764 0 prologue_end    # pbzip2.cpp:764:0
.Ltmp300:
	movq	$0, 40(%rsp)
	.loc	1 765 0                 # pbzip2.cpp:765:0
	movq	$0, 32(%rsp)
	.loc	1 766 0                 # pbzip2.cpp:766:0
	movq	$0, 24(%rsp)
	.loc	1 767 0                 # pbzip2.cpp:767:0
	movl	$0, 20(%rsp)
	.loc	1 768 0                 # pbzip2.cpp:768:0
	movl	$0, 16(%rsp)
	.loc	1 769 0                 # pbzip2.cpp:769:0
	movl	$-1, 12(%rsp)
	.loc	1 771 0                 # pbzip2.cpp:771:0
	movq	64(%rsp), %rax
	movq	%rax, 32(%rsp)
	movq	$-1, %rbx
	jmp	.LBB17_1
	.align	16, 0x90
.LBB17_26:                              # %while.end
                                        #   in Loop: Header=BB17_1 Depth=1
	.loc	1 850 0                 # pbzip2.cpp:850:0
.Ltmp301:
	movl	20(%rsp), %ecx
	movl	24(%rsp), %edx
	movq	40(%rsp), %rsi
	movq	48(%rsp), %rdi
	callq	_Z8queueAddP5queuePcji
	.loc	1 851 0                 # pbzip2.cpp:851:0
	movq	48(%rsp), %rax
	movq	48(%rax), %rdi
	callq	pthread_mutex_unlock
	.loc	1 852 0                 # pbzip2.cpp:852:0
	movq	48(%rsp), %rax
	movq	64(%rax), %rdi
	callq	pthread_cond_signal
	.loc	1 854 0                 # pbzip2.cpp:854:0
	incl	20(%rsp)
.Ltmp302:
.LBB17_1:                               # %while.cond
                                        # =>This Loop Header: Depth=1
                                        #     Child Loop BB17_23 Depth 2
	.loc	1 774 0                 # pbzip2.cpp:774:0
	cmpq	$0, 32(%rsp)
	jle	.LBB17_12
# BB#2:                                 # %while.body
                                        #   in Loop: Header=BB17_1 Depth=1
	.loc	1 777 0                 # pbzip2.cpp:777:0
.Ltmp303:
	movslq	60(%rsp), %rax
	cmpq	%rax, 32(%rsp)
	jle	.LBB17_4
# BB#3:                                 # %if.then
                                        #   in Loop: Header=BB17_1 Depth=1
	.loc	1 778 0                 # pbzip2.cpp:778:0
	movslq	60(%rsp), %rax
	jmp	.LBB17_5
	.align	16, 0x90
.LBB17_4:                               # %if.else
                                        #   in Loop: Header=BB17_1 Depth=1
	.loc	1 780 0                 # pbzip2.cpp:780:0
	movq	32(%rsp), %rax
.LBB17_5:                               # %if.else
                                        #   in Loop: Header=BB17_1 Depth=1
	movq	%rax, 24(%rsp)
	.loc	1 786 0                 # pbzip2.cpp:786:0
	movq	_ZL8MemMutex(%rip), %rdi
	callq	pthread_mutex_lock
	.loc	1 788 0                 # pbzip2.cpp:788:0
	movq	$0, 40(%rsp)
	.loc	1 789 0                 # pbzip2.cpp:789:0
	movq	24(%rsp), %rdi
	testq	%rdi, %rdi
	cmovsq	%rbx, %rdi
	callq	_Znam
	movq	%rax, 40(%rsp)
	.loc	1 790 0                 # pbzip2.cpp:790:0
	movq	_ZL8MemMutex(%rip), %rdi
	callq	pthread_mutex_unlock
	.loc	1 792 0                 # pbzip2.cpp:792:0
	cmpq	$0, 40(%rsp)
	je	.LBB17_6
# BB#7:                                 # %if.end9
                                        #   in Loop: Header=BB17_1 Depth=1
	.loc	1 801 0                 # pbzip2.cpp:801:0
	movq	24(%rsp), %rdx
	movq	40(%rsp), %rsi
	movl	72(%rsp), %edi
	callq	read
	movl	%eax, 16(%rsp)
	testl	%eax, %eax
	je	.LBB17_8
# BB#14:                                # %if.else19
                                        #   in Loop: Header=BB17_1 Depth=1
	.loc	1 813 0                 # pbzip2.cpp:813:0
	cmpl	$0, 16(%rsp)
	js	.LBB17_15
# BB#20:                                # %if.end33
                                        #   in Loop: Header=BB17_1 Depth=1
	.loc	1 826 0                 # pbzip2.cpp:826:0
	movslq	16(%rsp), %rax
	subq	%rax, 32(%rsp)
	.loc	1 828 0                 # pbzip2.cpp:828:0
	movslq	16(%rsp), %rax
	cmpq	24(%rsp), %rax
	je	.LBB17_22
# BB#21:                                # %if.then37
                                        #   in Loop: Header=BB17_1 Depth=1
	.loc	1 829 0                 # pbzip2.cpp:829:0
	movslq	16(%rsp), %rax
	movq	%rax, 24(%rsp)
.LBB17_22:                              # %if.end39
                                        #   in Loop: Header=BB17_1 Depth=1
	.loc	1 836 0                 # pbzip2.cpp:836:0
	movq	48(%rsp), %rax
	movq	48(%rax), %rdi
	callq	pthread_mutex_lock
	jmp	.LBB17_23
	.align	16, 0x90
.LBB17_25:                              # %if.then46
                                        #   in Loop: Header=BB17_23 Depth=2
	.loc	1 844 0                 # pbzip2.cpp:844:0
.Ltmp304:
	movl	12(%rsp), %edx
	movq	stderr(%rip), %rdi
	movl	$.L.str20, %esi
	xorb	%al, %al
	callq	fprintf
.Ltmp305:
.LBB17_23:                              # %while.cond41
                                        #   Parent Loop BB17_1 Depth=1
                                        # =>  This Inner Loop Header: Depth=2
	.loc	1 837 0                 # pbzip2.cpp:837:0
	movq	48(%rsp), %rax
	cmpl	$0, 40(%rax)
	je	.LBB17_26
# BB#24:                                # %while.body42
                                        #   in Loop: Header=BB17_23 Depth=2
	.loc	1 842 0                 # pbzip2.cpp:842:0
.Ltmp306:
	movq	48(%rsp), %rax
	movq	48(%rax), %rsi
	movq	56(%rax), %rdi
	callq	pthread_cond_wait
	movl	%eax, 12(%rsp)
	testl	%eax, %eax
	je	.LBB17_23
	jmp	.LBB17_25
.Ltmp307:
.LBB17_6:                               # %if.then6
	.loc	1 794 0                 # pbzip2.cpp:794:0
	movq	stderr(%rip), %rdi
	movl	$.L.str6, %esi
	xorb	%al, %al
	callq	fprintf
	.loc	1 795 0                 # pbzip2.cpp:795:0
	movl	72(%rsp), %edi
	callq	close
	jmp	.LBB17_19
.Ltmp308:
.LBB17_8:                               # %if.then13
	.loc	1 807 0                 # pbzip2.cpp:807:0
	movq	_ZL8MemMutex(%rip), %rdi
	callq	pthread_mutex_lock
	.loc	1 808 0                 # pbzip2.cpp:808:0
	cmpq	$0, 40(%rsp)
	je	.LBB17_11
# BB#9:                                 # %if.then16
	.loc	1 809 0                 # pbzip2.cpp:809:0
	movq	40(%rsp), %rdi
	testq	%rdi, %rdi
	je	.LBB17_11
# BB#10:                                # %delete.notnull
	callq	_ZdaPv
.LBB17_11:                              # %if.end17
	.loc	1 810 0                 # pbzip2.cpp:810:0
	movq	_ZL8MemMutex(%rip), %rdi
	callq	pthread_mutex_unlock
.Ltmp309:
.LBB17_12:                              # %while.end53
	.loc	1 857 0                 # pbzip2.cpp:857:0
	movl	72(%rsp), %edi
	callq	close
	.loc	1 859 0                 # pbzip2.cpp:859:0
	movl	$1, _ZL7allDone(%rip)
	.loc	1 860 0                 # pbzip2.cpp:860:0
	movl	$0, 76(%rsp)
	jmp	.LBB17_13
.LBB17_15:                              # %if.then21
	.loc	1 815 0                 # pbzip2.cpp:815:0
.Ltmp310:
	movq	stderr(%rip), %rdi
	movl	$.L.str10, %esi
	xorb	%al, %al
	callq	fprintf
	.loc	1 816 0                 # pbzip2.cpp:816:0
	movl	72(%rsp), %edi
	callq	close
	.loc	1 817 0                 # pbzip2.cpp:817:0
	movq	_ZL8MemMutex(%rip), %rdi
	callq	pthread_mutex_lock
	.loc	1 818 0                 # pbzip2.cpp:818:0
	cmpq	$0, 40(%rsp)
	je	.LBB17_18
# BB#16:                                # %if.then26
	.loc	1 819 0                 # pbzip2.cpp:819:0
	movq	40(%rsp), %rdi
	testq	%rdi, %rdi
	je	.LBB17_18
# BB#17:                                # %delete.notnull28
	callq	_ZdaPv
.LBB17_18:                              # %if.end30
	.loc	1 820 0                 # pbzip2.cpp:820:0
	movq	_ZL8MemMutex(%rip), %rdi
	callq	pthread_mutex_unlock
.LBB17_19:                              # %if.end30
	.loc	1 821 0                 # pbzip2.cpp:821:0
	movl	$1, _ZL7allDone(%rip)
	.loc	1 822 0                 # pbzip2.cpp:822:0
	movl	$-1, 76(%rsp)
.Ltmp311:
.LBB17_13:                              # %return
	.loc	1 861 0                 # pbzip2.cpp:861:0
	movl	76(%rsp), %eax
	addq	$80, %rsp
	popq	%rbx
	ret
.Ltmp312:
.Ltmp313:
	.size	_Z8produceriliP5queue, .Ltmp313-_Z8produceriliP5queue
.Lfunc_end17:
	.cfi_endproc

	.section	.rodata.cst8,"aM",@progbits,8
	.align	8
.LCPI18_0:
	.quad	4607227454796291113     # double 1.010000e+00
                                        #  (0x3ff028f5c28f5c29)
.LCPI18_1:
	.quad	4648488871632306176     # double 6.000000e+02
                                        #  (0x4082c00000000000)
	.text
	.globl	_Z8consumerPv
	.align	16, 0x90
	.type	_Z8consumerPv,@function
_Z8consumerPv:                          # @_Z8consumerPv
	.cfi_startproc
.Lfunc_begin18:
	.loc	1 867 0                 # pbzip2.cpp:867:0
# BB#0:                                 # %entry
	pushq	%rbp
.Ltmp321:
	.cfi_def_cfa_offset 16
	pushq	%r15
.Ltmp322:
	.cfi_def_cfa_offset 24
	pushq	%r14
.Ltmp323:
	.cfi_def_cfa_offset 32
	pushq	%r13
.Ltmp324:
	.cfi_def_cfa_offset 40
	pushq	%r12
.Ltmp325:
	.cfi_def_cfa_offset 48
	pushq	%rbx
.Ltmp326:
	.cfi_def_cfa_offset 56
	subq	$120, %rsp
.Ltmp327:
	.cfi_def_cfa_offset 176
.Ltmp328:
	.cfi_offset %rbx, -56
.Ltmp329:
	.cfi_offset %r12, -48
.Ltmp330:
	.cfi_offset %r13, -40
.Ltmp331:
	.cfi_offset %r14, -32
.Ltmp332:
	.cfi_offset %r15, -24
.Ltmp333:
	.cfi_offset %rbp, -16
	movq	%rdi, 104(%rsp)
	.loc	1 877 0 prologue_end    # pbzip2.cpp:877:0
.Ltmp334:
	movq	$0, 48(%rsp)
	.loc	1 878 0                 # pbzip2.cpp:878:0
	movq	$0, 40(%rsp)
	.loc	1 879 0                 # pbzip2.cpp:879:0
	movl	$0, 36(%rsp)
	.loc	1 880 0                 # pbzip2.cpp:880:0
	movl	$0, 32(%rsp)
	.loc	1 881 0                 # pbzip2.cpp:881:0
	movl	$-1, 28(%rsp)
	.loc	1 882 0                 # pbzip2.cpp:882:0
	movl	$-1, 24(%rsp)
	.loc	1 883 0                 # pbzip2.cpp:883:0
	movl	$-1, 20(%rsp)
	.loc	1 885 0                 # pbzip2.cpp:885:0
	movq	104(%rsp), %rax
	movq	%rax, 56(%rsp)
	leaq	72(%rsp), %r14
	leaq	64(%rsp), %r15
	leaq	88(%rsp), %rbx
	leaq	32(%rsp), %r13
	jmp	.LBB18_1
	.align	16, 0x90
.LBB18_17:                              # %delete.end
                                        #   in Loop: Header=BB18_1 Depth=1
	.loc	1 973 0                 # pbzip2.cpp:973:0
.Ltmp335:
	movq	$0, 48(%rsp)
	.loc	1 974 0                 # pbzip2.cpp:974:0
	movq	_ZL8MemMutex(%rip), %rdi
	callq	pthread_mutex_unlock
.Ltmp336:
.LBB18_1:                               # %for.cond
                                        # =>This Loop Header: Depth=1
                                        #     Child Loop BB18_2 Depth 2
	.loc	1 889 0                 # pbzip2.cpp:889:0
	movq	56(%rsp), %rax
	movq	48(%rax), %rdi
	callq	pthread_mutex_lock
	.align	16, 0x90
.LBB18_2:                               # %while.cond
                                        #   Parent Loop BB18_1 Depth=1
                                        # =>  This Inner Loop Header: Depth=2
	.loc	1 890 0                 # pbzip2.cpp:890:0
	movq	56(%rsp), %rax
	cmpl	$0, 44(%rax)
	je	.LBB18_7
# BB#3:                                 # %while.body
                                        #   in Loop: Header=BB18_2 Depth=2
	.loc	1 895 0                 # pbzip2.cpp:895:0
.Ltmp337:
	cmpl	$1, _ZL7allDone(%rip)
	je	.LBB18_4
# BB#5:                                 # %if.end
                                        #   in Loop: Header=BB18_2 Depth=2
	.loc	1 906 0                 # pbzip2.cpp:906:0
	movq	%r14, %rdi
	movq	%r15, %rsi
	callq	gettimeofday
	.loc	1 907 0                 # pbzip2.cpp:907:0
	movq	72(%rsp), %rax
	incq	%rax
	movq	%rax, 88(%rsp)
	.loc	1 908 0                 # pbzip2.cpp:908:0
	imulq	$1000, 80(%rsp), %rax   # imm = 0x3E8
	movq	%rax, 96(%rsp)
	.loc	1 919 0                 # pbzip2.cpp:919:0
	movq	56(%rsp), %rax
	movq	48(%rax), %rsi
	movq	64(%rax), %rdi
	movq	%rbx, %rdx
	callq	pthread_cond_timedwait
	movl	%eax, 20(%rsp)
	cmpl	$22, %eax
	jne	.LBB18_2
	jmp	.LBB18_6
.Ltmp338:
	.align	16, 0x90
.LBB18_7:                               # %while.end
                                        #   in Loop: Header=BB18_1 Depth=1
	.loc	1 928 0                 # pbzip2.cpp:928:0
	movq	56(%rsp), %rdi
	leaq	36(%rsp), %rsi
	leaq	28(%rsp), %rdx
	callq	_Z8queueDelP5queuePjPi
	movq	%rax, 48(%rsp)
	.loc	1 933 0                 # pbzip2.cpp:933:0
	movq	56(%rsp), %rax
	movq	48(%rax), %rdi
	callq	pthread_mutex_unlock
	.loc	1 934 0                 # pbzip2.cpp:934:0
	movq	56(%rsp), %rax
	movq	56(%rax), %rdi
	callq	pthread_cond_signal
	movl	%eax, 20(%rsp)
	testl	%eax, %eax
	je	.LBB18_9
# BB#8:                                 # %if.then17
                                        #   in Loop: Header=BB18_1 Depth=1
	.loc	1 936 0                 # pbzip2.cpp:936:0
	movl	20(%rsp), %edx
	movq	stderr(%rip), %rdi
	movl	$.L.str21, %esi
	xorb	%al, %al
	callq	fprintf
.LBB18_9:                               # %if.end19
                                        #   in Loop: Header=BB18_1 Depth=1
	.loc	1 941 0                 # pbzip2.cpp:941:0
	movl	36(%rsp), %eax
	vcvtsi2sdq	%rax, %xmm0, %xmm0
	vmulsd	.LCPI18_0(%rip), %xmm0, %xmm0
	vaddsd	.LCPI18_1(%rip), %xmm0, %xmm0
	vcvttsd2si	%xmm0, %eax
	movl	%eax, 32(%rsp)
	.loc	1 942 0                 # pbzip2.cpp:942:0
	movq	_ZL8MemMutex(%rip), %rdi
	callq	pthread_mutex_lock
	.loc	1 944 0                 # pbzip2.cpp:944:0
	movl	32(%rsp), %edi
	callq	_Znam
	movq	%rax, 40(%rsp)
	.loc	1 945 0                 # pbzip2.cpp:945:0
	movq	_ZL8MemMutex(%rip), %rdi
	callq	pthread_mutex_unlock
	.loc	1 947 0                 # pbzip2.cpp:947:0
	cmpq	$0, 40(%rsp)
	je	.LBB18_10
# BB#12:                                # %if.end29
                                        #   in Loop: Header=BB18_1 Depth=1
	.loc	1 954 0                 # pbzip2.cpp:954:0
	movl	_ZL9Verbosity(%rip), %r9d
	movl	_ZL12BWTblockSize(%rip), %r8d
	movl	36(%rsp), %ecx
	movq	48(%rsp), %rdx
	movq	40(%rsp), %rdi
	movl	$30, (%rsp)
	movq	%r13, %rsi
	callq	BZ2_bzBuffToBuffCompress
	movl	%eax, 24(%rsp)
	testl	%eax, %eax
	je	.LBB18_14
# BB#13:                                # %if.then32
                                        #   in Loop: Header=BB18_1 Depth=1
	.loc	1 956 0                 # pbzip2.cpp:956:0
	movl	24(%rsp), %edx
	movq	stderr(%rip), %rdi
	movl	$.L.str23, %esi
	xorb	%al, %al
	callq	fprintf
.LBB18_14:                              # %if.end34
                                        #   in Loop: Header=BB18_1 Depth=1
	.loc	1 964 0                 # pbzip2.cpp:964:0
	movq	_ZL8OutMutex(%rip), %rdi
	callq	pthread_mutex_lock
	.loc	1 965 0                 # pbzip2.cpp:965:0
	movq	40(%rsp), %r12
	movslq	28(%rsp), %rsi
	movl	$_ZL12OutputBuffer, %edi
	callq	_ZNSt6vectorI7outBuffSaIS0_EEixEm
	movq	%r12, (%rax)
	.loc	1 966 0                 # pbzip2.cpp:966:0
	movl	32(%rsp), %ebp
	movslq	28(%rsp), %rsi
	.loc	1 965 0                 # pbzip2.cpp:965:0
	movl	$_ZL12OutputBuffer, %edi
	.loc	1 966 0                 # pbzip2.cpp:966:0
	callq	_ZNSt6vectorI7outBuffSaIS0_EEixEm
	movl	%ebp, 8(%rax)
	.loc	1 967 0                 # pbzip2.cpp:967:0
	movq	_ZL8OutMutex(%rip), %rdi
	callq	pthread_mutex_unlock
	.loc	1 969 0                 # pbzip2.cpp:969:0
	cmpq	$0, 48(%rsp)
	je	.LBB18_1
# BB#15:                                # %if.then42
                                        #   in Loop: Header=BB18_1 Depth=1
	.loc	1 971 0                 # pbzip2.cpp:971:0
.Ltmp339:
	movq	_ZL8MemMutex(%rip), %rdi
	callq	pthread_mutex_lock
	.loc	1 972 0                 # pbzip2.cpp:972:0
	movq	48(%rsp), %rdi
	testq	%rdi, %rdi
	je	.LBB18_17
# BB#16:                                # %delete.notnull
                                        #   in Loop: Header=BB18_1 Depth=1
	callq	_ZdaPv
	jmp	.LBB18_17
.Ltmp340:
.LBB18_4:                               # %if.then
	.loc	1 897 0                 # pbzip2.cpp:897:0
	movq	56(%rsp), %rax
	movq	48(%rax), %rdi
	callq	pthread_mutex_unlock
.Ltmp341:
.LBB18_11:                              # %if.then27
	.loc	1 950 0                 # pbzip2.cpp:950:0
	movq	$0, 112(%rsp)
.Ltmp342:
	.loc	1 981 0                 # pbzip2.cpp:981:0
	movq	112(%rsp), %rax
	addq	$120, %rsp
	popq	%rbx
	popq	%r12
	popq	%r13
	popq	%r14
	popq	%r15
	popq	%rbp
	ret
.LBB18_10:                              # %if.then27
	.loc	1 949 0                 # pbzip2.cpp:949:0
.Ltmp343:
	movq	stderr(%rip), %rdi
	movl	$.L.str22, %esi
	xorb	%al, %al
	callq	fprintf
	jmp	.LBB18_11
.Ltmp344:
.LBB18_6:                               # %if.then8
	.loc	1 923 0                 # pbzip2.cpp:923:0
	movq	stderr(%rip), %rdi
	movl	$.L.str12, %esi
	xorb	%al, %al
	callq	fprintf
	.loc	1 924 0                 # pbzip2.cpp:924:0
	movq	stderr(%rip), %rdi
	movl	$.L.str13, %esi
	xorb	%al, %al
	callq	fprintf
	movl	$-1, %edi
	.loc	1 925 0                 # pbzip2.cpp:925:0
	callq	exit
.Ltmp345:
.Ltmp346:
	.size	_Z8consumerPv, .Ltmp346-_Z8consumerPv
.Lfunc_end18:
	.cfi_endproc

	.globl	_Z9queueIniti
	.align	16, 0x90
	.type	_Z9queueIniti,@function
_Z9queueIniti:                          # @_Z9queueIniti
	.cfi_startproc
.Lfunc_begin19:
	.loc	1 987 0                 # pbzip2.cpp:987:0
# BB#0:                                 # %entry
	pushq	%r14
.Ltmp350:
	.cfi_def_cfa_offset 16
	pushq	%rbx
.Ltmp351:
	.cfi_def_cfa_offset 24
	subq	$24, %rsp
.Ltmp352:
	.cfi_def_cfa_offset 48
.Ltmp353:
	.cfi_offset %rbx, -24
.Ltmp354:
	.cfi_offset %r14, -16
	movl	%edi, 12(%rsp)
	.loc	1 989 0 prologue_end    # pbzip2.cpp:989:0
.Ltmp355:
	movl	%edi, _ZL9QUEUESIZE(%rip)
	movl	$72, %edi
	.loc	1 991 0                 # pbzip2.cpp:991:0
	callq	_Znwm
	movq	%rax, (%rsp)
	testq	%rax, %rax
	je	.LBB19_1
# BB#2:                                 # %if.end
	.loc	1 995 0                 # pbzip2.cpp:995:0
	movq	(%rsp), %rax
	movq	$0, (%rax)
	movq	$-1, %rbx
	movl	$8, %ecx
	.loc	1 996 0                 # pbzip2.cpp:996:0
	movslq	12(%rsp), %rax
	mulq	%rcx
	cmovoq	%rbx, %rax
	movq	%rax, %rdi
	callq	_Znam
	movq	(%rsp), %rcx
	movq	%rax, (%rcx)
	.loc	1 997 0                 # pbzip2.cpp:997:0
	movq	(%rsp), %rax
	cmpq	$0, (%rax)
	je	.LBB19_3
# BB#4:                                 # %if.end6
	.loc	1 1000 0                # pbzip2.cpp:1000:0
	movq	(%rsp), %rax
	movq	$0, 8(%rax)
	movl	$4, %r14d
	.loc	1 1001 0                # pbzip2.cpp:1001:0
	movslq	12(%rsp), %rax
	mulq	%r14
	cmovnoq	%rax, %rbx
	movq	%rbx, %rdi
	callq	_Znam
	movq	(%rsp), %rcx
	movq	%rax, 8(%rcx)
	.loc	1 1002 0                # pbzip2.cpp:1002:0
	movq	(%rsp), %rax
	cmpq	$0, 8(%rax)
	je	.LBB19_5
# BB#6:                                 # %if.end12
	.loc	1 1005 0                # pbzip2.cpp:1005:0
	movq	(%rsp), %rax
	movq	$0, 16(%rax)
	movq	$-1, %rdi
	.loc	1 1006 0                # pbzip2.cpp:1006:0
	movslq	12(%rsp), %rax
	mulq	%r14
	cmovnoq	%rax, %rdi
	callq	_Znam
	movq	(%rsp), %rcx
	movq	%rax, 16(%rcx)
	.loc	1 1007 0                # pbzip2.cpp:1007:0
	movq	(%rsp), %rax
	cmpq	$0, 16(%rax)
	je	.LBB19_7
# BB#8:                                 # %if.end18
	.loc	1 1010 0                # pbzip2.cpp:1010:0
	movq	(%rsp), %rax
	movl	$1, 44(%rax)
	.loc	1 1011 0                # pbzip2.cpp:1011:0
	movq	(%rsp), %rax
	movl	$0, 40(%rax)
	.loc	1 1012 0                # pbzip2.cpp:1012:0
	movq	(%rsp), %rax
	movq	$0, 24(%rax)
	.loc	1 1013 0                # pbzip2.cpp:1013:0
	movq	(%rsp), %rax
	movq	$0, 32(%rax)
	.loc	1 1015 0                # pbzip2.cpp:1015:0
	movq	(%rsp), %rax
	movq	$0, 48(%rax)
	movl	$40, %edi
	.loc	1 1016 0                # pbzip2.cpp:1016:0
	callq	_Znwm
	movq	(%rsp), %rcx
	movq	%rax, 48(%rcx)
	.loc	1 1017 0                # pbzip2.cpp:1017:0
	movq	(%rsp), %rax
	cmpq	$0, 48(%rax)
	je	.LBB19_9
# BB#10:                                # %if.end24
	.loc	1 1019 0                # pbzip2.cpp:1019:0
	movq	(%rsp), %rax
	movq	48(%rax), %rdi
	xorl	%esi, %esi
	callq	pthread_mutex_init
	.loc	1 1021 0                # pbzip2.cpp:1021:0
	movq	(%rsp), %rax
	movq	$0, 56(%rax)
	movl	$48, %edi
	.loc	1 1022 0                # pbzip2.cpp:1022:0
	callq	_Znwm
	movq	(%rsp), %rcx
	movq	%rax, 56(%rcx)
	.loc	1 1023 0                # pbzip2.cpp:1023:0
	movq	(%rsp), %rax
	cmpq	$0, 56(%rax)
	je	.LBB19_11
# BB#12:                                # %if.end32
	.loc	1 1025 0                # pbzip2.cpp:1025:0
	movq	(%rsp), %rax
	movq	56(%rax), %rdi
	xorl	%esi, %esi
	callq	pthread_cond_init
	.loc	1 1027 0                # pbzip2.cpp:1027:0
	movq	(%rsp), %rax
	movq	$0, 64(%rax)
	movl	$48, %edi
	.loc	1 1028 0                # pbzip2.cpp:1028:0
	callq	_Znwm
	movq	(%rsp), %rcx
	movq	%rax, 64(%rcx)
	.loc	1 1029 0                # pbzip2.cpp:1029:0
	movq	(%rsp), %rax
	cmpq	$0, 64(%rax)
	je	.LBB19_13
# BB#14:                                # %if.end40
	.loc	1 1031 0                # pbzip2.cpp:1031:0
	movq	(%rsp), %rax
	movq	64(%rax), %rdi
	xorl	%esi, %esi
	callq	pthread_cond_init
	.loc	1 1033 0                # pbzip2.cpp:1033:0
	movq	(%rsp), %rax
	movq	%rax, 16(%rsp)
	jmp	.LBB19_15
.LBB19_1:                               # %if.then
	.loc	1 993 0                 # pbzip2.cpp:993:0
	movq	$0, 16(%rsp)
	jmp	.LBB19_15
.LBB19_3:                               # %if.then5
	.loc	1 998 0                 # pbzip2.cpp:998:0
	movq	$0, 16(%rsp)
	jmp	.LBB19_15
.LBB19_5:                               # %if.then11
	.loc	1 1003 0                # pbzip2.cpp:1003:0
	movq	$0, 16(%rsp)
	jmp	.LBB19_15
.LBB19_7:                               # %if.then17
	.loc	1 1008 0                # pbzip2.cpp:1008:0
	movq	$0, 16(%rsp)
	jmp	.LBB19_15
.LBB19_9:                               # %if.then23
	.loc	1 1018 0                # pbzip2.cpp:1018:0
	movq	$0, 16(%rsp)
	jmp	.LBB19_15
.LBB19_11:                              # %if.then31
	.loc	1 1024 0                # pbzip2.cpp:1024:0
	movq	$0, 16(%rsp)
	jmp	.LBB19_15
.LBB19_13:                              # %if.then39
	.loc	1 1030 0                # pbzip2.cpp:1030:0
	movq	$0, 16(%rsp)
.LBB19_15:                              # %return
	.loc	1 1034 0                # pbzip2.cpp:1034:0
	movq	16(%rsp), %rax
	addq	$24, %rsp
	popq	%rbx
	popq	%r14
	ret
.Ltmp356:
.Ltmp357:
	.size	_Z9queueIniti, .Ltmp357-_Z9queueIniti
.Lfunc_end19:
	.cfi_endproc

	.globl	_Z11queueDeleteP5queue
	.align	16, 0x90
	.type	_Z11queueDeleteP5queue,@function
_Z11queueDeleteP5queue:                 # @_Z11queueDeleteP5queue
	.cfi_startproc
.Lfunc_begin20:
	.loc	1 1040 0                # pbzip2.cpp:1040:0
# BB#0:                                 # %entry
	pushq	%rax
.Ltmp359:
	.cfi_def_cfa_offset 16
	movq	%rdi, (%rsp)
	testq	%rdi, %rdi
	je	.LBB20_16
# BB#1:                                 # %if.end
	.loc	1 1044 0 prologue_end   # pbzip2.cpp:1044:0
.Ltmp360:
	movq	(%rsp), %rax
	cmpq	$0, 48(%rax)
	je	.LBB20_5
# BB#2:                                 # %if.then2
	.loc	1 1046 0                # pbzip2.cpp:1046:0
.Ltmp361:
	movq	(%rsp), %rax
	movq	48(%rax), %rdi
	callq	pthread_mutex_destroy
	.loc	1 1047 0                # pbzip2.cpp:1047:0
	movq	(%rsp), %rax
	movq	48(%rax), %rdi
	testq	%rdi, %rdi
	je	.LBB20_4
# BB#3:                                 # %delete.notnull
	callq	_ZdlPv
.LBB20_4:                               # %delete.end
	.loc	1 1048 0                # pbzip2.cpp:1048:0
	movq	(%rsp), %rax
	movq	$0, 48(%rax)
.Ltmp362:
.LBB20_5:                               # %if.end6
	.loc	1 1051 0                # pbzip2.cpp:1051:0
	movq	(%rsp), %rax
	cmpq	$0, 56(%rax)
	je	.LBB20_9
# BB#6:                                 # %if.then8
	.loc	1 1053 0                # pbzip2.cpp:1053:0
.Ltmp363:
	movq	(%rsp), %rax
	movq	56(%rax), %rdi
	callq	pthread_cond_destroy
	.loc	1 1054 0                # pbzip2.cpp:1054:0
	movq	(%rsp), %rax
	movq	56(%rax), %rdi
	testq	%rdi, %rdi
	je	.LBB20_8
# BB#7:                                 # %delete.notnull13
	callq	_ZdlPv
.LBB20_8:                               # %delete.end14
	.loc	1 1055 0                # pbzip2.cpp:1055:0
	movq	(%rsp), %rax
	movq	$0, 56(%rax)
.Ltmp364:
.LBB20_9:                               # %if.end16
	.loc	1 1058 0                # pbzip2.cpp:1058:0
	movq	(%rsp), %rax
	cmpq	$0, 64(%rax)
	je	.LBB20_13
# BB#10:                                # %if.then18
	.loc	1 1060 0                # pbzip2.cpp:1060:0
.Ltmp365:
	movq	(%rsp), %rax
	movq	64(%rax), %rdi
	callq	pthread_cond_destroy
	.loc	1 1061 0                # pbzip2.cpp:1061:0
	movq	(%rsp), %rax
	movq	64(%rax), %rdi
	testq	%rdi, %rdi
	je	.LBB20_12
# BB#11:                                # %delete.notnull23
	callq	_ZdlPv
.LBB20_12:                              # %delete.end24
	.loc	1 1062 0                # pbzip2.cpp:1062:0
	movq	(%rsp), %rax
	movq	$0, 64(%rax)
.Ltmp366:
.LBB20_13:                              # %if.end26
	.loc	1 1065 0                # pbzip2.cpp:1065:0
	movq	(%rsp), %rdi
	testq	%rdi, %rdi
	je	.LBB20_15
# BB#14:                                # %delete.notnull28
	callq	_ZdlPv
.LBB20_15:                              # %delete.end29
	.loc	1 1066 0                # pbzip2.cpp:1066:0
	movq	$0, (%rsp)
.LBB20_16:                              # %return
	.loc	1 1069 0                # pbzip2.cpp:1069:0
	popq	%rax
	ret
.Ltmp367:
.Ltmp368:
	.size	_Z11queueDeleteP5queue, .Ltmp368-_Z11queueDeleteP5queue
.Lfunc_end20:
	.cfi_endproc

	.globl	_Z20testBZ2ErrorHandlingiPvi
	.align	16, 0x90
	.type	_Z20testBZ2ErrorHandlingiPvi,@function
_Z20testBZ2ErrorHandlingiPvi:           # @_Z20testBZ2ErrorHandlingiPvi
	.cfi_startproc
.Lfunc_begin21:
	.loc	1 1115 0                # pbzip2.cpp:1115:0
# BB#0:                                 # %entry
	subq	$24, %rsp
.Ltmp370:
	.cfi_def_cfa_offset 32
	movl	%edi, 16(%rsp)
	movq	%rsi, 8(%rsp)
	movl	%edx, 4(%rsp)
	.loc	1 1118 0 prologue_end   # pbzip2.cpp:1118:0
.Ltmp371:
	movq	8(%rsp), %rsi
	leaq	(%rsp), %rdi
	callq	BZ2_bzReadClose
	.loc	1 1119 0                # pbzip2.cpp:1119:0
	movl	16(%rsp), %eax
	addl	$9, %eax
	cmpl	$6, %eax
	ja	.LBB21_16
# BB#1:                                 # %entry
	jmpq	*.LJTI21_0(,%rax,8)
.LBB21_9:                               # %sw.bb7
	.loc	1 1138 0                # pbzip2.cpp:1138:0
.Ltmp372:
	movq	stderr(%rip), %rdi
	movl	$.L.str27, %esi
	jmp	.LBB21_7
.LBB21_4:                               # %sw.bb1
	.loc	1 1126 0                # pbzip2.cpp:1126:0
	movq	stderr(%rip), %rdi
	movl	$.L.str24, %esi
	jmp	.LBB21_5
.LBB21_10:                              # %sw.bb9
	.loc	1 1142 0                # pbzip2.cpp:1142:0
	cmpl	$1, 4(%rsp)
	jne	.LBB21_12
# BB#11:                                # %if.then
	.loc	1 1144 0                # pbzip2.cpp:1144:0
.Ltmp373:
	movq	stderr(%rip), %rdi
	movl	$.L.str28, %esi
	jmp	.LBB21_7
.Ltmp374:
.LBB21_6:                               # %sw.bb3
	.loc	1 1130 0                # pbzip2.cpp:1130:0
	movq	stderr(%rip), %rdi
	movl	$.L.str25, %esi
.LBB21_7:                               # %sw.bb3
	xorb	%al, %al
	callq	fprintf
	.loc	1 1131 0                # pbzip2.cpp:1131:0
	movl	$-1, 20(%rsp)
	jmp	.LBB21_15
.LBB21_8:                               # %sw.bb5
	.loc	1 1134 0                # pbzip2.cpp:1134:0
	movq	stderr(%rip), %rdi
	movl	$.L.str26, %esi
.LBB21_5:                               # %sw.bb1
	xorb	%al, %al
	.loc	1 1126 0                # pbzip2.cpp:1126:0
	callq	fprintf
	.loc	1 1127 0                # pbzip2.cpp:1127:0
	movl	$1, 20(%rsp)
	jmp	.LBB21_15
.LBB21_12:                              # %if.else
	.loc	1 1149 0                # pbzip2.cpp:1149:0
.Ltmp375:
	cmpl	$1, _ZL9QuietMode(%rip)
	je	.LBB21_14
# BB#13:                                # %if.then12
	.loc	1 1150 0                # pbzip2.cpp:1150:0
	movq	stderr(%rip), %rdi
	movl	$.L.str29, %esi
	xorb	%al, %al
	callq	fprintf
.LBB21_14:                              # %if.end
	.loc	1 1151 0                # pbzip2.cpp:1151:0
	movl	$0, 20(%rsp)
.Ltmp376:
.LBB21_15:                              # %return
	.loc	1 1159 0                # pbzip2.cpp:1159:0
	movl	20(%rsp), %eax
	addq	$24, %rsp
	ret
.LBB21_16:                              # %sw.default
	.loc	1 1154 0                # pbzip2.cpp:1154:0
.Ltmp377:
	movq	stderr(%rip), %rdi
	movl	$.L.str30, %esi
.LBB21_3:                               # %sw.bb
	xorb	%al, %al
	.loc	1 1122 0                # pbzip2.cpp:1122:0
	callq	fprintf
	movl	$3, %edi
	.loc	1 1123 0                # pbzip2.cpp:1123:0
	callq	exit
.LBB21_2:                               # %sw.bb
	.loc	1 1122 0                # pbzip2.cpp:1122:0
	movq	stderr(%rip), %rdi
	movl	$.L.str24, %esi
	jmp	.LBB21_3
.Ltmp378:
.Ltmp379:
	.size	_Z20testBZ2ErrorHandlingiPvi, .Ltmp379-_Z20testBZ2ErrorHandlingiPvi
.Lfunc_end21:
	.cfi_endproc
	.section	.rodata,"a",@progbits
	.align	8
.LJTI21_0:
	.quad	.LBB21_2
	.quad	.LBB21_16
	.quad	.LBB21_9
	.quad	.LBB21_4
	.quad	.LBB21_10
	.quad	.LBB21_6
	.quad	.LBB21_8

	.text
	.globl	_Z18testCompressedDataPc
	.align	16, 0x90
	.type	_Z18testCompressedDataPc,@function
_Z18testCompressedDataPc:               # @_Z18testCompressedDataPc
	.cfi_startproc
.Lfunc_begin22:
	.loc	1 1166 0                # pbzip2.cpp:1166:0
# BB#0:                                 # %entry
	pushq	%r15
.Ltmp386:
	.cfi_def_cfa_offset 16
	pushq	%r14
.Ltmp387:
	.cfi_def_cfa_offset 24
	pushq	%r13
.Ltmp388:
	.cfi_def_cfa_offset 32
	pushq	%r12
.Ltmp389:
	.cfi_def_cfa_offset 40
	pushq	%rbx
.Ltmp390:
	.cfi_def_cfa_offset 48
	subq	$10096, %rsp            # imm = 0x2770
.Ltmp391:
	.cfi_def_cfa_offset 10144
.Ltmp392:
	.cfi_offset %rbx, -48
.Ltmp393:
	.cfi_offset %r12, -40
.Ltmp394:
	.cfi_offset %r13, -32
.Ltmp395:
	.cfi_offset %r14, -24
.Ltmp396:
	.cfi_offset %r15, -16
	movq	%rdi, 10080(%rsp)
	.loc	1 1167 0 prologue_end   # pbzip2.cpp:1167:0
.Ltmp397:
	movq	$0, 10072(%rsp)
	.loc	1 1168 0                # pbzip2.cpp:1168:0
	movl	$0, 10068(%rsp)
	.loc	1 1170 0                # pbzip2.cpp:1170:0
	movq	$0, 10056(%rsp)
	.loc	1 1178 0                # pbzip2.cpp:1178:0
	movl	$0, 20(%rsp)
	.loc	1 1179 0                # pbzip2.cpp:1179:0
	movl	$0, 24(%rsp)
	.loc	1 1182 0                # pbzip2.cpp:1182:0
	movq	10080(%rsp), %rdi
	movl	$.L.str31, %esi
	callq	fopen
	movq	%rax, 10072(%rsp)
	testq	%rax, %rax
	je	.LBB22_1
# BB#3:                                 # %if.end
	.loc	1 1190 0                # pbzip2.cpp:1190:0
	movq	10072(%rsp), %rdi
	callq	ferror
	testl	%eax, %eax
	jne	.LBB22_21
# BB#4:
	leaq	36(%rsp), %rbx
	leaq	48(%rsp), %r14
	leaq	5056(%rsp), %r15
	leaq	40(%rsp), %r12
	leaq	20(%rsp), %r13
	jmp	.LBB22_5
.LBB22_1:                               # %if.then
	.loc	1 1185 0                # pbzip2.cpp:1185:0
.Ltmp398:
	movq	10080(%rsp), %rdx
	movq	stderr(%rip), %rdi
	movl	$.L.str32, %esi
.LBB22_2:                               # %if.then
	xorb	%al, %al
	callq	fprintf
	.loc	1 1186 0                # pbzip2.cpp:1186:0
	movl	$-1, 10092(%rsp)
	jmp	.LBB22_25
.Ltmp399:
.LBB22_19:                              # %if.else
                                        #   in Loop: Header=BB22_5 Depth=1
	.loc	1 1251 0                # pbzip2.cpp:1251:0
	movq	10072(%rsp), %rsi
	movl	12(%rsp), %edi
	callq	ungetc
.Ltmp400:
.LBB22_5:                               # %while.body
                                        # =>This Loop Header: Depth=1
                                        #     Child Loop BB22_9 Depth 2
                                        #     Child Loop BB22_14 Depth 2
	.loc	1 1200 0                # pbzip2.cpp:1200:0
	movl	20(%rsp), %r9d
	movl	_ZL9Verbosity(%rip), %edx
	movq	10072(%rsp), %rsi
	movq	%rbx, %rdi
	xorl	%ecx, %ecx
	movq	%r14, %r8
	callq	BZ2_bzReadOpen
	movq	%rax, 10056(%rsp)
	testq	%rax, %rax
	je	.LBB22_7
# BB#6:                                 # %lor.lhs.false
                                        #   in Loop: Header=BB22_5 Depth=1
	.loc	1 1201 0                # pbzip2.cpp:1201:0
	cmpl	$0, 36(%rsp)
	jne	.LBB22_7
# BB#8:                                 # %if.end13
                                        #   in Loop: Header=BB22_5 Depth=1
	.loc	1 1208 0                # pbzip2.cpp:1208:0
	incl	24(%rsp)
	.align	16, 0x90
.LBB22_9:                               # %while.cond14
                                        #   Parent Loop BB22_5 Depth=1
                                        # =>  This Inner Loop Header: Depth=2
	.loc	1 1210 0                # pbzip2.cpp:1210:0
	cmpl	$0, 36(%rsp)
	jne	.LBB22_11
# BB#10:                                # %while.body16
                                        #   in Loop: Header=BB22_9 Depth=2
	.loc	1 1212 0                # pbzip2.cpp:1212:0
.Ltmp401:
	movq	10056(%rsp), %rsi
	movq	%rbx, %rdi
	movq	%r15, %rdx
	movl	$5000, %ecx             # imm = 0x1388
	callq	BZ2_bzRead
	movl	%eax, 28(%rsp)
	.loc	1 1213 0                # pbzip2.cpp:1213:0
	cmpl	$-5, 36(%rsp)
	jne	.LBB22_9
	jmp	.LBB22_7
.Ltmp402:
	.align	16, 0x90
.LBB22_11:                              # %while.end
                                        #   in Loop: Header=BB22_5 Depth=1
	.loc	1 1220 0                # pbzip2.cpp:1220:0
	cmpl	$4, 36(%rsp)
	jne	.LBB22_7
# BB#12:                                # %if.end28
                                        #   in Loop: Header=BB22_5 Depth=1
	.loc	1 1227 0                # pbzip2.cpp:1227:0
	movq	10056(%rsp), %rsi
	movq	%rbx, %rdi
	movq	%r12, %rdx
	movq	%r13, %rcx
	callq	BZ2_bzReadGetUnused
	.loc	1 1228 0                # pbzip2.cpp:1228:0
	cmpl	$0, 36(%rsp)
	jne	.LBB22_26
# BB#13:                                # %if.end32
                                        #   in Loop: Header=BB22_5 Depth=1
	.loc	1 1234 0                # pbzip2.cpp:1234:0
.Ltmp403:
	movl	$0, 16(%rsp)
	jmp	.LBB22_14
	.align	16, 0x90
.LBB22_15:                              # %for.inc
                                        #   in Loop: Header=BB22_14 Depth=2
	.loc	1 1235 0                # pbzip2.cpp:1235:0
	movslq	16(%rsp), %rax
	movq	40(%rsp), %rcx
	movb	(%rcx,%rax), %cl
	movb	%cl, 48(%rsp,%rax)
	.loc	1 1234 0                # pbzip2.cpp:1234:0
	incl	16(%rsp)
.LBB22_14:                              # %for.cond
                                        #   Parent Loop BB22_5 Depth=1
                                        # =>  This Inner Loop Header: Depth=2
	movl	16(%rsp), %eax
	cmpl	20(%rsp), %eax
	jl	.LBB22_15
.Ltmp404:
# BB#16:                                # %for.end
                                        #   in Loop: Header=BB22_5 Depth=1
	.loc	1 1237 0                # pbzip2.cpp:1237:0
	movq	10056(%rsp), %rsi
	movq	%rbx, %rdi
	callq	BZ2_bzReadClose
	.loc	1 1238 0                # pbzip2.cpp:1238:0
	cmpl	$0, 36(%rsp)
	jne	.LBB22_26
# BB#17:                                # %if.end40
                                        #   in Loop: Header=BB22_5 Depth=1
	.loc	1 1245 0                # pbzip2.cpp:1245:0
	cmpl	$0, 20(%rsp)
	jne	.LBB22_5
# BB#18:                                # %if.then42
                                        #   in Loop: Header=BB22_5 Depth=1
.Ltmp405:
	#DEBUG_VALUE: c <- [%rsp+$12]+$0
	.loc	1 1247 0                # pbzip2.cpp:1247:0
	movq	10072(%rsp), %rdi
	callq	fgetc
	movl	%eax, 12(%rsp)
	cmpl	$-1, %eax
	jne	.LBB22_19
.Ltmp406:
# BB#20:                                # %while.end49
	.loc	1 1256 0                # pbzip2.cpp:1256:0
	movq	10072(%rsp), %rdi
	callq	ferror
	testl	%eax, %eax
	je	.LBB22_22
.LBB22_21:                              # %if.then3
	.loc	1 1192 0                # pbzip2.cpp:1192:0
.Ltmp407:
	movq	10080(%rsp), %rdx
	movq	stderr(%rip), %rdi
	movl	$.L.str33, %esi
	xorb	%al, %al
	callq	fprintf
	.loc	1 1193 0                # pbzip2.cpp:1193:0
	movq	10072(%rsp), %rdi
	callq	fclose
	.loc	1 1194 0                # pbzip2.cpp:1194:0
	movl	$-1, 10092(%rsp)
	jmp	.LBB22_25
.Ltmp408:
.LBB22_7:                               # %if.then10
	.loc	1 1203 0                # pbzip2.cpp:1203:0
	movl	24(%rsp), %edx
	movq	10056(%rsp), %rsi
	movl	36(%rsp), %edi
	callq	_Z20testBZ2ErrorHandlingiPvi
	movl	%eax, 10068(%rsp)
	.loc	1 1204 0                # pbzip2.cpp:1204:0
	movq	10072(%rsp), %rdi
	callq	fclose
	.loc	1 1205 0                # pbzip2.cpp:1205:0
	movl	10068(%rsp), %eax
	movl	%eax, 10092(%rsp)
.Ltmp409:
.LBB22_25:                              # %return
	.loc	1 1272 0                # pbzip2.cpp:1272:0
	movl	10092(%rsp), %eax
	addq	$10096, %rsp            # imm = 0x2770
	popq	%rbx
	popq	%r12
	popq	%r13
	popq	%r14
	popq	%r15
	ret
.LBB22_22:                              # %if.end55
	.loc	1 1264 0                # pbzip2.cpp:1264:0
	movq	10072(%rsp), %rdi
	callq	fclose
	movl	%eax, 10068(%rsp)
	cmpl	$-1, %eax
	.loc	1 1265 0                # pbzip2.cpp:1265:0
	jne	.LBB22_24
# BB#23:                                # %if.then58
	.loc	1 1267 0                # pbzip2.cpp:1267:0
.Ltmp410:
	movq	10080(%rsp), %rdx
	movq	stderr(%rip), %rdi
	movl	$.L.str34, %esi
	jmp	.LBB22_2
.Ltmp411:
.LBB22_26:                              # %if.then30
	.loc	1 1230 0                # pbzip2.cpp:1230:0
	movq	stderr(%rip), %rdi
	movl	$.L.str30, %esi
	xorb	%al, %al
	callq	fprintf
	movl	$3, %edi
	.loc	1 1231 0                # pbzip2.cpp:1231:0
	callq	exit
.Ltmp412:
.LBB22_24:                              # %if.end60
	.loc	1 1271 0                # pbzip2.cpp:1271:0
	movl	$0, 10092(%rsp)
	jmp	.LBB22_25
.Ltmp413:
.Ltmp414:
	.size	_Z18testCompressedDataPc, .Ltmp414-_Z18testCompressedDataPc
.Lfunc_end22:
	.file	20 "/usr/include/libio.h"
	.cfi_endproc

	.globl	_Z15getFileMetaDataPc
	.align	16, 0x90
	.type	_Z15getFileMetaDataPc,@function
_Z15getFileMetaDataPc:                  # @_Z15getFileMetaDataPc
	.cfi_startproc
.Lfunc_begin23:
	.loc	1 1278 0                # pbzip2.cpp:1278:0
# BB#0:                                 # %entry
	subq	$24, %rsp
.Ltmp416:
	.cfi_def_cfa_offset 32
	movq	%rdi, 16(%rsp)
	.loc	1 1279 0 prologue_end   # pbzip2.cpp:1279:0
.Ltmp417:
	movl	$0, 12(%rsp)
	.loc	1 1282 0                # pbzip2.cpp:1282:0
	movq	16(%rsp), %rdi
	movl	$_ZL12fileMetaData, %esi
	callq	stat
	movl	%eax, 12(%rsp)
	.loc	1 1284 0                # pbzip2.cpp:1284:0
	addq	$24, %rsp
	ret
.Ltmp418:
.Ltmp419:
	.size	_Z15getFileMetaDataPc, .Ltmp419-_Z15getFileMetaDataPc
.Lfunc_end23:
	.cfi_endproc

	.globl	_Z17writeFileMetaDataPc
	.align	16, 0x90
	.type	_Z17writeFileMetaDataPc,@function
_Z17writeFileMetaDataPc:                # @_Z17writeFileMetaDataPc
	.cfi_startproc
.Lfunc_begin24:
	.loc	1 1291 0                # pbzip2.cpp:1291:0
# BB#0:                                 # %entry
	subq	$40, %rsp
.Ltmp421:
	.cfi_def_cfa_offset 48
	movq	%rdi, 24(%rsp)
	.loc	1 1292 0 prologue_end   # pbzip2.cpp:1292:0
.Ltmp422:
	movl	$0, 20(%rsp)
	.loc	1 1296 0                # pbzip2.cpp:1296:0
	movq	_ZL12fileMetaData+72(%rip), %rax
	movq	%rax, (%rsp)
	.loc	1 1297 0                # pbzip2.cpp:1297:0
	movq	_ZL12fileMetaData+88(%rip), %rax
	movq	%rax, 8(%rsp)
	.loc	1 1300 0                # pbzip2.cpp:1300:0
	movl	_ZL12fileMetaData+24(%rip), %esi
	movq	24(%rsp), %rdi
	callq	chmod
	movl	%eax, 20(%rsp)
	testl	%eax, %eax
	jne	.LBB24_1
# BB#2:                                 # %if.end
	.loc	1 1305 0                # pbzip2.cpp:1305:0
	movq	24(%rsp), %rdi
	leaq	(%rsp), %rsi
	callq	utime
	movl	%eax, 20(%rsp)
	testl	%eax, %eax
	je	.LBB24_3
.LBB24_1:                               # %if.then
	.loc	1 1302 0                # pbzip2.cpp:1302:0
	movl	20(%rsp), %eax
	movl	%eax, 36(%rsp)
.LBB24_4:                               # %return
	.loc	1 1315 0                # pbzip2.cpp:1315:0
	movl	36(%rsp), %eax
	addq	$40, %rsp
	ret
.LBB24_3:                               # %if.end4
	.loc	1 1311 0                # pbzip2.cpp:1311:0
	movl	_ZL12fileMetaData+32(%rip), %edx
	movl	_ZL12fileMetaData+28(%rip), %esi
	movq	24(%rsp), %rdi
	callq	chown
	.loc	1 1314 0                # pbzip2.cpp:1314:0
	movl	$0, 36(%rsp)
	jmp	.LBB24_4
.Ltmp423:
.Ltmp424:
	.size	_Z17writeFileMetaDataPc, .Ltmp424-_Z17writeFileMetaDataPc
.Lfunc_end24:
	.file	21 "/usr/include/utime.h"
	.cfi_endproc

	.globl	_Z6bannerv
	.align	16, 0x90
	.type	_Z6bannerv,@function
_Z6bannerv:                             # @_Z6bannerv
	.cfi_startproc
.Lfunc_begin25:
	.loc	1 1321 0                # pbzip2.cpp:1321:0
# BB#0:                                 # %entry
	.loc	1 1322 0 prologue_end   # pbzip2.cpp:1322:0
	pushq	%rax
.Ltmp426:
	.cfi_def_cfa_offset 16
	movq	stderr(%rip), %rdi
	movl	$.L.str35, %esi
	xorb	%al, %al
	callq	fprintf
	.loc	1 1323 0                # pbzip2.cpp:1323:0
	movq	stderr(%rip), %rdi
	movl	$.L.str36, %esi
	xorb	%al, %al
	callq	fprintf
	.loc	1 1324 0                # pbzip2.cpp:1324:0
	movq	stderr(%rip), %rdi
	movl	$.L.str37, %esi
	xorb	%al, %al
	callq	fprintf
	.loc	1 1326 0                # pbzip2.cpp:1326:0
	popq	%rax
	ret
.Ltmp427:
.Ltmp428:
	.size	_Z6bannerv, .Ltmp428-_Z6bannerv
.Lfunc_end25:
	.cfi_endproc

	.globl	_Z5usagePc
	.align	16, 0x90
	.type	_Z5usagePc,@function
_Z5usagePc:                             # @_Z5usagePc
	.cfi_startproc
.Lfunc_begin26:
	.loc	1 1333 0                # pbzip2.cpp:1333:0
# BB#0:                                 # %entry
	pushq	%rax
.Ltmp430:
	.cfi_def_cfa_offset 16
	movq	%rdi, (%rsp)
	.loc	1 1334 0 prologue_end   # pbzip2.cpp:1334:0
.Ltmp431:
	callq	_Z6bannerv
	.loc	1 1335 0                # pbzip2.cpp:1335:0
	movq	stderr(%rip), %rdi
	movl	$.L.str38, %esi
	xorb	%al, %al
	callq	fprintf
	.loc	1 1336 0                # pbzip2.cpp:1336:0
	movq	(%rsp), %rdx
	movq	stderr(%rip), %rdi
	movl	$.L.str39, %esi
	xorb	%al, %al
	callq	fprintf
	.loc	1 1337 0                # pbzip2.cpp:1337:0
	movq	stderr(%rip), %rdi
	movl	$.L.str40, %esi
	xorb	%al, %al
	callq	fprintf
	.loc	1 1338 0                # pbzip2.cpp:1338:0
	movq	stderr(%rip), %rdi
	movl	$.L.str41, %esi
	xorb	%al, %al
	callq	fprintf
	.loc	1 1339 0                # pbzip2.cpp:1339:0
	movq	stderr(%rip), %rdi
	movl	$.L.str42, %esi
	xorb	%al, %al
	callq	fprintf
	.loc	1 1340 0                # pbzip2.cpp:1340:0
	movq	stderr(%rip), %rdi
	movl	$.L.str43, %esi
	xorb	%al, %al
	callq	fprintf
	.loc	1 1341 0                # pbzip2.cpp:1341:0
	movq	stderr(%rip), %rdi
	movl	$.L.str44, %esi
	xorb	%al, %al
	callq	fprintf
	.loc	1 1342 0                # pbzip2.cpp:1342:0
	movq	stderr(%rip), %rdi
	movl	$.L.str45, %esi
	xorb	%al, %al
	callq	fprintf
	.loc	1 1344 0                # pbzip2.cpp:1344:0
	movq	stderr(%rip), %rdi
	movl	$.L.str46, %esi
	xorb	%al, %al
	callq	fprintf
	.loc	1 1348 0                # pbzip2.cpp:1348:0
	movq	stderr(%rip), %rdi
	movl	$.L.str47, %esi
	xorb	%al, %al
	callq	fprintf
	.loc	1 1349 0                # pbzip2.cpp:1349:0
	movq	stderr(%rip), %rdi
	movl	$.L.str48, %esi
	xorb	%al, %al
	callq	fprintf
	.loc	1 1350 0                # pbzip2.cpp:1350:0
	movq	stderr(%rip), %rdi
	movl	$.L.str49, %esi
	xorb	%al, %al
	callq	fprintf
	.loc	1 1351 0                # pbzip2.cpp:1351:0
	movq	stderr(%rip), %rdi
	movl	$.L.str50, %esi
	xorb	%al, %al
	callq	fprintf
	.loc	1 1352 0                # pbzip2.cpp:1352:0
	movq	stderr(%rip), %rdi
	movl	$.L.str51, %esi
	xorb	%al, %al
	callq	fprintf
	.loc	1 1353 0                # pbzip2.cpp:1353:0
	movq	stderr(%rip), %rdi
	movl	$.L.str52, %esi
	xorb	%al, %al
	callq	fprintf
	.loc	1 1354 0                # pbzip2.cpp:1354:0
	movq	stderr(%rip), %rdi
	movl	$.L.str53, %esi
	xorb	%al, %al
	callq	fprintf
	.loc	1 1355 0                # pbzip2.cpp:1355:0
	movq	stderr(%rip), %rdi
	movl	$.L.str54, %esi
	xorb	%al, %al
	callq	fprintf
	movl	$-1, %edi
	.loc	1 1356 0                # pbzip2.cpp:1356:0
	callq	exit
.Ltmp432:
.Ltmp433:
	.size	_Z5usagePc, .Ltmp433-_Z5usagePc
.Lfunc_end26:
	.cfi_endproc

	.section	.rodata.cst8,"aM",@progbits,8
	.align	8
.LCPI27_0:
	.quad	4696837146684686336     # double 1.000000e+06
                                        #  (0x412e848000000000)
	.section	.rodata.cst16,"aM",@progbits,16
	.align	16
.LCPI27_1:
	.zero	16
	.text
	.globl	main
	.align	16, 0x90
	.type	main,@function
main:                                   # @main
	.cfi_startproc
.Lfunc_begin27:
	.loc	1 1363 0                # pbzip2.cpp:1363:0
# BB#0:                                 # %entry
	pushq	%rbp
.Ltmp441:
	.cfi_def_cfa_offset 16
	pushq	%r15
.Ltmp442:
	.cfi_def_cfa_offset 24
	pushq	%r14
.Ltmp443:
	.cfi_def_cfa_offset 32
	pushq	%r13
.Ltmp444:
	.cfi_def_cfa_offset 40
	pushq	%r12
.Ltmp445:
	.cfi_def_cfa_offset 48
	pushq	%rbx
.Ltmp446:
	.cfi_def_cfa_offset 56
	subq	$984, %rsp              # imm = 0x3D8
.Ltmp447:
	.cfi_def_cfa_offset 1040
.Ltmp448:
	.cfi_offset %rbx, -56
.Ltmp449:
	.cfi_offset %r12, -48
.Ltmp450:
	.cfi_offset %r13, -40
.Ltmp451:
	.cfi_offset %r14, -32
.Ltmp452:
	.cfi_offset %r15, -24
.Ltmp453:
	.cfi_offset %rbp, -16
	movl	$0, 980(%rsp)
	movl	%edi, 976(%rsp)
	movq	%rsi, 968(%rsp)
	.loc	1 1366 0 prologue_end   # pbzip2.cpp:1366:0
.Ltmp454:
	movq	$0, 936(%rsp)
	.loc	1 1367 0                # pbzip2.cpp:1367:0
	movq	$0, 928(%rsp)
	movabsq	$2763311526040853058, %rax # imm = 0x2659413139685A42
	.loc	1 1368 0                # pbzip2.cpp:1368:0
	movq	%rax, 912(%rsp)
	movb	$0, 922(%rsp)
	movw	$22867, 920(%rsp)       # imm = 0x5953
	.loc	1 1381 0                # pbzip2.cpp:1381:0
	movq	$0, 144(%rsp)
	leaq	320(%rsp), %rdi
	leaq	296(%rsp), %rsi
	.loc	1 1382 0                # pbzip2.cpp:1382:0
	movq	$0, 136(%rsp)
	.loc	1 1383 0                # pbzip2.cpp:1383:0
	movq	$0, 128(%rsp)
	.loc	1 1384 0                # pbzip2.cpp:1384:0
	movq	$0, 120(%rsp)
	.loc	1 1386 0                # pbzip2.cpp:1386:0
	movl	$0, 108(%rsp)
	.loc	1 1387 0                # pbzip2.cpp:1387:0
	movl	$0, 104(%rsp)
	.loc	1 1388 0                # pbzip2.cpp:1388:0
	movl	$2, 100(%rsp)
	.loc	1 1389 0                # pbzip2.cpp:1389:0
	movl	$-1, 96(%rsp)
	.loc	1 1390 0                # pbzip2.cpp:1390:0
	movl	$-1, 92(%rsp)
	.loc	1 1391 0                # pbzip2.cpp:1391:0
	movl	$0, 88(%rsp)
	.loc	1 1392 0                # pbzip2.cpp:1392:0
	movl	$900000, 84(%rsp)       # imm = 0xDBBA0
	.loc	1 1393 0                # pbzip2.cpp:1393:0
	movl	$0, 80(%rsp)
	.loc	1 1394 0                # pbzip2.cpp:1394:0
	movl	$0, 76(%rsp)
	.loc	1 1395 0                # pbzip2.cpp:1395:0
	movl	$0, 72(%rsp)
	.loc	1 1396 0                # pbzip2.cpp:1396:0
	movl	$0, 68(%rsp)
	.loc	1 1397 0                # pbzip2.cpp:1397:0
	movl	$0, 64(%rsp)
	.loc	1 1400 0                # pbzip2.cpp:1400:0
	movl	$0, 44(%rsp)
	.loc	1 1404 0                # pbzip2.cpp:1404:0
	callq	gettimeofday
	.loc	1 1413 0                # pbzip2.cpp:1413:0
	cmpl	$1, 976(%rsp)
	jg	.LBB27_2
# BB#1:                                 # %if.then
	.loc	1 1415 0                # pbzip2.cpp:1415:0
.Ltmp455:
	movq	968(%rsp), %rax
	movq	(%rax), %rdi
	callq	_Z5usagePc
.Ltmp456:
.LBB27_2:                               # %if.end
	.loc	1 1418 0                # pbzip2.cpp:1418:0
	movl	$0, _ZL13FileListCount(%rip)
	movq	$-1, %rdi
	movl	$8, %ecx
	.loc	1 1419 0                # pbzip2.cpp:1419:0
	movslq	976(%rsp), %rax
	mulq	%rcx
	cmovnoq	%rax, %rdi
	callq	_Znam
	movq	%rax, 936(%rsp)
	testq	%rax, %rax
	je	.LBB27_3
# BB#5:                                 # %if.end5
	movl	$84, %edi
	.loc	1 1428 0                # pbzip2.cpp:1428:0
	callq	sysconf
	movl	%eax, 100(%rsp)
	.loc	1 1432 0                # pbzip2.cpp:1432:0
.Ltmp457:
	movl	$1, 60(%rsp)
	leaq	400(%rsp), %rbx
	jmp	.LBB27_6
	.align	16, 0x90
.LBB27_56:                              # %for.inc131
                                        #   in Loop: Header=BB27_6 Depth=1
	incl	60(%rsp)
.LBB27_6:                               # %for.cond
                                        # =>This Loop Header: Depth=1
                                        #     Child Loop BB27_9 Depth 2
                                        #       Child Loop BB27_19 Depth 3
	movl	60(%rsp), %eax
	cmpl	976(%rsp), %eax
	jge	.LBB27_57
# BB#7:                                 # %for.body
                                        #   in Loop: Header=BB27_6 Depth=1
	.loc	1 1434 0                # pbzip2.cpp:1434:0
.Ltmp458:
	movslq	60(%rsp), %rax
	movq	968(%rsp), %rcx
	movq	(%rcx,%rax,8), %rax
	movsbl	(%rax), %eax
	cmpl	$45, %eax
	jne	.LBB27_55
# BB#8:                                 # %if.then12
                                        #   in Loop: Header=BB27_6 Depth=1
	.loc	1 1440 0                # pbzip2.cpp:1440:0
.Ltmp459:
	movl	$1, 56(%rsp)
	jmp	.LBB27_9
	.align	16, 0x90
.LBB27_54:                              # %for.inc
                                        #   in Loop: Header=BB27_9 Depth=2
	incl	56(%rsp)
.LBB27_9:                               # %for.cond13
                                        #   Parent Loop BB27_6 Depth=1
                                        # =>  This Loop Header: Depth=2
                                        #       Child Loop BB27_19 Depth 3
	movslq	60(%rsp), %rax
	movq	968(%rsp), %rcx
	movq	(%rcx,%rax,8), %rax
	movslq	56(%rsp), %rcx
	movsbl	(%rax,%rcx), %eax
	testl	%eax, %eax
	je	.LBB27_56
# BB#10:                                # %for.body20
                                        #   in Loop: Header=BB27_9 Depth=2
	.loc	1 1442 0                # pbzip2.cpp:1442:0
.Ltmp460:
	movslq	60(%rsp), %rax
	movq	968(%rsp), %rcx
	movq	(%rcx,%rax,8), %rax
	movslq	56(%rsp), %rcx
	movsbl	(%rax,%rcx), %eax
	cmpl	$85, %eax
	ja	.LBB27_13
# BB#11:                                # %for.body20
                                        #   in Loop: Header=BB27_9 Depth=2
	addl	$-49, %eax
	cmpl	$8, %eax
	ja	.LBB27_54
# BB#12:                                # %for.body20
                                        #   in Loop: Header=BB27_9 Depth=2
	jmpq	*.LJTI27_1(,%rax,8)
.LBB27_45:                              # %sw.bb114
                                        #   in Loop: Header=BB27_9 Depth=2
	.loc	1 1499 0                # pbzip2.cpp:1499:0
.Ltmp461:
	movl	$1, _ZL12BWTblockSize(%rip)
.Ltmp462:
	.loc	1 1440 0                # pbzip2.cpp:1440:0
	incl	56(%rsp)
	jmp	.LBB27_9
	.align	16, 0x90
.LBB27_13:                              # %for.body20
                                        #   in Loop: Header=BB27_9 Depth=2
	cmpl	$97, %eax
	ja	.LBB27_16
# BB#14:                                # %for.body20
                                        #   in Loop: Header=BB27_9 Depth=2
	cmpl	$86, %eax
	jne	.LBB27_54
	jmp	.LBB27_15
	.align	16, 0x90
.LBB27_16:                              # %for.body20
                                        #   in Loop: Header=BB27_9 Depth=2
	addl	$-98, %eax
	cmpl	$18, %eax
	ja	.LBB27_54
# BB#17:                                # %for.body20
                                        #   in Loop: Header=BB27_9 Depth=2
	jmpq	*.LJTI27_0(,%rax,8)
.LBB27_32:                              # %sw.bb71
                                        #   in Loop: Header=BB27_9 Depth=2
	.loc	1 1472 0                # pbzip2.cpp:1472:0
.Ltmp463:
	movl	$0, 108(%rsp)
	movl	$900000, 84(%rsp)       # imm = 0xDBBA0
	.loc	1 1473 0                # pbzip2.cpp:1473:0
	movslq	60(%rsp), %rax
	movq	968(%rsp), %rcx
	movq	(%rcx,%rax,8), %rax
	movl	56(%rsp), %ecx
	incl	%ecx
	movslq	%ecx, %rcx
	cmpb	$0, (%rax,%rcx)
	je	.LBB27_37
# BB#33:                                # %if.then77
                                        #   in Loop: Header=BB27_9 Depth=2
	.loc	1 1475 0                # pbzip2.cpp:1475:0
.Ltmp464:
	movslq	60(%rsp), %rax
	movq	968(%rsp), %rcx
	movq	(%rcx,%rax,8), %rax
	movl	56(%rsp), %ecx
	incl	%ecx
	movslq	%ecx, %rcx
	movsbl	(%rax,%rcx), %eax
	cmpl	$49, %eax
	jl	.LBB27_35
# BB#34:                                # %lor.lhs.false85
                                        #   in Loop: Header=BB27_9 Depth=2
	movslq	60(%rsp), %rax
	movq	968(%rsp), %rcx
	movq	(%rcx,%rax,8), %rax
	movl	56(%rsp), %ecx
	incl	%ecx
	movslq	%ecx, %rcx
	movsbl	(%rax,%rcx), %eax
	cmpl	$58, %eax
	jge	.LBB27_35
# BB#36:                                # %if.end95
                                        #   in Loop: Header=BB27_9 Depth=2
	.loc	1 1480 0                # pbzip2.cpp:1480:0
	movslq	60(%rsp), %rax
	movq	968(%rsp), %rcx
	movq	(%rcx,%rax,8), %rax
	movl	56(%rsp), %ecx
	incl	%ecx
	movslq	%ecx, %rcx
	movsbl	(%rax,%rcx), %eax
	imull	$100000, %eax, %eax     # imm = 0x186A0
	addl	$-4800000, %eax         # imm = 0xFFFFFFFFFFB6C200
	movl	%eax, 84(%rsp)
.Ltmp465:
	.loc	1 1486 0                # pbzip2.cpp:1486:0
	incl	56(%rsp)
.Ltmp466:
	.loc	1 1440 0                # pbzip2.cpp:1440:0
	incl	56(%rsp)
	jmp	.LBB27_9
.LBB27_46:                              # %sw.bb115
                                        #   in Loop: Header=BB27_9 Depth=2
	.loc	1 1500 0                # pbzip2.cpp:1500:0
.Ltmp467:
	movl	$2, _ZL12BWTblockSize(%rip)
.Ltmp468:
	.loc	1 1440 0                # pbzip2.cpp:1440:0
	incl	56(%rsp)
	jmp	.LBB27_9
.LBB27_47:                              # %sw.bb116
                                        #   in Loop: Header=BB27_9 Depth=2
	.loc	1 1501 0                # pbzip2.cpp:1501:0
.Ltmp469:
	movl	$3, _ZL12BWTblockSize(%rip)
.Ltmp470:
	.loc	1 1440 0                # pbzip2.cpp:1440:0
	incl	56(%rsp)
	jmp	.LBB27_9
.LBB27_48:                              # %sw.bb117
                                        #   in Loop: Header=BB27_9 Depth=2
	.loc	1 1502 0                # pbzip2.cpp:1502:0
.Ltmp471:
	movl	$4, _ZL12BWTblockSize(%rip)
.Ltmp472:
	.loc	1 1440 0                # pbzip2.cpp:1440:0
	incl	56(%rsp)
	jmp	.LBB27_9
.LBB27_49:                              # %sw.bb118
                                        #   in Loop: Header=BB27_9 Depth=2
	.loc	1 1503 0                # pbzip2.cpp:1503:0
.Ltmp473:
	movl	$5, _ZL12BWTblockSize(%rip)
.Ltmp474:
	.loc	1 1440 0                # pbzip2.cpp:1440:0
	incl	56(%rsp)
	jmp	.LBB27_9
.LBB27_50:                              # %sw.bb119
                                        #   in Loop: Header=BB27_9 Depth=2
	.loc	1 1504 0                # pbzip2.cpp:1504:0
.Ltmp475:
	movl	$6, _ZL12BWTblockSize(%rip)
.Ltmp476:
	.loc	1 1440 0                # pbzip2.cpp:1440:0
	incl	56(%rsp)
	jmp	.LBB27_9
.LBB27_51:                              # %sw.bb120
                                        #   in Loop: Header=BB27_9 Depth=2
	.loc	1 1505 0                # pbzip2.cpp:1505:0
.Ltmp477:
	movl	$7, _ZL12BWTblockSize(%rip)
.Ltmp478:
	.loc	1 1440 0                # pbzip2.cpp:1440:0
	incl	56(%rsp)
	jmp	.LBB27_9
.LBB27_52:                              # %sw.bb121
                                        #   in Loop: Header=BB27_9 Depth=2
	.loc	1 1506 0                # pbzip2.cpp:1506:0
.Ltmp479:
	movl	$8, _ZL12BWTblockSize(%rip)
.Ltmp480:
	.loc	1 1440 0                # pbzip2.cpp:1440:0
	incl	56(%rsp)
	jmp	.LBB27_9
.LBB27_53:                              # %sw.bb122
                                        #   in Loop: Header=BB27_9 Depth=2
	.loc	1 1507 0                # pbzip2.cpp:1507:0
.Ltmp481:
	movl	$9, _ZL12BWTblockSize(%rip)
	jmp	.LBB27_54
.LBB27_39:                              # %sw.bb107
                                        #   in Loop: Header=BB27_9 Depth=2
	.loc	1 1492 0                # pbzip2.cpp:1492:0
	movl	$1, _ZL12OutputStdOut(%rip)
	movl	$1, 72(%rsp)
.Ltmp482:
	.loc	1 1440 0                # pbzip2.cpp:1440:0
	incl	56(%rsp)
	jmp	.LBB27_9
.LBB27_38:                              # %sw.bb106
                                        #   in Loop: Header=BB27_9 Depth=2
	.loc	1 1491 0                # pbzip2.cpp:1491:0
.Ltmp483:
	movl	$1, 80(%rsp)
.Ltmp484:
	.loc	1 1440 0                # pbzip2.cpp:1440:0
	incl	56(%rsp)
	jmp	.LBB27_9
.LBB27_40:                              # %sw.bb108
                                        #   in Loop: Header=BB27_9 Depth=2
	.loc	1 1493 0                # pbzip2.cpp:1493:0
.Ltmp485:
	movl	$1, 68(%rsp)
.Ltmp486:
	.loc	1 1440 0                # pbzip2.cpp:1440:0
	incl	56(%rsp)
	jmp	.LBB27_9
.LBB27_41:                              # %sw.bb109
                                        #   in Loop: Header=BB27_9 Depth=2
	.loc	1 1494 0                # pbzip2.cpp:1494:0
.Ltmp487:
	movl	$1, 72(%rsp)
.Ltmp488:
	.loc	1 1440 0                # pbzip2.cpp:1440:0
	incl	56(%rsp)
	jmp	.LBB27_9
.LBB27_18:                              # %sw.bb
                                        #   in Loop: Header=BB27_9 Depth=2
	.loc	1 1444 0                # pbzip2.cpp:1444:0
.Ltmp489:
	movl	56(%rsp), %eax
	incl	%eax
	movl	%eax, 52(%rsp)
	movl	$0, 108(%rsp)
	movq	%rbx, %rdi
	movl	$.L.str56, %esi
	callq	strcpy
	jmp	.LBB27_19
.LBB27_42:                              # %sw.bb110
                                        #   in Loop: Header=BB27_9 Depth=2
	.loc	1 1495 0                # pbzip2.cpp:1495:0
	movl	$1, _ZL9QuietMode(%rip)
.Ltmp490:
	.loc	1 1440 0                # pbzip2.cpp:1440:0
	incl	56(%rsp)
	jmp	.LBB27_9
.LBB27_43:                              # %sw.bb111
                                        #   in Loop: Header=BB27_9 Depth=2
	.loc	1 1496 0                # pbzip2.cpp:1496:0
.Ltmp491:
	movl	$1, 104(%rsp)
.Ltmp492:
	.loc	1 1440 0                # pbzip2.cpp:1440:0
	incl	56(%rsp)
	jmp	.LBB27_9
.LBB27_44:                              # %sw.bb112
                                        #   in Loop: Header=BB27_9 Depth=2
	.loc	1 1497 0                # pbzip2.cpp:1497:0
.Ltmp493:
	movl	$1, 76(%rsp)
.Ltmp494:
	.loc	1 1440 0                # pbzip2.cpp:1440:0
	incl	56(%rsp)
	jmp	.LBB27_9
.LBB27_37:                              # %if.else102
                                        #   in Loop: Header=BB27_9 Depth=2
	.loc	1 1484 0                # pbzip2.cpp:1484:0
.Ltmp495:
	movq	968(%rsp), %rax
	movq	(%rax), %rdi
	callq	_Z5usagePc
.Ltmp496:
	.loc	1 1486 0                # pbzip2.cpp:1486:0
	incl	56(%rsp)
.Ltmp497:
	.loc	1 1440 0                # pbzip2.cpp:1440:0
	incl	56(%rsp)
	jmp	.LBB27_9
.LBB27_24:                              # %if.end48
                                        #   in Loop: Header=BB27_19 Depth=3
	.loc	1 1450 0                # pbzip2.cpp:1450:0
.Ltmp498:
	incl	52(%rsp)
	.loc	1 1451 0                # pbzip2.cpp:1451:0
	incl	108(%rsp)
.Ltmp499:
.LBB27_19:                              # %while.cond
                                        #   Parent Loop BB27_6 Depth=1
                                        #     Parent Loop BB27_9 Depth=2
                                        # =>    This Inner Loop Header: Depth=3
	.loc	1 1445 0                # pbzip2.cpp:1445:0
	movslq	60(%rsp), %rax
	movq	968(%rsp), %rcx
	movq	(%rcx,%rax,8), %rax
	movslq	52(%rsp), %rcx
	movsbl	(%rax,%rcx), %ecx
	xorb	%al, %al
	testl	%ecx, %ecx
	je	.LBB27_21
# BB#20:                                # %land.rhs
                                        #   in Loop: Header=BB27_19 Depth=3
	movslq	52(%rsp), %rax
	cmpq	$255, %rax
	setb	%al
.LBB27_21:                              # %land.end
                                        #   in Loop: Header=BB27_19 Depth=3
	cmpb	$1, %al
	jne	.LBB27_25
# BB#22:                                # %while.body
                                        #   in Loop: Header=BB27_19 Depth=3
	.loc	1 1448 0                # pbzip2.cpp:1448:0
.Ltmp500:
	movslq	60(%rsp), %rax
	movq	968(%rsp), %rcx
	movq	(%rcx,%rax,8), %rax
	movslq	52(%rsp), %rcx
	movsbl	(%rax,%rcx), %eax
	cmpl	$48, %eax
	jl	.LBB27_25
# BB#23:                                # %lor.lhs.false
                                        #   in Loop: Header=BB27_19 Depth=3
	movslq	60(%rsp), %rax
	movq	968(%rsp), %rcx
	movq	(%rcx,%rax,8), %rax
	movslq	52(%rsp), %rcx
	movsbl	(%rax,%rcx), %eax
	cmpl	$57, %eax
	jle	.LBB27_24
.Ltmp501:
.LBB27_25:                              # %while.end
                                        #   in Loop: Header=BB27_9 Depth=2
	.loc	1 1453 0                # pbzip2.cpp:1453:0
	cmpl	$0, 108(%rsp)
	jne	.LBB27_27
# BB#26:                                # %if.then51
                                        #   in Loop: Header=BB27_9 Depth=2
	.loc	1 1454 0                # pbzip2.cpp:1454:0
	movq	968(%rsp), %rax
	movq	(%rax), %rdi
	callq	_Z5usagePc
.LBB27_27:                              # %if.end53
                                        #   in Loop: Header=BB27_9 Depth=2
	.loc	1 1455 0                # pbzip2.cpp:1455:0
	movslq	60(%rsp), %rax
	movq	968(%rsp), %rcx
	movq	(%rcx,%rax,8), %rax
	movslq	56(%rsp), %rcx
	leaq	1(%rax,%rcx), %rsi
	movslq	108(%rsp), %rdx
	movq	%rbx, %rdi
	callq	strncpy
	.loc	1 1456 0                # pbzip2.cpp:1456:0
	movq	%rbx, %rdi
	callq	atoi
	movl	%eax, 100(%rsp)
	cmpl	$4097, %eax             # imm = 0x1001
	jge	.LBB27_28
# BB#29:                                # %if.else
                                        #   in Loop: Header=BB27_9 Depth=2
	.loc	1 1462 0                # pbzip2.cpp:1462:0
	cmpl	$0, 100(%rsp)
	jle	.LBB27_30
# BB#31:                                # %if.end69
                                        #   in Loop: Header=BB27_9 Depth=2
	.loc	1 1467 0                # pbzip2.cpp:1467:0
	movl	108(%rsp), %eax
	addl	%eax, 56(%rsp)
.Ltmp502:
	.loc	1 1440 0                # pbzip2.cpp:1440:0
	incl	56(%rsp)
	jmp	.LBB27_9
.Ltmp503:
	.align	16, 0x90
.LBB27_55:                              # %if.else124
                                        #   in Loop: Header=BB27_6 Depth=1
	.loc	1 1514 0                # pbzip2.cpp:1514:0
	movslq	60(%rsp), %rax
	movq	968(%rsp), %rcx
	movq	(%rcx,%rax,8), %rax
	movq	936(%rsp), %rcx
	movslq	_ZL13FileListCount(%rip), %rdx
	movq	%rax, (%rcx,%rdx,8)
	.loc	1 1515 0                # pbzip2.cpp:1515:0
	incl	_ZL13FileListCount(%rip)
	jmp	.LBB27_56
.Ltmp504:
.LBB27_3:                               # %if.then3
	.loc	1 1422 0                # pbzip2.cpp:1422:0
	movq	stderr(%rip), %rdi
	movl	$.L.str55, %esi
	jmp	.LBB27_4
.Ltmp505:
.LBB27_57:                              # %for.end133
	.loc	1 1519 0                # pbzip2.cpp:1519:0
	cmpl	$0, _ZL13FileListCount(%rip)
	jne	.LBB27_59
# BB#58:                                # %if.then135
	.loc	1 1520 0                # pbzip2.cpp:1520:0
	movq	968(%rsp), %rax
	movq	(%rax), %rdi
	callq	_Z5usagePc
.LBB27_59:                              # %if.end137
	.loc	1 1522 0                # pbzip2.cpp:1522:0
	cmpl	$1, _ZL9QuietMode(%rip)
	je	.LBB27_61
# BB#60:                                # %if.then139
	.loc	1 1525 0                # pbzip2.cpp:1525:0
.Ltmp506:
	callq	_Z6bannerv
.Ltmp507:
.LBB27_61:                              # %if.end140
	.loc	1 1542 0                # pbzip2.cpp:1542:0
	movq	$0, _ZL13sigInFilename(%rip)
	.loc	1 1543 0                # pbzip2.cpp:1543:0
	movq	$0, _ZL14sigOutFilename(%rip)
	movl	$2, %edi
	.loc	1 1544 0                # pbzip2.cpp:1544:0
	movl	$_Z15mySignalCatcheri, %esi
	callq	signal
	movl	$15, %edi
	movl	$_Z15mySignalCatcheri, %esi
	.loc	1 1545 0                # pbzip2.cpp:1545:0
	callq	signal
	movl	$1, %edi
	.loc	1 1544 0                # pbzip2.cpp:1544:0
	movl	$_Z15mySignalCatcheri, %esi
	.loc	1 1547 0                # pbzip2.cpp:1547:0
	callq	signal
	.loc	1 1551 0                # pbzip2.cpp:1551:0
	cmpl	$1, _ZL9QuietMode(%rip)
	je	.LBB27_69
# BB#62:                                # %if.then145
	.loc	1 1553 0                # pbzip2.cpp:1553:0
.Ltmp508:
	cmpl	$1, 76(%rsp)
	je	.LBB27_68
# BB#63:                                # %if.then147
	.loc	1 1555 0                # pbzip2.cpp:1555:0
.Ltmp509:
	movl	100(%rsp), %edx
	movq	stderr(%rip), %rdi
	movl	$.L.str60, %esi
	xorb	%al, %al
	callq	fprintf
	.loc	1 1556 0                # pbzip2.cpp:1556:0
	cmpl	$1, 80(%rsp)
	je	.LBB27_68
# BB#64:                                # %if.then150
	.loc	1 1558 0                # pbzip2.cpp:1558:0
.Ltmp510:
	movl	_ZL12BWTblockSize(%rip), %edx
	movq	stderr(%rip), %rdi
	movl	$.L.str61, %esi
	xorb	%al, %al
	callq	fprintf
	.loc	1 1559 0                # pbzip2.cpp:1559:0
	cmpl	$99999, 84(%rsp)        # imm = 0x1869F
	jg	.LBB27_66
# BB#65:                                # %if.then153
	.loc	1 1560 0                # pbzip2.cpp:1560:0
	movl	84(%rsp), %edx
	movq	stderr(%rip), %rdi
	movl	$.L.str62, %esi
	jmp	.LBB27_67
.LBB27_66:                              # %if.else155
	.loc	1 1562 0                # pbzip2.cpp:1562:0
	movslq	84(%rsp), %rax
	imulq	$274877907, %rax, %rdx  # imm = 0x10624DD3
	movq	%rdx, %rax
	shrq	$63, %rax
	sarq	$38, %rdx
	addl	%eax, %edx
	movq	stderr(%rip), %rdi
	movl	$.L.str63, %esi
                                        # kill: EDX<def> EDX<kill> RDX<kill>
.LBB27_67:                              # %if.else155
	xorb	%al, %al
	callq	fprintf
.Ltmp511:
.LBB27_68:                              # %if.end159
	.loc	1 1565 0                # pbzip2.cpp:1565:0
	movq	stderr(%rip), %rdi
	movl	$.L.str64, %esi
	xorb	%al, %al
	callq	fprintf
.Ltmp512:
.LBB27_69:                              # %if.end161
	movl	$40, %edi
	.loc	1 1569 0                # pbzip2.cpp:1569:0
	callq	_Znwm
	movq	%rax, _ZL8OutMutex(%rip)
	testq	%rax, %rax
	je	.LBB27_70
# BB#71:                                # %if.end166
	.loc	1 1576 0                # pbzip2.cpp:1576:0
	movq	_ZL8OutMutex(%rip), %rdi
	xorl	%esi, %esi
	callq	pthread_mutex_init
	movl	$40, %edi
	.loc	1 1578 0                # pbzip2.cpp:1578:0
	callq	_Znwm
	movq	%rax, _ZL8MemMutex(%rip)
	testq	%rax, %rax
	je	.LBB27_72
# BB#73:                                # %if.end172
	.loc	1 1585 0                # pbzip2.cpp:1585:0
	movq	_ZL8MemMutex(%rip), %rdi
	xorl	%esi, %esi
	callq	pthread_mutex_init
	.loc	1 1588 0                # pbzip2.cpp:1588:0
	movl	100(%rsp), %edi
	callq	_Z9queueIniti
	movq	%rax, 960(%rsp)
	testq	%rax, %rax
	je	.LBB27_74
# BB#75:                                # %if.end178
	.loc	1 1596 0                # pbzip2.cpp:1596:0
.Ltmp513:
	movl	$0, 48(%rsp)
	leaq	656(%rsp), %rbx
	leaq	912(%rsp), %r14
	leaq	152(%rsp), %r13
	leaq	952(%rsp), %r12
	jmp	.LBB27_76
	.align	16, 0x90
.LBB27_165:                             # %for.inc487
                                        #   in Loop: Header=BB27_76 Depth=1
	incl	48(%rsp)
.LBB27_76:                              # %for.cond179
                                        # =>This Loop Header: Depth=1
                                        #     Child Loop BB27_132 Depth 2
                                        #     Child Loop BB27_148 Depth 2
                                        #     Child Loop BB27_138 Depth 2
	movl	48(%rsp), %eax
	cmpl	_ZL13FileListCount(%rip), %eax
	jge	.LBB27_166
# BB#77:                                # %for.body181
                                        #   in Loop: Header=BB27_76 Depth=1
	.loc	1 1598 0                # pbzip2.cpp:1598:0
.Ltmp514:
	movl	$0, _ZL7allDone(%rip)
	.loc	1 1601 0                # pbzip2.cpp:1601:0
	movslq	48(%rsp), %rax
	movq	936(%rsp), %rcx
	movq	(%rcx,%rax,8), %rax
	movq	%rax, 928(%rsp)
	.loc	1 1604 0                # pbzip2.cpp:1604:0
	cmpl	$0, 76(%rsp)
	je	.LBB27_86
# BB#78:                                # %if.then185
                                        #   in Loop: Header=BB27_76 Depth=1
	.loc	1 1606 0                # pbzip2.cpp:1606:0
.Ltmp515:
	cmpl	$1, _ZL9QuietMode(%rip)
	je	.LBB27_80
# BB#79:                                # %if.then187
                                        #   in Loop: Header=BB27_76 Depth=1
	.loc	1 1608 0                # pbzip2.cpp:1608:0
.Ltmp516:
	movl	_ZL13FileListCount(%rip), %ecx
	movq	stderr(%rip), %rdi
	movl	48(%rsp), %edx
	incl	%edx
	movl	$.L.str68, %esi
	xorb	%al, %al
	callq	fprintf
	.loc	1 1609 0                # pbzip2.cpp:1609:0
	movq	928(%rsp), %rdx
	movq	stderr(%rip), %rdi
	movl	$.L.str69, %esi
	xorb	%al, %al
	callq	fprintf
.Ltmp517:
.LBB27_80:                              # %if.end191
                                        #   in Loop: Header=BB27_76 Depth=1
	.loc	1 1611 0                # pbzip2.cpp:1611:0
	movq	928(%rsp), %rdi
	callq	_Z18testCompressedDataPc
	movl	%eax, 64(%rsp)
	testl	%eax, %eax
	jg	.LBB27_81
# BB#82:                                # %if.else195
                                        #   in Loop: Header=BB27_76 Depth=1
	.loc	1 1614 0                # pbzip2.cpp:1614:0
	cmpl	$0, 64(%rsp)
	jne	.LBB27_85
# BB#83:                                # %if.then197
                                        #   in Loop: Header=BB27_76 Depth=1
	.loc	1 1616 0                # pbzip2.cpp:1616:0
.Ltmp518:
	cmpl	$1, _ZL9QuietMode(%rip)
	je	.LBB27_163
# BB#84:                                # %if.then199
                                        #   in Loop: Header=BB27_76 Depth=1
	.loc	1 1617 0                # pbzip2.cpp:1617:0
	movq	stderr(%rip), %rdi
	movl	$.L.str70, %esi
	xorb	%al, %al
	callq	fprintf
	jmp	.LBB27_163
.Ltmp519:
	.align	16, 0x90
.LBB27_86:                              # %if.end209
                                        #   in Loop: Header=BB27_76 Depth=1
	.loc	1 1628 0                # pbzip2.cpp:1628:0
	movslq	48(%rsp), %rax
	movq	936(%rsp), %rcx
	movq	(%rcx,%rax,8), %rsi
	movq	%rbx, %rdi
	movl	$250, %edx
	callq	strncpy
	.loc	1 1629 0                # pbzip2.cpp:1629:0
	cmpl	$1, 80(%rsp)
	jne	.LBB27_100
# BB#87:                                # %if.then215
                                        #   in Loop: Header=BB27_76 Depth=1
	.loc	1 1632 0                # pbzip2.cpp:1632:0
.Ltmp520:
	movq	928(%rsp), %rdi
	xorl	%esi, %esi
	xorb	%al, %al
	callq	open
	movl	%eax, 96(%rsp)
	cmpl	$-1, %eax
	je	.LBB27_88
# BB#90:                                # %if.end221
                                        #   in Loop: Header=BB27_76 Depth=1
	vxorps	%xmm0, %xmm0, %xmm0
	.loc	1 1640 0                # pbzip2.cpp:1640:0
	vmovaps	%xmm0, 368(%rsp)
	vmovaps	%xmm0, 352(%rsp)
	vmovaps	%xmm0, 336(%rsp)
	movw	$0, 384(%rsp)
	.loc	1 1641 0                # pbzip2.cpp:1641:0
	movl	96(%rsp), %ebp
	movq	%r14, %rdi
	callq	strlen
	leaq	1(%rax), %rdx
	movl	%ebp, %edi
	leaq	336(%rsp), %rsi
	callq	read
	movq	%rax, 112(%rsp)
	.loc	1 1642 0                # pbzip2.cpp:1642:0
	movl	96(%rsp), %edi
	callq	close
	.loc	1 1643 0                # pbzip2.cpp:1643:0
	cmpq	$-1, 112(%rsp)
	je	.LBB27_92
# BB#91:                                # %lor.lhs.false229
                                        #   in Loop: Header=BB27_76 Depth=1
	movq	112(%rsp), %rbp
	movq	%r14, %rdi
	callq	strlen
	incq	%rax
	cmpq	%rax, %rbp
	jb	.LBB27_92
# BB#93:                                # %if.else237
                                        #   in Loop: Header=BB27_76 Depth=1
	leaq	336(%rsp), %rdi
	movl	$4, %esi
	.loc	1 1652 0                # pbzip2.cpp:1652:0
.Ltmp521:
	movq	%r14, %rdx
	movl	$3, %ecx
	callq	_Z6memstrPciS_i
	testq	%rax, %rax
	je	.LBB27_92
# BB#94:                                # %if.end245
                                        #   in Loop: Header=BB27_76 Depth=1
	.loc	1 1659 0                # pbzip2.cpp:1659:0
	movl	112(%rsp), %r15d
	movq	%r14, %rdi
	callq	strlen
	addl	$-4, %r15d
	leal	-4(%rax), %ecx
	leaq	340(%rsp), %rdi
	movl	%r15d, %esi
	leaq	916(%rsp), %rdx
	callq	_Z6memstrPciS_i
	testq	%rax, %rax
	je	.LBB27_92
# BB#95:                                # %if.end261
                                        #   in Loop: Header=BB27_76 Depth=1
	.loc	1 1666 0                # pbzip2.cpp:1666:0
	movsbl	339(%rsp), %eax
	cmpl	$49, %eax
	jl	.LBB27_92
# BB#96:                                # %land.lhs.true
                                        #   in Loop: Header=BB27_76 Depth=1
	movsbl	339(%rsp), %eax
	cmpl	$58, %eax
	jge	.LBB27_92
# BB#97:                                # %if.end274
                                        #   in Loop: Header=BB27_76 Depth=1
	.loc	1 1667 0                # pbzip2.cpp:1667:0
	movb	339(%rsp), %al
	movb	%al, _ZL16BWTblockSizeChar(%rip)
.Ltmp522:
	.loc	1 1677 0                # pbzip2.cpp:1677:0
	movq	%rbx, %rdi
	callq	strlen
	leaq	-4(%rax,%rbx), %rdi
	movl	$.L.str73, %esi
	movl	$4, %edx
	callq	strncasecmp
	.loc	1 1685 0                # pbzip2.cpp:1685:0
.Ltmp523:
	movq	%rbx, %rdi
.Ltmp524:
	.loc	1 1677 0                # pbzip2.cpp:1677:0
	testl	%eax, %eax
	jne	.LBB27_99
# BB#98:                                # %if.then281
                                        #   in Loop: Header=BB27_76 Depth=1
	.loc	1 1680 0                # pbzip2.cpp:1680:0
.Ltmp525:
	callq	strlen
	movb	$0, -4(%rax,%rbx)
	jmp	.LBB27_104
.Ltmp526:
	.align	16, 0x90
.LBB27_100:                             # %if.else290
                                        #   in Loop: Header=BB27_76 Depth=1
	.loc	1 1691 0                # pbzip2.cpp:1691:0
	movq	928(%rsp), %rdi
	callq	strlen
	movq	928(%rsp), %rcx
	leaq	-4(%rax,%rcx), %rdi
.Ltmp527:
	.loc	1 1677 0                # pbzip2.cpp:1677:0
	movl	$.L.str73, %esi
	movl	$4, %edx
.Ltmp528:
	.loc	1 1691 0                # pbzip2.cpp:1691:0
	callq	strncasecmp
	testl	%eax, %eax
	jne	.LBB27_102
# BB#101:                               # %if.then296
                                        #   in Loop: Header=BB27_76 Depth=1
	.loc	1 1693 0                # pbzip2.cpp:1693:0
.Ltmp529:
	movq	928(%rsp), %rdx
	movq	stderr(%rip), %rdi
	movl	$.L.str75, %esi
	jmp	.LBB27_89
.Ltmp530:
	.align	16, 0x90
.LBB27_85:                              # %if.else202
                                        #   in Loop: Header=BB27_76 Depth=1
	.loc	1 1620 0                # pbzip2.cpp:1620:0
	movl	$2, 44(%rsp)
.Ltmp531:
.LBB27_163:                             # %if.end482
                                        #   in Loop: Header=BB27_76 Depth=1
	.loc	1 1907 0                # pbzip2.cpp:1907:0
	cmpl	$1, _ZL9QuietMode(%rip)
	je	.LBB27_165
	jmp	.LBB27_164
.LBB27_102:                             # %if.end299
                                        #   in Loop: Header=BB27_76 Depth=1
	.loc	1 1697 0                # pbzip2.cpp:1697:0
.Ltmp532:
	movq	%rbx, %rdi
.Ltmp533:
	.loc	1 1677 0                # pbzip2.cpp:1677:0
	movl	$.L.str73, %esi
.Ltmp534:
.LBB27_103:                             # %if.end299
                                        #   in Loop: Header=BB27_76 Depth=1
	.loc	1 1697 0                # pbzip2.cpp:1697:0
	callq	strcat
.Ltmp535:
.LBB27_104:                             # %if.end302
                                        #   in Loop: Header=BB27_76 Depth=1
	.loc	1 1701 0                # pbzip2.cpp:1701:0
	movq	928(%rsp), %rax
	movq	%rax, _ZL13sigInFilename(%rip)
	.loc	1 1702 0                # pbzip2.cpp:1702:0
	movq	%rbx, _ZL14sigOutFilename(%rip)
	.loc	1 1705 0                # pbzip2.cpp:1705:0
	movq	928(%rsp), %rdi
	xorl	%esi, %esi
	xorb	%al, %al
	callq	open
	movl	%eax, 96(%rsp)
	cmpl	$-1, %eax
	jne	.LBB27_105
.LBB27_88:                              # %if.then218
                                        #   in Loop: Header=BB27_76 Depth=1
	.loc	1 1636 0                # pbzip2.cpp:1636:0
.Ltmp536:
	movq	928(%rsp), %rdx
	movq	stderr(%rip), %rdi
	movl	$.L.str71, %esi
	jmp	.LBB27_89
.Ltmp537:
.LBB27_92:                              # %if.then234
                                        #   in Loop: Header=BB27_76 Depth=1
	.loc	1 1645 0                # pbzip2.cpp:1645:0
	movq	928(%rsp), %rdx
	movq	stderr(%rip), %rdi
	movl	$.L.str72, %esi
	jmp	.LBB27_89
.Ltmp538:
.LBB27_105:                             # %if.end309
                                        #   in Loop: Header=BB27_76 Depth=1
	.loc	1 1715 0                # pbzip2.cpp:1715:0
	movl	96(%rsp), %edi
	movq	%r13, %rsi
	callq	fstat
	movl	176(%rsp), %eax
	movl	$61440, %ecx            # imm = 0xF000
	.loc	1 1717 0                # pbzip2.cpp:1717:0
	andl	%ecx, %eax
	cmpl	$16384, %eax            # imm = 0x4000
	jne	.LBB27_107
# BB#106:                               # %if.then312
                                        #   in Loop: Header=BB27_76 Depth=1
	.loc	1 1719 0                # pbzip2.cpp:1719:0
.Ltmp539:
	movq	928(%rsp), %rdx
	movq	stderr(%rip), %rdi
	movl	$.L.str76, %esi
	jmp	.LBB27_89
.Ltmp540:
.LBB27_107:                             # %if.end315
                                        #   in Loop: Header=BB27_76 Depth=1
	movl	176(%rsp), %eax
	.loc	1 1724 0                # pbzip2.cpp:1724:0
	andl	%ecx, %eax
	cmpl	$32768, %eax            # imm = 0x8000
	jne	.LBB27_108
# BB#109:                               # %if.end322
                                        #   in Loop: Header=BB27_76 Depth=1
	.loc	1 1731 0                # pbzip2.cpp:1731:0
	movq	200(%rsp), %rax
	movq	%rax, 120(%rsp)
	testq	%rax, %rax
	.loc	1 1733 0                # pbzip2.cpp:1733:0
	jne	.LBB27_111
# BB#110:                               # %if.then324
                                        #   in Loop: Header=BB27_76 Depth=1
	.loc	1 1735 0                # pbzip2.cpp:1735:0
.Ltmp541:
	movq	928(%rsp), %rdx
	movq	stderr(%rip), %rdi
	movl	$.L.str78, %esi
	jmp	.LBB27_89
.Ltmp542:
.LBB27_108:                             # %if.then319
                                        #   in Loop: Header=BB27_76 Depth=1
	.loc	1 1726 0                # pbzip2.cpp:1726:0
	movq	928(%rsp), %rdx
	movq	stderr(%rip), %rdi
	movl	$.L.str77, %esi
	jmp	.LBB27_89
.Ltmp543:
.LBB27_111:                             # %if.end327
                                        #   in Loop: Header=BB27_76 Depth=1
	.loc	1 1741 0                # pbzip2.cpp:1741:0
	movq	928(%rsp), %rdi
	callq	_Z15getFileMetaDataPc
	testl	%eax, %eax
	je	.LBB27_113
# BB#112:                               # %if.then330
                                        #   in Loop: Header=BB27_76 Depth=1
	.loc	1 1743 0                # pbzip2.cpp:1743:0
.Ltmp544:
	movq	928(%rsp), %rdx
	movq	stderr(%rip), %rdi
	movl	$.L.str79, %esi
.Ltmp545:
	.align	16, 0x90
.LBB27_89:                              # %if.then218
                                        #   in Loop: Header=BB27_76 Depth=1
	xorb	%al, %al
	.loc	1 1636 0                # pbzip2.cpp:1636:0
.Ltmp546:
	callq	fprintf
.Ltmp547:
.LBB27_164:                             # %if.then484
                                        #   in Loop: Header=BB27_76 Depth=1
	.loc	1 1908 0                # pbzip2.cpp:1908:0
	movq	stderr(%rip), %rdi
	.loc	1 1623 0                # pbzip2.cpp:1623:0
.Ltmp548:
	movl	$.L.str64, %esi
	xorb	%al, %al
.Ltmp549:
	.loc	1 1908 0                # pbzip2.cpp:1908:0
	callq	fprintf
	jmp	.LBB27_165
.LBB27_113:                             # %if.end333
                                        #   in Loop: Header=BB27_76 Depth=1
	.loc	1 1749 0                # pbzip2.cpp:1749:0
	cmpl	$1, 68(%rsp)
	je	.LBB27_117
# BB#114:                               # %land.lhs.true335
                                        #   in Loop: Header=BB27_76 Depth=1
	cmpl	$0, _ZL12OutputStdOut(%rip)
	jne	.LBB27_117
# BB#115:                               # %if.then337
                                        #   in Loop: Header=BB27_76 Depth=1
	.loc	1 1751 0                # pbzip2.cpp:1751:0
.Ltmp550:
	movq	%rbx, %rdi
	xorl	%esi, %esi
	xorb	%al, %al
	callq	open
	movl	%eax, 92(%rsp)
	cmpl	$-1, %eax
	je	.LBB27_117
# BB#116:                               # %if.then341
                                        #   in Loop: Header=BB27_76 Depth=1
	.loc	1 1755 0                # pbzip2.cpp:1755:0
.Ltmp551:
	movq	stderr(%rip), %rdi
	movl	$.L.str80, %esi
	movq	%rbx, %rdx
	xorb	%al, %al
	callq	fprintf
	.loc	1 1756 0                # pbzip2.cpp:1756:0
	movq	stderr(%rip), %rdi
.Ltmp552:
	.loc	1 1623 0                # pbzip2.cpp:1623:0
	movl	$.L.str64, %esi
	xorb	%al, %al
.Ltmp553:
	.loc	1 1756 0                # pbzip2.cpp:1756:0
	callq	fprintf
	.loc	1 1757 0                # pbzip2.cpp:1757:0
	movl	92(%rsp), %edi
	callq	close
.Ltmp554:
	.loc	1 1596 0                # pbzip2.cpp:1596:0
	incl	48(%rsp)
	jmp	.LBB27_76
.LBB27_117:                             # %if.end347
                                        #   in Loop: Header=BB27_76 Depth=1
	.loc	1 1762 0                # pbzip2.cpp:1762:0
.Ltmp555:
	cmpl	$1, 104(%rsp)
	jne	.LBB27_119
# BB#118:                               # %if.then349
                                        #   in Loop: Header=BB27_76 Depth=1
	.loc	1 1765 0                # pbzip2.cpp:1765:0
.Ltmp556:
	movq	120(%rsp), %rax
	movslq	100(%rsp), %rcx
	cqto
	idivq	%rcx
	movl	%eax, 84(%rsp)
.Ltmp557:
.LBB27_119:                             # %if.end353
                                        #   in Loop: Header=BB27_76 Depth=1
	.loc	1 1769 0                # pbzip2.cpp:1769:0
	cmpl	$1, _ZL9QuietMode(%rip)
	je	.LBB27_126
# BB#120:                               # %if.then355
                                        #   in Loop: Header=BB27_76 Depth=1
	.loc	1 1771 0                # pbzip2.cpp:1771:0
.Ltmp558:
	movl	_ZL13FileListCount(%rip), %ecx
	movq	stderr(%rip), %rdi
	movl	48(%rsp), %edx
	incl	%edx
	movl	$.L.str81, %esi
	xorb	%al, %al
	callq	fprintf
	.loc	1 1772 0                # pbzip2.cpp:1772:0
	movq	928(%rsp), %rdx
	movq	stderr(%rip), %rdi
	movl	$.L.str82, %esi
	xorb	%al, %al
	callq	fprintf
	.loc	1 1773 0                # pbzip2.cpp:1773:0
	cmpl	$0, _ZL12OutputStdOut(%rip)
	jne	.LBB27_122
# BB#121:                               # %if.then360
                                        #   in Loop: Header=BB27_76 Depth=1
	.loc	1 1774 0                # pbzip2.cpp:1774:0
	movq	stderr(%rip), %rdi
	movl	$.L.str83, %esi
	movq	%rbx, %rdx
	xorb	%al, %al
	callq	fprintf
	jmp	.LBB27_123
.Ltmp559:
.LBB27_99:                              # %if.else286
                                        #   in Loop: Header=BB27_76 Depth=1
	.loc	1 1685 0                # pbzip2.cpp:1685:0
	movl	$.L.str74, %esi
	jmp	.LBB27_103
.Ltmp560:
.LBB27_122:                             # %if.else363
                                        #   in Loop: Header=BB27_76 Depth=1
	.loc	1 1776 0                # pbzip2.cpp:1776:0
	movq	stderr(%rip), %rdi
	movl	$.L.str84, %esi
	xorb	%al, %al
	callq	fprintf
.LBB27_123:                             # %if.end365
                                        #   in Loop: Header=BB27_76 Depth=1
	.loc	1 1778 0                # pbzip2.cpp:1778:0
	cmpl	$1, 80(%rsp)
	jne	.LBB27_125
# BB#124:                               # %if.then367
                                        #   in Loop: Header=BB27_76 Depth=1
	.loc	1 1779 0                # pbzip2.cpp:1779:0
	movsbl	_ZL16BWTblockSizeChar(%rip), %edx
	movq	stderr(%rip), %rdi
	movl	$.L.str85, %esi
	xorb	%al, %al
	callq	fprintf
.LBB27_125:                             # %if.end370
                                        #   in Loop: Header=BB27_76 Depth=1
	.loc	1 1780 0                # pbzip2.cpp:1780:0
	movq	120(%rsp), %rdx
	movq	stderr(%rip), %rdi
	movl	$.L.str86, %esi
	xorb	%al, %al
	callq	fprintf
.Ltmp561:
.LBB27_126:                             # %if.end372
                                        #   in Loop: Header=BB27_76 Depth=1
	.loc	1 1783 0                # pbzip2.cpp:1783:0
	cmpl	$1, 80(%rsp)
	jne	.LBB27_128
# BB#127:                               # %if.then374
                                        #   in Loop: Header=BB27_76 Depth=1
	.loc	1 1785 0                # pbzip2.cpp:1785:0
.Ltmp562:
	movl	$0, 88(%rsp)
	jmp	.LBB27_129
.Ltmp563:
.LBB27_128:                             # %if.else375
                                        #   in Loop: Header=BB27_76 Depth=1
	.loc	1 1790 0                # pbzip2.cpp:1790:0
	movslq	84(%rsp), %rcx
	movq	120(%rsp), %rax
	leaq	-1(%rax,%rcx), %rax
	cqto
	idivq	%rcx
	movl	%eax, 88(%rsp)
.Ltmp564:
.LBB27_129:                             # %if.end382
                                        #   in Loop: Header=BB27_76 Depth=1
	.loc	1 1796 0                # pbzip2.cpp:1796:0
	movl	88(%rsp), %eax
	movl	%eax, _ZL9NumBlocks(%rip)
	.loc	1 1798 0                # pbzip2.cpp:1798:0
	movslq	88(%rsp), %rsi
	vxorps	%xmm0, %xmm0, %xmm0
	vmovaps	%xmm0, 16(%rsp)
	movl	24(%rsp), %ecx
	movq	16(%rsp), %rdx
	movl	$_ZL12OutputBuffer, %edi
	callq	_ZNSt6vectorI7outBuffSaIS0_EE6resizeEmS0_
	movl	$_ZL12OutputBuffer, %edi
	.loc	1 1800 0                # pbzip2.cpp:1800:0
	callq	_ZNKSt6vectorI7outBuffSaIS0_EE4sizeEv
	movslq	88(%rsp), %rcx
	cmpq	%rcx, %rax
	jne	.LBB27_130
# BB#131:                               # %if.end389
                                        #   in Loop: Header=BB27_76 Depth=1
	.loc	1 1806 0                # pbzip2.cpp:1806:0
.Ltmp565:
	movl	$0, 60(%rsp)
	jmp	.LBB27_132
.LBB27_133:                             # %for.inc397
                                        #   in Loop: Header=BB27_132 Depth=2
	.loc	1 1808 0                # pbzip2.cpp:1808:0
.Ltmp566:
	movslq	60(%rsp), %rsi
.Ltmp567:
	.loc	1 1798 0                # pbzip2.cpp:1798:0
	movl	$_ZL12OutputBuffer, %edi
	.loc	1 1808 0                # pbzip2.cpp:1808:0
.Ltmp568:
	callq	_ZNSt6vectorI7outBuffSaIS0_EEixEm
	movq	$0, (%rax)
	.loc	1 1809 0                # pbzip2.cpp:1809:0
	movslq	60(%rsp), %rsi
.Ltmp569:
	.loc	1 1798 0                # pbzip2.cpp:1798:0
	movl	$_ZL12OutputBuffer, %edi
	.loc	1 1809 0                # pbzip2.cpp:1809:0
.Ltmp570:
	callq	_ZNSt6vectorI7outBuffSaIS0_EEixEm
	movl	$0, 8(%rax)
.Ltmp571:
	.loc	1 1806 0                # pbzip2.cpp:1806:0
	incl	60(%rsp)
.LBB27_132:                             # %for.cond390
                                        #   Parent Loop BB27_76 Depth=1
                                        # =>  This Inner Loop Header: Depth=2
	movl	60(%rsp), %eax
	cmpl	88(%rsp), %eax
	jl	.LBB27_133
.Ltmp572:
# BB#134:                               # %for.end399
                                        #   in Loop: Header=BB27_76 Depth=1
	.loc	1 1812 0                # pbzip2.cpp:1812:0
	cmpl	$1, 80(%rsp)
	jne	.LBB27_145
# BB#135:                               # %if.then401
                                        #   in Loop: Header=BB27_76 Depth=1
	.loc	1 1814 0                # pbzip2.cpp:1814:0
.Ltmp573:
	cmpl	$1, _ZL9QuietMode(%rip)
	je	.LBB27_137
# BB#136:                               # %if.then403
                                        #   in Loop: Header=BB27_76 Depth=1
	.loc	1 1815 0                # pbzip2.cpp:1815:0
	movq	stderr(%rip), %rdi
	movl	$.L.str88, %esi
	xorb	%al, %al
	callq	fprintf
.LBB27_137:                             # %if.end405
                                        #   in Loop: Header=BB27_76 Depth=1
	.loc	1 1816 0                # pbzip2.cpp:1816:0
.Ltmp574:
	movl	$0, 60(%rsp)
	jmp	.LBB27_138
.Ltmp575:
.LBB27_145:                             # %if.else424
                                        #   in Loop: Header=BB27_76 Depth=1
	.loc	1 1838 0                # pbzip2.cpp:1838:0
	cmpl	$1, _ZL9QuietMode(%rip)
	je	.LBB27_147
# BB#146:                               # %if.then426
                                        #   in Loop: Header=BB27_76 Depth=1
	.loc	1 1839 0                # pbzip2.cpp:1839:0
	movq	stderr(%rip), %rdi
	movl	$.L.str91, %esi
	xorb	%al, %al
	callq	fprintf
.LBB27_147:                             # %if.end428
                                        #   in Loop: Header=BB27_76 Depth=1
	.loc	1 1840 0                # pbzip2.cpp:1840:0
.Ltmp576:
	movl	$0, 60(%rsp)
	jmp	.LBB27_148
.Ltmp577:
.LBB27_141:                             # %for.inc414
                                        #   in Loop: Header=BB27_138 Depth=2
	.loc	1 1816 0                # pbzip2.cpp:1816:0
	incl	60(%rsp)
.LBB27_138:                             # %for.cond406
                                        #   Parent Loop BB27_76 Depth=1
                                        # =>  This Inner Loop Header: Depth=2
	movl	60(%rsp), %eax
	cmpl	100(%rsp), %eax
	jge	.LBB27_142
# BB#139:                               # %for.body408
                                        #   in Loop: Header=BB27_138 Depth=2
	.loc	1 1818 0                # pbzip2.cpp:1818:0
.Ltmp578:
	movq	960(%rsp), %rcx
	movq	%r12, %rdi
	xorl	%esi, %esi
	movl	$_Z19consumer_decompressPv, %edx
	callq	pthread_create
	movl	%eax, 64(%rsp)
	testl	%eax, %eax
	je	.LBB27_141
	jmp	.LBB27_140
.Ltmp579:
.LBB27_150:                             # %for.inc437
                                        #   in Loop: Header=BB27_148 Depth=2
	.loc	1 1840 0                # pbzip2.cpp:1840:0
	incl	60(%rsp)
.LBB27_148:                             # %for.cond429
                                        #   Parent Loop BB27_76 Depth=1
                                        # =>  This Inner Loop Header: Depth=2
	movl	60(%rsp), %eax
	cmpl	100(%rsp), %eax
	jge	.LBB27_151
# BB#149:                               # %for.body431
                                        #   in Loop: Header=BB27_148 Depth=2
	.loc	1 1842 0                # pbzip2.cpp:1842:0
.Ltmp580:
	movq	960(%rsp), %rcx
	movq	%r12, %rdi
	xorl	%esi, %esi
	movl	$_Z8consumerPv, %edx
	callq	pthread_create
	movl	%eax, 64(%rsp)
	testl	%eax, %eax
	jne	.LBB27_140
	jmp	.LBB27_150
.Ltmp581:
.LBB27_142:                             # %for.end416
                                        #   in Loop: Header=BB27_76 Depth=1
	leaq	944(%rsp), %rdi
	xorl	%esi, %esi
	.loc	1 1826 0                # pbzip2.cpp:1826:0
.Ltmp582:
	movl	$_Z10fileWriterPv, %edx
	movq	%rbx, %rcx
	callq	pthread_create
	movl	%eax, 64(%rsp)
	testl	%eax, %eax
	jne	.LBB27_143
# BB#144:                               # %if.end422
                                        #   in Loop: Header=BB27_76 Depth=1
	.loc	1 1834 0                # pbzip2.cpp:1834:0
	movq	960(%rsp), %rdx
	movq	120(%rsp), %rsi
	movl	96(%rsp), %edi
	callq	_Z19producer_decompressilP5queue
	jmp	.LBB27_153
.LBB27_151:                             # %for.end439
                                        #   in Loop: Header=BB27_76 Depth=1
	leaq	944(%rsp), %rdi
	xorl	%esi, %esi
	.loc	1 1826 0                # pbzip2.cpp:1826:0
	movl	$_Z10fileWriterPv, %edx
.Ltmp583:
	.loc	1 1850 0                # pbzip2.cpp:1850:0
	movq	%rbx, %rcx
	callq	pthread_create
	movl	%eax, 64(%rsp)
	testl	%eax, %eax
	jne	.LBB27_143
# BB#152:                               # %if.end445
                                        #   in Loop: Header=BB27_76 Depth=1
	.loc	1 1858 0                # pbzip2.cpp:1858:0
	movq	960(%rsp), %rcx
	movl	84(%rsp), %edx
	movq	120(%rsp), %rsi
	movl	96(%rsp), %edi
	callq	_Z8produceriliP5queue
.Ltmp584:
.LBB27_153:                             # %if.end447
                                        #   in Loop: Header=BB27_76 Depth=1
	.loc	1 1862 0                # pbzip2.cpp:1862:0
	movq	944(%rsp), %rdi
	xorl	%esi, %esi
	callq	pthread_join
	.loc	1 1864 0                # pbzip2.cpp:1864:0
	cmpl	$0, _ZL12OutputStdOut(%rip)
	jne	.LBB27_158
# BB#154:                               # %if.then450
                                        #   in Loop: Header=BB27_76 Depth=1
	.loc	1 1866 0                # pbzip2.cpp:1866:0
.Ltmp585:
	movq	$0, 200(%rsp)
	.loc	1 1868 0                # pbzip2.cpp:1868:0
	movq	%rbx, %rdi
	movq	%r13, %rsi
	callq	stat
	.loc	1 1870 0                # pbzip2.cpp:1870:0
	cmpq	$0, 200(%rsp)
	jne	.LBB27_156
# BB#155:                               # %if.then456
                                        #   in Loop: Header=BB27_76 Depth=1
	.loc	1 1872 0                # pbzip2.cpp:1872:0
.Ltmp586:
	movq	stderr(%rip), %rdi
	movl	$.L.str92, %esi
	xorb	%al, %al
	callq	fprintf
	.loc	1 1873 0                # pbzip2.cpp:1873:0
	movq	%rbx, %rdi
	callq	remove
	jmp	.LBB27_158
.Ltmp587:
.LBB27_156:                             # %if.else460
                                        #   in Loop: Header=BB27_76 Depth=1
	.loc	1 1878 0                # pbzip2.cpp:1878:0
	movq	%rbx, %rdi
	callq	_Z17writeFileMetaDataPc
	testl	%eax, %eax
	je	.LBB27_158
# BB#157:                               # %if.then464
                                        #   in Loop: Header=BB27_76 Depth=1
	.loc	1 1879 0                # pbzip2.cpp:1879:0
	movq	928(%rsp), %rdx
	movq	stderr(%rip), %rdi
	movl	$.L.str93, %esi
	xorb	%al, %al
	callq	fprintf
.Ltmp588:
.LBB27_158:                             # %if.end468
                                        #   in Loop: Header=BB27_76 Depth=1
	.loc	1 1884 0                # pbzip2.cpp:1884:0
	movq	$0, _ZL13sigInFilename(%rip)
	.loc	1 1885 0                # pbzip2.cpp:1885:0
	movq	$0, _ZL14sigOutFilename(%rip)
	.loc	1 1888 0                # pbzip2.cpp:1888:0
	cmpl	$1, 72(%rsp)
	je	.LBB27_162
# BB#159:                               # %if.then470
                                        #   in Loop: Header=BB27_76 Depth=1
	.loc	1 1890 0                # pbzip2.cpp:1890:0
.Ltmp589:
	cmpl	$0, _ZL12OutputStdOut(%rip)
	jne	.LBB27_161
# BB#160:                               # %if.then472
                                        #   in Loop: Header=BB27_76 Depth=1
	.loc	1 1893 0                # pbzip2.cpp:1893:0
.Ltmp590:
	movq	%rbx, %rdi
	movq	%r13, %rsi
	callq	stat
	testl	%eax, %eax
	jne	.LBB27_162
.Ltmp591:
.LBB27_161:                             # %if.else479
                                        #   in Loop: Header=BB27_76 Depth=1
	.loc	1 1897 0                # pbzip2.cpp:1897:0
	movq	928(%rsp), %rdi
	callq	remove
.Ltmp592:
.LBB27_162:                             # %if.end482
                                        #   in Loop: Header=BB27_76 Depth=1
	.loc	1 1798 0                # pbzip2.cpp:1798:0
	movl	$_ZL12OutputBuffer, %edi
	.loc	1 1901 0                # pbzip2.cpp:1901:0
	callq	_ZNSt6vectorI7outBuffSaIS0_EE5clearEv
	.loc	1 1902 0                # pbzip2.cpp:1902:0
	movq	960(%rsp), %rax
	movl	$1, 44(%rax)
	.loc	1 1903 0                # pbzip2.cpp:1903:0
	movq	960(%rsp), %rax
	movl	$0, 40(%rax)
	.loc	1 1904 0                # pbzip2.cpp:1904:0
	movq	960(%rsp), %rax
	movq	$0, 24(%rax)
	.loc	1 1905 0                # pbzip2.cpp:1905:0
	movq	960(%rsp), %rax
	movq	$0, 32(%rax)
	jmp	.LBB27_163
.Ltmp593:
.LBB27_70:                              # %if.then164
	.loc	1 1573 0                # pbzip2.cpp:1573:0
	movq	stderr(%rip), %rdi
	movl	$.L.str65, %esi
	jmp	.LBB27_4
.Ltmp594:
.LBB27_72:                              # %if.then170
	.loc	1 1582 0                # pbzip2.cpp:1582:0
	movq	stderr(%rip), %rdi
	movl	$.L.str66, %esi
	jmp	.LBB27_4
.Ltmp595:
.LBB27_74:                              # %if.then176
	.loc	1 1591 0                # pbzip2.cpp:1591:0
	movq	stderr(%rip), %rdi
	movl	$.L.str67, %esi
.Ltmp596:
.LBB27_4:                               # %if.then3
	xorb	%al, %al
	.loc	1 1422 0                # pbzip2.cpp:1422:0
.Ltmp597:
	callq	fprintf
	.loc	1 1423 0                # pbzip2.cpp:1423:0
	movl	$1, 980(%rsp)
.Ltmp598:
.LBB27_178:                             # %return
	.loc	1 1950 0                # pbzip2.cpp:1950:0
	movl	980(%rsp), %eax
	addq	$984, %rsp              # imm = 0x3D8
	popq	%rbx
	popq	%r12
	popq	%r13
	popq	%r14
	popq	%r15
	popq	%rbp
	ret
.LBB27_166:                             # %for.end489
	.loc	1 1912 0                # pbzip2.cpp:1912:0
	movq	960(%rsp), %rdi
	callq	_Z11queueDeleteP5queue
	.loc	1 1913 0                # pbzip2.cpp:1913:0
	movq	$0, 960(%rsp)
	.loc	1 1914 0                # pbzip2.cpp:1914:0
	cmpq	$0, _ZL8OutMutex(%rip)
	je	.LBB27_170
# BB#167:                               # %if.then491
	.loc	1 1916 0                # pbzip2.cpp:1916:0
.Ltmp599:
	movq	_ZL8OutMutex(%rip), %rdi
	callq	pthread_mutex_destroy
	.loc	1 1917 0                # pbzip2.cpp:1917:0
	movq	_ZL8OutMutex(%rip), %rdi
	testq	%rdi, %rdi
	je	.LBB27_169
# BB#168:                               # %delete.notnull
	callq	_ZdlPv
.LBB27_169:                             # %delete.end
	.loc	1 1918 0                # pbzip2.cpp:1918:0
	movq	$0, _ZL8OutMutex(%rip)
.Ltmp600:
.LBB27_170:                             # %if.end493
	.loc	1 1920 0                # pbzip2.cpp:1920:0
	cmpq	$0, _ZL8MemMutex(%rip)
	je	.LBB27_174
# BB#171:                               # %if.then495
	.loc	1 1922 0                # pbzip2.cpp:1922:0
.Ltmp601:
	movq	_ZL8MemMutex(%rip), %rdi
	callq	pthread_mutex_destroy
	.loc	1 1923 0                # pbzip2.cpp:1923:0
	movq	_ZL8MemMutex(%rip), %rdi
	testq	%rdi, %rdi
	je	.LBB27_173
# BB#172:                               # %delete.notnull498
	callq	_ZdlPv
.LBB27_173:                             # %delete.end499
	.loc	1 1924 0                # pbzip2.cpp:1924:0
	movq	$0, _ZL8MemMutex(%rip)
.Ltmp602:
.LBB27_174:                             # %if.end500
	leaq	304(%rsp), %rdi
	leaq	296(%rsp), %rsi
	.loc	1 1929 0                # pbzip2.cpp:1929:0
	callq	gettimeofday
	.loc	1 1943 0                # pbzip2.cpp:1943:0
	vcvtsi2sdq	328(%rsp), %xmm0, %xmm1
	vmovsd	.LCPI27_0(%rip), %xmm0
	vdivsd	%xmm0, %xmm1, %xmm1
	vcvtsi2sdq	320(%rsp), %xmm0, %xmm2
	vaddsd	%xmm1, %xmm2, %xmm1
	vmovsd	%xmm1, 136(%rsp)
	.loc	1 1944 0                # pbzip2.cpp:1944:0
	vcvtsi2sdq	312(%rsp), %xmm0, %xmm1
	vdivsd	%xmm0, %xmm1, %xmm0
	vcvtsi2sdq	304(%rsp), %xmm0, %xmm1
	vaddsd	%xmm0, %xmm1, %xmm0
	vmovsd	%xmm0, 128(%rsp)
	.loc	1 1945 0                # pbzip2.cpp:1945:0
	vsubsd	136(%rsp), %xmm0, %xmm0
	vmovsd	%xmm0, 144(%rsp)
	.loc	1 1946 0                # pbzip2.cpp:1946:0
	cmpl	$1, _ZL9QuietMode(%rip)
	je	.LBB27_176
# BB#175:                               # %if.then514
	.loc	1 1947 0                # pbzip2.cpp:1947:0
	vmovsd	144(%rsp), %xmm0
	movq	stderr(%rip), %rdi
	movl	$.L.str94, %esi
	movb	$1, %al
	callq	fprintf
.LBB27_176:                             # %if.end516
	.loc	1 1949 0                # pbzip2.cpp:1949:0
	movl	44(%rsp), %eax
	jmp	.LBB27_177
.LBB27_81:                              # %if.then194
	.loc	1 1613 0                # pbzip2.cpp:1613:0
.Ltmp603:
	movl	64(%rsp), %eax
.Ltmp604:
.LBB27_177:                             # %if.end516
	.loc	1 1949 0                # pbzip2.cpp:1949:0
	movl	%eax, 980(%rsp)
	jmp	.LBB27_178
.LBB27_15:                              # %sw.bb113
	.loc	1 1498 0                # pbzip2.cpp:1498:0
.Ltmp605:
	callq	_Z6bannerv
	xorl	%edi, %edi
	callq	exit
.LBB27_35:                              # %if.then93
	.loc	1 1477 0                # pbzip2.cpp:1477:0
.Ltmp606:
	movq	stderr(%rip), %rdi
	movl	$.L.str59, %esi
	jmp	.LBB27_4
.Ltmp607:
.LBB27_28:                              # %if.then63
	.loc	1 1459 0                # pbzip2.cpp:1459:0
	movq	stderr(%rip), %rdi
	movl	$.L.str57, %esi
	jmp	.LBB27_4
.Ltmp608:
.LBB27_30:                              # %if.then66
	.loc	1 1464 0                # pbzip2.cpp:1464:0
	movq	stderr(%rip), %rdi
	movl	$.L.str58, %esi
	jmp	.LBB27_4
.Ltmp609:
.LBB27_130:                             # %if.then387
	.loc	1 1802 0                # pbzip2.cpp:1802:0
	movq	stderr(%rip), %rdi
	movl	$.L.str87, %esi
	jmp	.LBB27_4
.Ltmp610:
.LBB27_140:                             # %if.then411
	.loc	1 1821 0                # pbzip2.cpp:1821:0
	movl	64(%rsp), %ecx
	movl	60(%rsp), %edx
	movq	stderr(%rip), %rdi
	movl	$.L.str89, %esi
	xorb	%al, %al
	callq	fprintf
	.loc	1 1822 0                # pbzip2.cpp:1822:0
	movl	$1, 980(%rsp)
	jmp	.LBB27_178
.Ltmp611:
.LBB27_143:                             # %if.then420
	.loc	1 1829 0                # pbzip2.cpp:1829:0
	movl	64(%rsp), %edx
	movq	stderr(%rip), %rdi
	movl	$.L.str90, %esi
	xorb	%al, %al
	callq	fprintf
	.loc	1 1830 0                # pbzip2.cpp:1830:0
	movl	$1, 980(%rsp)
	jmp	.LBB27_178
.Ltmp612:
.Ltmp613:
	.size	main, .Ltmp613-main
.Lfunc_end27:
	.cfi_endproc
	.section	.rodata,"a",@progbits
	.align	8
.LJTI27_0:
	.quad	.LBB27_32
	.quad	.LBB27_39
	.quad	.LBB27_38
	.quad	.LBB27_54
	.quad	.LBB27_40
	.quad	.LBB27_54
	.quad	.LBB27_54
	.quad	.LBB27_54
	.quad	.LBB27_54
	.quad	.LBB27_41
	.quad	.LBB27_54
	.quad	.LBB27_54
	.quad	.LBB27_54
	.quad	.LBB27_54
	.quad	.LBB27_18
	.quad	.LBB27_42
	.quad	.LBB27_43
	.quad	.LBB27_54
	.quad	.LBB27_44
.LJTI27_1:
	.quad	.LBB27_45
	.quad	.LBB27_46
	.quad	.LBB27_47
	.quad	.LBB27_48
	.quad	.LBB27_49
	.quad	.LBB27_50
	.quad	.LBB27_51
	.quad	.LBB27_52
	.quad	.LBB27_53

	.section	.text._ZNSt6vectorI7outBuffSaIS0_EE6resizeEmS0_,"axG",@progbits,_ZNSt6vectorI7outBuffSaIS0_EE6resizeEmS0_,comdat
	.weak	_ZNSt6vectorI7outBuffSaIS0_EE6resizeEmS0_
	.align	16, 0x90
	.type	_ZNSt6vectorI7outBuffSaIS0_EE6resizeEmS0_,@function
_ZNSt6vectorI7outBuffSaIS0_EE6resizeEmS0_: # @_ZNSt6vectorI7outBuffSaIS0_EE6resizeEmS0_
	.cfi_startproc
.Lfunc_begin28:
	.loc	5 705 0                 # /usr/lib/gcc/x86_64-linux-gnu/4.8/../../../../include/c++/4.8/bits/stl_vector.h:705:0
# BB#0:                                 # %entry
	pushq	%r14
.Ltmp617:
	.cfi_def_cfa_offset 16
	pushq	%rbx
.Ltmp618:
	.cfi_def_cfa_offset 24
	subq	$40, %rsp
.Ltmp619:
	.cfi_def_cfa_offset 64
.Ltmp620:
	.cfi_offset %rbx, -24
.Ltmp621:
	.cfi_offset %r14, -16
	movq	%rdi, 32(%rsp)
	movq	%rsi, 24(%rsp)
	movq	%rdx, 8(%rsp)
	movl	%ecx, 16(%rsp)
	.loc	5 706 0 prologue_end    # /usr/lib/gcc/x86_64-linux-gnu/4.8/../../../../include/c++/4.8/bits/stl_vector.h:706:0
.Ltmp622:
	movq	24(%rsp), %r14
	movq	32(%rsp), %rbx
	movq	%rbx, %rdi
	callq	_ZNKSt6vectorI7outBuffSaIS0_EE4sizeEv
	cmpq	%rax, %r14
	jbe	.LBB28_2
# BB#1:                                 # %if.then
	.loc	5 707 0                 # /usr/lib/gcc/x86_64-linux-gnu/4.8/../../../../include/c++/4.8/bits/stl_vector.h:707:0
	movq	%rbx, %rdi
	callq	_ZNSt6vectorI7outBuffSaIS0_EE3endEv
	movq	%rax, (%rsp)
	movq	24(%rsp), %r14
	movq	%rbx, %rdi
	callq	_ZNKSt6vectorI7outBuffSaIS0_EE4sizeEv
	subq	%rax, %r14
	movq	(%rsp), %rsi
	leaq	8(%rsp), %rcx
	movq	%rbx, %rdi
	movq	%r14, %rdx
	callq	_ZNSt6vectorI7outBuffSaIS0_EE6insertEN9__gnu_cxx17__normal_iteratorIPS0_S2_EEmRKS0_
	jmp	.LBB28_4
.LBB28_2:                               # %if.else
	.loc	5 708 0                 # /usr/lib/gcc/x86_64-linux-gnu/4.8/../../../../include/c++/4.8/bits/stl_vector.h:708:0
	movq	24(%rsp), %r14
	movq	%rbx, %rdi
	callq	_ZNKSt6vectorI7outBuffSaIS0_EE4sizeEv
	cmpq	%rax, %r14
	jae	.LBB28_4
# BB#3:                                 # %if.then7
	.loc	5 709 0                 # /usr/lib/gcc/x86_64-linux-gnu/4.8/../../../../include/c++/4.8/bits/stl_vector.h:709:0
	movq	24(%rsp), %rsi
	shlq	$4, %rsi
	addq	(%rbx), %rsi
	movq	%rbx, %rdi
	callq	_ZNSt6vectorI7outBuffSaIS0_EE15_M_erase_at_endEPS0_
.LBB28_4:                               # %if.end8
	.loc	5 710 0                 # /usr/lib/gcc/x86_64-linux-gnu/4.8/../../../../include/c++/4.8/bits/stl_vector.h:710:0
	addq	$40, %rsp
	popq	%rbx
	popq	%r14
	ret
.Ltmp623:
.Ltmp624:
	.size	_ZNSt6vectorI7outBuffSaIS0_EE6resizeEmS0_, .Ltmp624-_ZNSt6vectorI7outBuffSaIS0_EE6resizeEmS0_
.Lfunc_end28:
	.cfi_endproc

	.section	.text._ZNSt6vectorI7outBuffSaIS0_EE5clearEv,"axG",@progbits,_ZNSt6vectorI7outBuffSaIS0_EE5clearEv,comdat
	.weak	_ZNSt6vectorI7outBuffSaIS0_EE5clearEv
	.align	16, 0x90
	.type	_ZNSt6vectorI7outBuffSaIS0_EE5clearEv,@function
_ZNSt6vectorI7outBuffSaIS0_EE5clearEv:  # @_ZNSt6vectorI7outBuffSaIS0_EE5clearEv
	.cfi_startproc
.Lfunc_begin29:
	.loc	5 1126 0                # /usr/lib/gcc/x86_64-linux-gnu/4.8/../../../../include/c++/4.8/bits/stl_vector.h:1126:0
# BB#0:                                 # %entry
	pushq	%rax
.Ltmp626:
	.cfi_def_cfa_offset 16
	movq	%rdi, (%rsp)
	.loc	5 1126 0 prologue_end   # /usr/lib/gcc/x86_64-linux-gnu/4.8/../../../../include/c++/4.8/bits/stl_vector.h:1126:0
.Ltmp627:
	movq	(%rdi), %rsi
	callq	_ZNSt6vectorI7outBuffSaIS0_EE15_M_erase_at_endEPS0_
	popq	%rax
	ret
.Ltmp628:
.Ltmp629:
	.size	_ZNSt6vectorI7outBuffSaIS0_EE5clearEv, .Ltmp629-_ZNSt6vectorI7outBuffSaIS0_EE5clearEv
.Lfunc_end29:
	.cfi_endproc

	.section	.text._ZNSt6vectorI7outBuffSaIS0_EE15_M_erase_at_endEPS0_,"axG",@progbits,_ZNSt6vectorI7outBuffSaIS0_EE15_M_erase_at_endEPS0_,comdat
	.weak	_ZNSt6vectorI7outBuffSaIS0_EE15_M_erase_at_endEPS0_
	.align	16, 0x90
	.type	_ZNSt6vectorI7outBuffSaIS0_EE15_M_erase_at_endEPS0_,@function
_ZNSt6vectorI7outBuffSaIS0_EE15_M_erase_at_endEPS0_: # @_ZNSt6vectorI7outBuffSaIS0_EE15_M_erase_at_endEPS0_
	.cfi_startproc
.Lfunc_begin30:
	.loc	5 1351 0                # /usr/lib/gcc/x86_64-linux-gnu/4.8/../../../../include/c++/4.8/bits/stl_vector.h:1351:0
# BB#0:                                 # %entry
	pushq	%r15
.Ltmp634:
	.cfi_def_cfa_offset 16
	pushq	%r14
.Ltmp635:
	.cfi_def_cfa_offset 24
	pushq	%rbx
.Ltmp636:
	.cfi_def_cfa_offset 32
	subq	$16, %rsp
.Ltmp637:
	.cfi_def_cfa_offset 48
.Ltmp638:
	.cfi_offset %rbx, -32
.Ltmp639:
	.cfi_offset %r14, -24
.Ltmp640:
	.cfi_offset %r15, -16
	movq	%rsi, %r14
	movq	%rdi, 8(%rsp)
	movq	%r14, (%rsp)
	movq	8(%rsp), %rbx
	.loc	5 1352 0 prologue_end   # /usr/lib/gcc/x86_64-linux-gnu/4.8/../../../../include/c++/4.8/bits/stl_vector.h:1352:0
.Ltmp641:
	movq	8(%rbx), %r15
	movq	%rbx, %rdi
	callq	_ZNSt12_Vector_baseI7outBuffSaIS0_EE19_M_get_Tp_allocatorEv
	movq	%r14, %rdi
	movq	%r15, %rsi
	movq	%rax, %rdx
	callq	_ZSt8_DestroyIP7outBuffS0_EvT_S2_RSaIT0_E
	.loc	5 1353 0                # /usr/lib/gcc/x86_64-linux-gnu/4.8/../../../../include/c++/4.8/bits/stl_vector.h:1353:0
	movq	(%rsp), %rax
	movq	%rax, 8(%rbx)
	.loc	5 1354 0                # /usr/lib/gcc/x86_64-linux-gnu/4.8/../../../../include/c++/4.8/bits/stl_vector.h:1354:0
	addq	$16, %rsp
	popq	%rbx
	popq	%r14
	popq	%r15
	ret
.Ltmp642:
.Ltmp643:
	.size	_ZNSt6vectorI7outBuffSaIS0_EE15_M_erase_at_endEPS0_, .Ltmp643-_ZNSt6vectorI7outBuffSaIS0_EE15_M_erase_at_endEPS0_
.Lfunc_end30:
	.cfi_endproc

	.section	.text._ZSt8_DestroyIP7outBuffS0_EvT_S2_RSaIT0_E,"axG",@progbits,_ZSt8_DestroyIP7outBuffS0_EvT_S2_RSaIT0_E,comdat
	.weak	_ZSt8_DestroyIP7outBuffS0_EvT_S2_RSaIT0_E
	.align	16, 0x90
	.type	_ZSt8_DestroyIP7outBuffS0_EvT_S2_RSaIT0_E,@function
_ZSt8_DestroyIP7outBuffS0_EvT_S2_RSaIT0_E: # @_ZSt8_DestroyIP7outBuffS0_EvT_S2_RSaIT0_E
	.cfi_startproc
.Lfunc_begin31:
	.loc	12 150 0                # /usr/lib/gcc/x86_64-linux-gnu/4.8/../../../../include/c++/4.8/bits/stl_construct.h:150:0
# BB#0:                                 # %entry
	subq	$24, %rsp
.Ltmp645:
	.cfi_def_cfa_offset 32
	movq	%rdi, 16(%rsp)
	movq	%rsi, 8(%rsp)
	movq	%rdx, (%rsp)
	.loc	12 151 0 prologue_end   # /usr/lib/gcc/x86_64-linux-gnu/4.8/../../../../include/c++/4.8/bits/stl_construct.h:151:0
.Ltmp646:
	movq	8(%rsp), %rsi
	movq	16(%rsp), %rdi
	callq	_ZSt8_DestroyIP7outBuffEvT_S2_
	.loc	12 152 0                # /usr/lib/gcc/x86_64-linux-gnu/4.8/../../../../include/c++/4.8/bits/stl_construct.h:152:0
	addq	$24, %rsp
	ret
.Ltmp647:
.Ltmp648:
	.size	_ZSt8_DestroyIP7outBuffS0_EvT_S2_RSaIT0_E, .Ltmp648-_ZSt8_DestroyIP7outBuffS0_EvT_S2_RSaIT0_E
.Lfunc_end31:
	.cfi_endproc

	.section	.text._ZNSt12_Vector_baseI7outBuffSaIS0_EE19_M_get_Tp_allocatorEv,"axG",@progbits,_ZNSt12_Vector_baseI7outBuffSaIS0_EE19_M_get_Tp_allocatorEv,comdat
	.weak	_ZNSt12_Vector_baseI7outBuffSaIS0_EE19_M_get_Tp_allocatorEv
	.align	16, 0x90
	.type	_ZNSt12_Vector_baseI7outBuffSaIS0_EE19_M_get_Tp_allocatorEv,@function
_ZNSt12_Vector_baseI7outBuffSaIS0_EE19_M_get_Tp_allocatorEv: # @_ZNSt12_Vector_baseI7outBuffSaIS0_EE19_M_get_Tp_allocatorEv
	.cfi_startproc
.Lfunc_begin32:
	.loc	5 114 0                 # /usr/lib/gcc/x86_64-linux-gnu/4.8/../../../../include/c++/4.8/bits/stl_vector.h:114:0
# BB#0:                                 # %entry
	movq	%rdi, -8(%rsp)
	.loc	5 114 0 prologue_end    # /usr/lib/gcc/x86_64-linux-gnu/4.8/../../../../include/c++/4.8/bits/stl_vector.h:114:0
.Ltmp649:
	movq	%rdi, %rax
	ret
.Ltmp650:
.Ltmp651:
	.size	_ZNSt12_Vector_baseI7outBuffSaIS0_EE19_M_get_Tp_allocatorEv, .Ltmp651-_ZNSt12_Vector_baseI7outBuffSaIS0_EE19_M_get_Tp_allocatorEv
.Lfunc_end32:
	.cfi_endproc

	.section	.text._ZSt8_DestroyIP7outBuffEvT_S2_,"axG",@progbits,_ZSt8_DestroyIP7outBuffEvT_S2_,comdat
	.weak	_ZSt8_DestroyIP7outBuffEvT_S2_
	.align	16, 0x90
	.type	_ZSt8_DestroyIP7outBuffEvT_S2_,@function
_ZSt8_DestroyIP7outBuffEvT_S2_:         # @_ZSt8_DestroyIP7outBuffEvT_S2_
	.cfi_startproc
.Lfunc_begin33:
	.loc	12 123 0                # /usr/lib/gcc/x86_64-linux-gnu/4.8/../../../../include/c++/4.8/bits/stl_construct.h:123:0
# BB#0:                                 # %entry
	subq	$24, %rsp
.Ltmp653:
	.cfi_def_cfa_offset 32
	movq	%rdi, 16(%rsp)
	movq	%rsi, 8(%rsp)
	.loc	12 126 0 prologue_end   # /usr/lib/gcc/x86_64-linux-gnu/4.8/../../../../include/c++/4.8/bits/stl_construct.h:126:0
.Ltmp654:
	movq	16(%rsp), %rdi
	callq	_ZNSt12_Destroy_auxILb1EE9__destroyIP7outBuffEEvT_S4_
	.loc	12 128 0                # /usr/lib/gcc/x86_64-linux-gnu/4.8/../../../../include/c++/4.8/bits/stl_construct.h:128:0
	addq	$24, %rsp
	ret
.Ltmp655:
.Ltmp656:
	.size	_ZSt8_DestroyIP7outBuffEvT_S2_, .Ltmp656-_ZSt8_DestroyIP7outBuffEvT_S2_
.Lfunc_end33:
	.cfi_endproc

	.section	.text._ZNSt12_Destroy_auxILb1EE9__destroyIP7outBuffEEvT_S4_,"axG",@progbits,_ZNSt12_Destroy_auxILb1EE9__destroyIP7outBuffEEvT_S4_,comdat
	.weak	_ZNSt12_Destroy_auxILb1EE9__destroyIP7outBuffEEvT_S4_
	.align	16, 0x90
	.type	_ZNSt12_Destroy_auxILb1EE9__destroyIP7outBuffEEvT_S4_,@function
_ZNSt12_Destroy_auxILb1EE9__destroyIP7outBuffEEvT_S4_: # @_ZNSt12_Destroy_auxILb1EE9__destroyIP7outBuffEEvT_S4_
	.cfi_startproc
.Lfunc_begin34:
	.loc	12 112 0                # /usr/lib/gcc/x86_64-linux-gnu/4.8/../../../../include/c++/4.8/bits/stl_construct.h:112:0
# BB#0:                                 # %entry
	movq	%rdi, -8(%rsp)
	movq	%rsi, -16(%rsp)
	.loc	12 112 0 prologue_end   # /usr/lib/gcc/x86_64-linux-gnu/4.8/../../../../include/c++/4.8/bits/stl_construct.h:112:0
.Ltmp657:
	ret
.Ltmp658:
.Ltmp659:
	.size	_ZNSt12_Destroy_auxILb1EE9__destroyIP7outBuffEEvT_S4_, .Ltmp659-_ZNSt12_Destroy_auxILb1EE9__destroyIP7outBuffEEvT_S4_
.Lfunc_end34:
	.cfi_endproc

	.section	.text._ZNSt6vectorI7outBuffSaIS0_EE6insertEN9__gnu_cxx17__normal_iteratorIPS0_S2_EEmRKS0_,"axG",@progbits,_ZNSt6vectorI7outBuffSaIS0_EE6insertEN9__gnu_cxx17__normal_iteratorIPS0_S2_EEmRKS0_,comdat
	.weak	_ZNSt6vectorI7outBuffSaIS0_EE6insertEN9__gnu_cxx17__normal_iteratorIPS0_S2_EEmRKS0_
	.align	16, 0x90
	.type	_ZNSt6vectorI7outBuffSaIS0_EE6insertEN9__gnu_cxx17__normal_iteratorIPS0_S2_EEmRKS0_,@function
_ZNSt6vectorI7outBuffSaIS0_EE6insertEN9__gnu_cxx17__normal_iteratorIPS0_S2_EEmRKS0_: # @_ZNSt6vectorI7outBuffSaIS0_EE6insertEN9__gnu_cxx17__normal_iteratorIPS0_S2_EEmRKS0_
	.cfi_startproc
.Lfunc_begin35:
	.loc	5 1024 0                # /usr/lib/gcc/x86_64-linux-gnu/4.8/../../../../include/c++/4.8/bits/stl_vector.h:1024:0
# BB#0:                                 # %entry
	subq	$40, %rsp
.Ltmp661:
	.cfi_def_cfa_offset 48
	movq	%rdi, 32(%rsp)
	movq	%rsi, 24(%rsp)
	movq	%rdx, 16(%rsp)
	movq	%rcx, 8(%rsp)
	movq	32(%rsp), %rdi
	.loc	5 1024 0 prologue_end   # /usr/lib/gcc/x86_64-linux-gnu/4.8/../../../../include/c++/4.8/bits/stl_vector.h:1024:0
.Ltmp662:
	movq	24(%rsp), %rsi
	movq	%rsi, (%rsp)
	movq	8(%rsp), %rcx
	movq	16(%rsp), %rdx
	callq	_ZNSt6vectorI7outBuffSaIS0_EE14_M_fill_insertEN9__gnu_cxx17__normal_iteratorIPS0_S2_EEmRKS0_
	addq	$40, %rsp
	ret
.Ltmp663:
.Ltmp664:
	.size	_ZNSt6vectorI7outBuffSaIS0_EE6insertEN9__gnu_cxx17__normal_iteratorIPS0_S2_EEmRKS0_, .Ltmp664-_ZNSt6vectorI7outBuffSaIS0_EE6insertEN9__gnu_cxx17__normal_iteratorIPS0_S2_EEmRKS0_
.Lfunc_end35:
	.cfi_endproc

	.section	.text._ZNSt6vectorI7outBuffSaIS0_EE3endEv,"axG",@progbits,_ZNSt6vectorI7outBuffSaIS0_EE3endEv,comdat
	.weak	_ZNSt6vectorI7outBuffSaIS0_EE3endEv
	.align	16, 0x90
	.type	_ZNSt6vectorI7outBuffSaIS0_EE3endEv,@function
_ZNSt6vectorI7outBuffSaIS0_EE3endEv:    # @_ZNSt6vectorI7outBuffSaIS0_EE3endEv
	.cfi_startproc
.Lfunc_begin36:
	.loc	5 557 0                 # /usr/lib/gcc/x86_64-linux-gnu/4.8/../../../../include/c++/4.8/bits/stl_vector.h:557:0
# BB#0:                                 # %entry
	subq	$24, %rsp
.Ltmp666:
	.cfi_def_cfa_offset 32
	movq	%rdi, 8(%rsp)
	.loc	5 557 0 prologue_end    # /usr/lib/gcc/x86_64-linux-gnu/4.8/../../../../include/c++/4.8/bits/stl_vector.h:557:0
.Ltmp667:
	leaq	8(%rdi), %rsi
	leaq	16(%rsp), %rdi
	callq	_ZN9__gnu_cxx17__normal_iteratorIP7outBuffSt6vectorIS1_SaIS1_EEEC1ERKS2_
	movq	16(%rsp), %rax
	addq	$24, %rsp
	ret
.Ltmp668:
.Ltmp669:
	.size	_ZNSt6vectorI7outBuffSaIS0_EE3endEv, .Ltmp669-_ZNSt6vectorI7outBuffSaIS0_EE3endEv
.Lfunc_end36:
	.cfi_endproc

	.section	.text._ZN9__gnu_cxx17__normal_iteratorIP7outBuffSt6vectorIS1_SaIS1_EEEC1ERKS2_,"axG",@progbits,_ZN9__gnu_cxx17__normal_iteratorIP7outBuffSt6vectorIS1_SaIS1_EEEC1ERKS2_,comdat
	.weak	_ZN9__gnu_cxx17__normal_iteratorIP7outBuffSt6vectorIS1_SaIS1_EEEC1ERKS2_
	.align	16, 0x90
	.type	_ZN9__gnu_cxx17__normal_iteratorIP7outBuffSt6vectorIS1_SaIS1_EEEC1ERKS2_,@function
_ZN9__gnu_cxx17__normal_iteratorIP7outBuffSt6vectorIS1_SaIS1_EEEC1ERKS2_: # @_ZN9__gnu_cxx17__normal_iteratorIP7outBuffSt6vectorIS1_SaIS1_EEEC1ERKS2_
	.cfi_startproc
.Lfunc_begin37:
	.loc	7 726 0                 # /usr/lib/gcc/x86_64-linux-gnu/4.8/../../../../include/c++/4.8/bits/stl_iterator.h:726:0
# BB#0:                                 # %entry
	subq	$24, %rsp
.Ltmp671:
	.cfi_def_cfa_offset 32
	movq	%rdi, 16(%rsp)
	movq	%rsi, 8(%rsp)
	movq	16(%rsp), %rdi
	.loc	7 726 0 prologue_end    # /usr/lib/gcc/x86_64-linux-gnu/4.8/../../../../include/c++/4.8/bits/stl_iterator.h:726:0
.Ltmp672:
	callq	_ZN9__gnu_cxx17__normal_iteratorIP7outBuffSt6vectorIS1_SaIS1_EEEC2ERKS2_
	addq	$24, %rsp
	ret
.Ltmp673:
.Ltmp674:
	.size	_ZN9__gnu_cxx17__normal_iteratorIP7outBuffSt6vectorIS1_SaIS1_EEEC1ERKS2_, .Ltmp674-_ZN9__gnu_cxx17__normal_iteratorIP7outBuffSt6vectorIS1_SaIS1_EEEC1ERKS2_
.Lfunc_end37:
	.cfi_endproc

	.section	.text._ZN9__gnu_cxx17__normal_iteratorIP7outBuffSt6vectorIS1_SaIS1_EEEC2ERKS2_,"axG",@progbits,_ZN9__gnu_cxx17__normal_iteratorIP7outBuffSt6vectorIS1_SaIS1_EEEC2ERKS2_,comdat
	.weak	_ZN9__gnu_cxx17__normal_iteratorIP7outBuffSt6vectorIS1_SaIS1_EEEC2ERKS2_
	.align	16, 0x90
	.type	_ZN9__gnu_cxx17__normal_iteratorIP7outBuffSt6vectorIS1_SaIS1_EEEC2ERKS2_,@function
_ZN9__gnu_cxx17__normal_iteratorIP7outBuffSt6vectorIS1_SaIS1_EEEC2ERKS2_: # @_ZN9__gnu_cxx17__normal_iteratorIP7outBuffSt6vectorIS1_SaIS1_EEEC2ERKS2_
	.cfi_startproc
.Lfunc_begin38:
	.loc	7 726 0                 # /usr/lib/gcc/x86_64-linux-gnu/4.8/../../../../include/c++/4.8/bits/stl_iterator.h:726:0
# BB#0:                                 # %entry
	movq	%rdi, -8(%rsp)
	movq	%rsi, -16(%rsp)
	.loc	7 726 0 prologue_end    # /usr/lib/gcc/x86_64-linux-gnu/4.8/../../../../include/c++/4.8/bits/stl_iterator.h:726:0
.Ltmp675:
	movq	(%rsi), %rax
	movq	-8(%rsp), %rcx
	movq	%rax, (%rcx)
	.loc	7 726 0                 # /usr/lib/gcc/x86_64-linux-gnu/4.8/../../../../include/c++/4.8/bits/stl_iterator.h:726:0
.Ltmp676:
	ret
.Ltmp677:
.Ltmp678:
	.size	_ZN9__gnu_cxx17__normal_iteratorIP7outBuffSt6vectorIS1_SaIS1_EEEC2ERKS2_, .Ltmp678-_ZN9__gnu_cxx17__normal_iteratorIP7outBuffSt6vectorIS1_SaIS1_EEEC2ERKS2_
.Lfunc_end38:
	.cfi_endproc

	.section	.text._ZNSt6vectorI7outBuffSaIS0_EE14_M_fill_insertEN9__gnu_cxx17__normal_iteratorIPS0_S2_EEmRKS0_,"axG",@progbits,_ZNSt6vectorI7outBuffSaIS0_EE14_M_fill_insertEN9__gnu_cxx17__normal_iteratorIPS0_S2_EEmRKS0_,comdat
	.weak	_ZNSt6vectorI7outBuffSaIS0_EE14_M_fill_insertEN9__gnu_cxx17__normal_iteratorIPS0_S2_EEmRKS0_
	.align	16, 0x90
	.type	_ZNSt6vectorI7outBuffSaIS0_EE14_M_fill_insertEN9__gnu_cxx17__normal_iteratorIPS0_S2_EEmRKS0_,@function
_ZNSt6vectorI7outBuffSaIS0_EE14_M_fill_insertEN9__gnu_cxx17__normal_iteratorIPS0_S2_EEmRKS0_: # @_ZNSt6vectorI7outBuffSaIS0_EE14_M_fill_insertEN9__gnu_cxx17__normal_iteratorIPS0_S2_EEmRKS0_
	.cfi_startproc
	.cfi_personality 3, __gxx_personality_v0
.Leh_func_begin39:
	.cfi_lsda 3, .Lexception39
.Lfunc_begin39:
	.loc	5 443 0                 # /usr/lib/gcc/x86_64-linux-gnu/4.8/../../../../include/c++/4.8/bits/stl_vector.h:443:0
# BB#0:                                 # %entry
	pushq	%rbp
.Ltmp719:
	.cfi_def_cfa_offset 16
	pushq	%r15
.Ltmp720:
	.cfi_def_cfa_offset 24
	pushq	%r14
.Ltmp721:
	.cfi_def_cfa_offset 32
	pushq	%r13
.Ltmp722:
	.cfi_def_cfa_offset 40
	pushq	%r12
.Ltmp723:
	.cfi_def_cfa_offset 48
	pushq	%rbx
.Ltmp724:
	.cfi_def_cfa_offset 56
	subq	$136, %rsp
.Ltmp725:
	.cfi_def_cfa_offset 192
.Ltmp726:
	.cfi_offset %rbx, -56
.Ltmp727:
	.cfi_offset %r12, -48
.Ltmp728:
	.cfi_offset %r13, -40
.Ltmp729:
	.cfi_offset %r14, -32
.Ltmp730:
	.cfi_offset %r15, -24
.Ltmp731:
	.cfi_offset %rbp, -16
	movq	%rdi, 128(%rsp)
	movq	%rsi, 120(%rsp)
	movq	%rdx, 112(%rsp)
	movq	%rcx, 104(%rsp)
	.file	22 "/usr/lib/gcc/x86_64-linux-gnu/4.8/../../../../include/c++/4.8/bits/vector.tcc"
	.loc	22 444 0 prologue_end   # /usr/lib/gcc/x86_64-linux-gnu/4.8/../../../../include/c++/4.8/bits/vector.tcc:444:0
.Ltmp732:
	cmpq	$0, 112(%rsp)
	je	.LBB39_14
# BB#1:                                 # %if.then
	movq	128(%rsp), %r12
	.loc	22 446 0                # /usr/lib/gcc/x86_64-linux-gnu/4.8/../../../../include/c++/4.8/bits/vector.tcc:446:0
.Ltmp733:
	movq	16(%r12), %rax
	subq	8(%r12), %rax
	sarq	$4, %rax
	cmpq	112(%rsp), %rax
	jb	.LBB39_5
# BB#2:                                 # %if.then4
.Ltmp734:
	#DEBUG_VALUE: __x_copy <- [%rsp+$88]+$0
	.loc	22 449 0                # /usr/lib/gcc/x86_64-linux-gnu/4.8/../../../../include/c++/4.8/bits/vector.tcc:449:0
	movq	104(%rsp), %rcx
	movq	(%rcx), %rax
.Ltmp735:
	#DEBUG_VALUE: __elems_after <- [%rsp+$80]+$0
	movq	8(%rcx), %rcx
	movq	%rcx, 96(%rsp)
	movq	%rax, 88(%rsp)
	.loc	22 450 0                # /usr/lib/gcc/x86_64-linux-gnu/4.8/../../../../include/c++/4.8/bits/vector.tcc:450:0
	movq	%r12, %rdi
	callq	_ZNSt6vectorI7outBuffSaIS0_EE3endEv
	movq	%rax, 72(%rsp)
	leaq	72(%rsp), %rdi
	leaq	120(%rsp), %rsi
	callq	_ZN9__gnu_cxxmiIP7outBuffSt6vectorIS1_SaIS1_EEEENS_17__normal_iteratorIT_T0_E15difference_typeERKS9_SC_
	movq	%rax, 80(%rsp)
	.loc	22 451 0                # /usr/lib/gcc/x86_64-linux-gnu/4.8/../../../../include/c++/4.8/bits/vector.tcc:451:0
	movq	8(%r12), %rax
.Ltmp736:
	#DEBUG_VALUE: __old_finish <- [%rsp+$64]+$0
	movq	%rax, 64(%rsp)
	.loc	22 452 0                # /usr/lib/gcc/x86_64-linux-gnu/4.8/../../../../include/c++/4.8/bits/vector.tcc:452:0
	movq	80(%rsp), %rax
	cmpq	112(%rsp), %rax
	jbe	.LBB39_4
# BB#3:                                 # %if.then10
	.loc	22 454 0                # /usr/lib/gcc/x86_64-linux-gnu/4.8/../../../../include/c++/4.8/bits/vector.tcc:454:0
.Ltmp737:
	movq	8(%r12), %rbx
	movq	112(%rsp), %rbp
	.loc	22 457 0                # /usr/lib/gcc/x86_64-linux-gnu/4.8/../../../../include/c++/4.8/bits/vector.tcc:457:0
	movq	%r12, %rdi
	callq	_ZNSt12_Vector_baseI7outBuffSaIS0_EE19_M_get_Tp_allocatorEv
	.loc	22 454 0                # /usr/lib/gcc/x86_64-linux-gnu/4.8/../../../../include/c++/4.8/bits/vector.tcc:454:0
	shlq	$4, %rbp
	movq	%rbx, %rdi
	subq	%rbp, %rdi
	.loc	22 457 0                # /usr/lib/gcc/x86_64-linux-gnu/4.8/../../../../include/c++/4.8/bits/vector.tcc:457:0
	movq	%rbx, %rsi
	movq	%rbx, %rdx
	movq	%rax, %rcx
	callq	_ZSt22__uninitialized_move_aIP7outBuffS1_SaIS0_EET0_T_S4_S3_RT1_
	leaq	120(%rsp), %r14
	.loc	22 458 0                # /usr/lib/gcc/x86_64-linux-gnu/4.8/../../../../include/c++/4.8/bits/vector.tcc:458:0
	movq	112(%rsp), %rax
	shlq	$4, %rax
	addq	%rax, 8(%r12)
	.loc	22 459 0                # /usr/lib/gcc/x86_64-linux-gnu/4.8/../../../../include/c++/4.8/bits/vector.tcc:459:0
	movq	%r14, %rdi
	callq	_ZNK9__gnu_cxx17__normal_iteratorIP7outBuffSt6vectorIS1_SaIS1_EEE4baseEv
	movq	112(%rsp), %rcx
	shlq	$4, %rcx
	movq	64(%rsp), %rdx
	movq	%rdx, %rsi
	subq	%rcx, %rsi
	movq	(%rax), %rdi
	callq	_ZSt13copy_backwardIP7outBuffS1_ET0_T_S3_S2_
	.loc	22 461 0                # /usr/lib/gcc/x86_64-linux-gnu/4.8/../../../../include/c++/4.8/bits/vector.tcc:461:0
	movq	%r14, %rdi
	callq	_ZNK9__gnu_cxx17__normal_iteratorIP7outBuffSt6vectorIS1_SaIS1_EEE4baseEv
	movq	(%rax), %rbx
	movq	%r14, %rdi
	callq	_ZNK9__gnu_cxx17__normal_iteratorIP7outBuffSt6vectorIS1_SaIS1_EEE4baseEv
	leaq	88(%rsp), %rdx
	movq	112(%rsp), %rsi
	shlq	$4, %rsi
	addq	(%rax), %rsi
	movq	%rbx, %rdi
	callq	_ZSt4fillIP7outBuffS0_EvT_S2_RKT0_
	jmp	.LBB39_14
.Ltmp738:
.LBB39_5:                               # %if.else45
	#DEBUG_VALUE: __len <- [%rsp+$56]+$0
	.loc	22 481 0                # /usr/lib/gcc/x86_64-linux-gnu/4.8/../../../../include/c++/4.8/bits/vector.tcc:481:0
	movq	112(%rsp), %rsi
	movq	%r12, %rdi
	movl	$.L.str95, %edx
	callq	_ZNKSt6vectorI7outBuffSaIS0_EE12_M_check_lenEmPKc
	movq	%rax, 56(%rsp)
.Ltmp739:
	#DEBUG_VALUE: __elems_before <- [%rsp+$48]+$0
	.loc	22 482 0                # /usr/lib/gcc/x86_64-linux-gnu/4.8/../../../../include/c++/4.8/bits/vector.tcc:482:0
	movq	%r12, %rdi
	callq	_ZNSt6vectorI7outBuffSaIS0_EE5beginEv
	movq	%rax, 40(%rsp)
	leaq	120(%rsp), %rdi
	leaq	40(%rsp), %rsi
	callq	_ZN9__gnu_cxxmiIP7outBuffSt6vectorIS1_SaIS1_EEEENS_17__normal_iteratorIT_T0_E15difference_typeERKS9_SC_
	movq	%rax, 48(%rsp)
	.loc	22 483 0                # /usr/lib/gcc/x86_64-linux-gnu/4.8/../../../../include/c++/4.8/bits/vector.tcc:483:0
	movq	56(%rsp), %rsi
.Ltmp740:
	#DEBUG_VALUE: __new_start <- [%rsp+$32]+$0
	movq	%r12, %rdi
	callq	_ZNSt12_Vector_baseI7outBuffSaIS0_EE11_M_allocateEm
	movq	%rax, 32(%rsp)
	.loc	22 484 0                # /usr/lib/gcc/x86_64-linux-gnu/4.8/../../../../include/c++/4.8/bits/vector.tcc:484:0
	movq	%rax, 24(%rsp)
.Ltmp741:
	#DEBUG_VALUE: __new_finish <- [%rsp+$24]+$0
	.loc	22 488 0                # /usr/lib/gcc/x86_64-linux-gnu/4.8/../../../../include/c++/4.8/bits/vector.tcc:488:0
	movq	48(%rsp), %rbx
	shlq	$4, %rbx
	addq	32(%rsp), %rbx
	movq	104(%rsp), %r14
	movq	112(%rsp), %r15
	.loc	22 490 0                # /usr/lib/gcc/x86_64-linux-gnu/4.8/../../../../include/c++/4.8/bits/vector.tcc:490:0
.Ltmp679:
	movq	%r12, %rdi
	callq	_ZNSt12_Vector_baseI7outBuffSaIS0_EE19_M_get_Tp_allocatorEv
.Ltmp680:
# BB#6:                                 # %invoke.cont
.Ltmp681:
	movq	%rbx, %rdi
	movq	%r15, %rsi
	movq	%r14, %rdx
	movq	%rax, %rcx
	callq	_ZSt24__uninitialized_fill_n_aIP7outBuffmS0_S0_EvT_T0_RKT1_RSaIT2_E
.Ltmp682:
# BB#7:                                 # %invoke.cont54
	.loc	22 491 0                # /usr/lib/gcc/x86_64-linux-gnu/4.8/../../../../include/c++/4.8/bits/vector.tcc:491:0
	movq	$0, 24(%rsp)
	.loc	22 494 0                # /usr/lib/gcc/x86_64-linux-gnu/4.8/../../../../include/c++/4.8/bits/vector.tcc:494:0
	movq	(%r12), %r14
	.loc	22 495 0                # /usr/lib/gcc/x86_64-linux-gnu/4.8/../../../../include/c++/4.8/bits/vector.tcc:495:0
.Ltmp683:
	leaq	120(%rsp), %rdi
	callq	_ZNK9__gnu_cxx17__normal_iteratorIP7outBuffSt6vectorIS1_SaIS1_EEE4baseEv
.Ltmp684:
# BB#8:                                 # %invoke.cont56
	movq	(%rax), %rbx
	movq	32(%rsp), %r15
	.loc	22 496 0                # /usr/lib/gcc/x86_64-linux-gnu/4.8/../../../../include/c++/4.8/bits/vector.tcc:496:0
.Ltmp685:
	movq	%r12, %rdi
	callq	_ZNSt12_Vector_baseI7outBuffSaIS0_EE19_M_get_Tp_allocatorEv
.Ltmp686:
# BB#9:                                 # %invoke.cont58
.Ltmp687:
	movq	%r14, %rdi
	movq	%rbx, %rsi
	movq	%r15, %rdx
	movq	%rax, %rcx
	callq	_ZSt34__uninitialized_move_if_noexcept_aIP7outBuffS1_SaIS0_EET0_T_S4_S3_RT1_
.Ltmp688:
# BB#10:                                # %invoke.cont60
	movq	%rax, 24(%rsp)
	.loc	22 498 0                # /usr/lib/gcc/x86_64-linux-gnu/4.8/../../../../include/c++/4.8/bits/vector.tcc:498:0
	movq	112(%rsp), %rcx
	shlq	$4, %rcx
	addq	%rax, %rcx
	movq	%rcx, 24(%rsp)
	.loc	22 502 0                # /usr/lib/gcc/x86_64-linux-gnu/4.8/../../../../include/c++/4.8/bits/vector.tcc:502:0
.Ltmp689:
	leaq	120(%rsp), %rdi
	callq	_ZNK9__gnu_cxx17__normal_iteratorIP7outBuffSt6vectorIS1_SaIS1_EEE4baseEv
.Ltmp690:
# BB#11:                                # %invoke.cont63
	movq	8(%r12), %r14
	movq	(%rax), %rbx
	movq	24(%rsp), %r15
	.loc	22 503 0                # /usr/lib/gcc/x86_64-linux-gnu/4.8/../../../../include/c++/4.8/bits/vector.tcc:503:0
.Ltmp691:
	movq	%r12, %rdi
	callq	_ZNSt12_Vector_baseI7outBuffSaIS0_EE19_M_get_Tp_allocatorEv
.Ltmp692:
# BB#12:                                # %invoke.cont67
.Ltmp693:
	movq	%rbx, %rdi
	movq	%r14, %rsi
	movq	%r15, %rdx
	movq	%rax, %rcx
	callq	_ZSt34__uninitialized_move_if_noexcept_aIP7outBuffS1_SaIS0_EET0_T_S4_S3_RT1_
.Ltmp694:
# BB#13:                                # %try.cont
	movq	%rax, 24(%rsp)
.Ltmp742:
	.loc	22 517 0                # /usr/lib/gcc/x86_64-linux-gnu/4.8/../../../../include/c++/4.8/bits/vector.tcc:517:0
	movq	(%r12), %rbx
	movq	8(%r12), %r14
	.loc	22 518 0                # /usr/lib/gcc/x86_64-linux-gnu/4.8/../../../../include/c++/4.8/bits/vector.tcc:518:0
	movq	%r12, %rdi
	callq	_ZNSt12_Vector_baseI7outBuffSaIS0_EE19_M_get_Tp_allocatorEv
	movq	%rbx, %rdi
	movq	%r14, %rsi
	movq	%rax, %rdx
	callq	_ZSt8_DestroyIP7outBuffS0_EvT_S2_RSaIT0_E
	.loc	22 519 0                # /usr/lib/gcc/x86_64-linux-gnu/4.8/../../../../include/c++/4.8/bits/vector.tcc:519:0
	movq	(%r12), %rsi
	movq	16(%r12), %rdx
	subq	%rsi, %rdx
	sarq	$4, %rdx
	movq	%r12, %rdi
	callq	_ZNSt12_Vector_baseI7outBuffSaIS0_EE13_M_deallocateEPS0_m
	.loc	22 522 0                # /usr/lib/gcc/x86_64-linux-gnu/4.8/../../../../include/c++/4.8/bits/vector.tcc:522:0
	movq	32(%rsp), %rax
	movq	%rax, (%r12)
	.loc	22 523 0                # /usr/lib/gcc/x86_64-linux-gnu/4.8/../../../../include/c++/4.8/bits/vector.tcc:523:0
	movq	24(%rsp), %rax
	movq	%rax, 8(%r12)
	.loc	22 524 0                # /usr/lib/gcc/x86_64-linux-gnu/4.8/../../../../include/c++/4.8/bits/vector.tcc:524:0
	movq	56(%rsp), %rax
	shlq	$4, %rax
	addq	32(%rsp), %rax
	movq	%rax, 16(%r12)
	jmp	.LBB39_14
.Ltmp743:
.LBB39_4:                               # %if.else
	.loc	22 466 0                # /usr/lib/gcc/x86_64-linux-gnu/4.8/../../../../include/c++/4.8/bits/vector.tcc:466:0
	movq	112(%rsp), %rbx
	subq	80(%rsp), %rbx
	movq	8(%r12), %r15
	.loc	22 469 0                # /usr/lib/gcc/x86_64-linux-gnu/4.8/../../../../include/c++/4.8/bits/vector.tcc:469:0
	movq	%r12, %rdi
	callq	_ZNSt12_Vector_baseI7outBuffSaIS0_EE19_M_get_Tp_allocatorEv
	leaq	88(%rsp), %r14
	movq	%r15, %rdi
	movq	%rbx, %rsi
	movq	%r14, %rdx
	movq	%rax, %rcx
	callq	_ZSt24__uninitialized_fill_n_aIP7outBuffmS0_S0_EvT_T0_RKT1_RSaIT2_E
	leaq	120(%rsp), %r15
	.loc	22 470 0                # /usr/lib/gcc/x86_64-linux-gnu/4.8/../../../../include/c++/4.8/bits/vector.tcc:470:0
	movq	112(%rsp), %rax
	subq	80(%rsp), %rax
	shlq	$4, %rax
	addq	%rax, 8(%r12)
	.loc	22 471 0                # /usr/lib/gcc/x86_64-linux-gnu/4.8/../../../../include/c++/4.8/bits/vector.tcc:471:0
	movq	%r15, %rdi
	callq	_ZNK9__gnu_cxx17__normal_iteratorIP7outBuffSt6vectorIS1_SaIS1_EEE4baseEv
	movq	8(%r12), %r13
	movq	(%rax), %rbx
	movq	64(%rsp), %rbp
	.loc	22 473 0                # /usr/lib/gcc/x86_64-linux-gnu/4.8/../../../../include/c++/4.8/bits/vector.tcc:473:0
	movq	%r12, %rdi
	callq	_ZNSt12_Vector_baseI7outBuffSaIS0_EE19_M_get_Tp_allocatorEv
	movq	%rbx, %rdi
	movq	%rbp, %rsi
	movq	%r13, %rdx
	movq	%rax, %rcx
	callq	_ZSt22__uninitialized_move_aIP7outBuffS1_SaIS0_EET0_T_S4_S3_RT1_
	.loc	22 474 0                # /usr/lib/gcc/x86_64-linux-gnu/4.8/../../../../include/c++/4.8/bits/vector.tcc:474:0
	movq	80(%rsp), %rax
	shlq	$4, %rax
	addq	%rax, 8(%r12)
	.loc	22 475 0                # /usr/lib/gcc/x86_64-linux-gnu/4.8/../../../../include/c++/4.8/bits/vector.tcc:475:0
	movq	%r15, %rdi
	callq	_ZNK9__gnu_cxx17__normal_iteratorIP7outBuffSt6vectorIS1_SaIS1_EEE4baseEv
	movq	(%rax), %rdi
	movq	64(%rsp), %rsi
	movq	%r14, %rdx
	callq	_ZSt4fillIP7outBuffS0_EvT_S2_RKT0_
.Ltmp744:
.LBB39_14:                              # %if.end109
	.loc	22 527 0                # /usr/lib/gcc/x86_64-linux-gnu/4.8/../../../../include/c++/4.8/bits/vector.tcc:527:0
	addq	$136, %rsp
	popq	%rbx
	popq	%r12
	popq	%r13
	popq	%r14
	popq	%r15
	popq	%rbp
	ret
.LBB39_15:                              # %catch
.Ltmp695:
	.loc	22 490 0                # /usr/lib/gcc/x86_64-linux-gnu/4.8/../../../../include/c++/4.8/bits/vector.tcc:490:0
.Ltmp745:
	movq	%rax, 16(%rsp)
	movl	%edx, 12(%rsp)
	.loc	22 504 0                # /usr/lib/gcc/x86_64-linux-gnu/4.8/../../../../include/c++/4.8/bits/vector.tcc:504:0
	movq	16(%rsp), %rdi
	callq	__cxa_begin_catch
.Ltmp746:
	.loc	22 507 0                # /usr/lib/gcc/x86_64-linux-gnu/4.8/../../../../include/c++/4.8/bits/vector.tcc:507:0
	cmpq	$0, 24(%rsp)
	je	.LBB39_16
# BB#18:                                # %if.else79
	.loc	22 512 0                # /usr/lib/gcc/x86_64-linux-gnu/4.8/../../../../include/c++/4.8/bits/vector.tcc:512:0
	movq	24(%rsp), %r14
	movq	32(%rsp), %rbx
	.loc	22 513 0                # /usr/lib/gcc/x86_64-linux-gnu/4.8/../../../../include/c++/4.8/bits/vector.tcc:513:0
.Ltmp700:
	movq	%r12, %rdi
	callq	_ZNSt12_Vector_baseI7outBuffSaIS0_EE19_M_get_Tp_allocatorEv
.Ltmp701:
# BB#19:                                # %invoke.cont80
.Ltmp702:
	movq	%rbx, %rdi
	movq	%r14, %rsi
	movq	%rax, %rdx
	callq	_ZSt8_DestroyIP7outBuffS0_EvT_S2_RSaIT0_E
.Ltmp703:
	jmp	.LBB39_20
.LBB39_16:                              # %if.then71
	.loc	22 508 0                # /usr/lib/gcc/x86_64-linux-gnu/4.8/../../../../include/c++/4.8/bits/vector.tcc:508:0
	movq	112(%rsp), %r14
	movq	48(%rsp), %rbx
	shlq	$4, %rbx
	addq	32(%rsp), %rbx
	.loc	22 510 0                # /usr/lib/gcc/x86_64-linux-gnu/4.8/../../../../include/c++/4.8/bits/vector.tcc:510:0
.Ltmp696:
	movq	%r12, %rdi
	callq	_ZNSt12_Vector_baseI7outBuffSaIS0_EE19_M_get_Tp_allocatorEv
.Ltmp697:
# BB#17:                                # %invoke.cont76
	.loc	22 508 0                # /usr/lib/gcc/x86_64-linux-gnu/4.8/../../../../include/c++/4.8/bits/vector.tcc:508:0
	shlq	$4, %r14
	addq	%rbx, %r14
	.loc	22 510 0                # /usr/lib/gcc/x86_64-linux-gnu/4.8/../../../../include/c++/4.8/bits/vector.tcc:510:0
.Ltmp698:
	movq	%rbx, %rdi
	movq	%r14, %rsi
	movq	%rax, %rdx
	callq	_ZSt8_DestroyIP7outBuffS0_EvT_S2_RSaIT0_E
.Ltmp699:
.LBB39_20:                              # %if.end83
	.loc	22 514 0                # /usr/lib/gcc/x86_64-linux-gnu/4.8/../../../../include/c++/4.8/bits/vector.tcc:514:0
	movq	56(%rsp), %rdx
	movq	32(%rsp), %rsi
.Ltmp704:
	movq	%r12, %rdi
	callq	_ZNSt12_Vector_baseI7outBuffSaIS0_EE13_M_deallocateEPS0_m
.Ltmp705:
# BB#21:                                # %invoke.cont84
	.loc	22 515 0                # /usr/lib/gcc/x86_64-linux-gnu/4.8/../../../../include/c++/4.8/bits/vector.tcc:515:0
.Ltmp706:
	callq	__cxa_rethrow
.Ltmp707:
# BB#25:                                # %unreachable
.LBB39_22:                              # %lpad75
.Ltmp708:
	.loc	22 510 0                # /usr/lib/gcc/x86_64-linux-gnu/4.8/../../../../include/c++/4.8/bits/vector.tcc:510:0
	movq	%rax, 16(%rsp)
	movl	%edx, 12(%rsp)
	.loc	22 516 0                # /usr/lib/gcc/x86_64-linux-gnu/4.8/../../../../include/c++/4.8/bits/vector.tcc:516:0
.Ltmp709:
	callq	__cxa_end_catch
.Ltmp710:
# BB#23:                                # %eh.resume
	movq	16(%rsp), %rdi
	callq	_Unwind_Resume
.LBB39_24:                              # %terminate.lpad
.Ltmp711:
	callq	_ZSt9terminatev
.Ltmp747:
.Ltmp748:
	.size	_ZNSt6vectorI7outBuffSaIS0_EE14_M_fill_insertEN9__gnu_cxx17__normal_iteratorIPS0_S2_EEmRKS0_, .Ltmp748-_ZNSt6vectorI7outBuffSaIS0_EE14_M_fill_insertEN9__gnu_cxx17__normal_iteratorIPS0_S2_EEmRKS0_
.Lfunc_end39:
	.cfi_endproc
.Leh_func_end39:
	.section	.gcc_except_table,"a",@progbits
	.align	4
GCC_except_table39:
.Lexception39:
	.byte	255                     # @LPStart Encoding = omit
	.byte	3                       # @TType Encoding = udata4
	.asciz	 "\326\200\200"         # @TType base offset
	.byte	3                       # Call site Encoding = udata4
	.byte	78                      # Call site table length
.Lset44 = .Leh_func_begin39-.Leh_func_begin39 # >> Call Site 1 <<
	.long	.Lset44
.Lset45 = .Ltmp679-.Leh_func_begin39    #   Call between .Leh_func_begin39 and .Ltmp679
	.long	.Lset45
	.long	0                       #     has no landing pad
	.byte	0                       #   On action: cleanup
.Lset46 = .Ltmp679-.Leh_func_begin39    # >> Call Site 2 <<
	.long	.Lset46
.Lset47 = .Ltmp694-.Ltmp679             #   Call between .Ltmp679 and .Ltmp694
	.long	.Lset47
.Lset48 = .Ltmp695-.Leh_func_begin39    #     jumps to .Ltmp695
	.long	.Lset48
	.byte	1                       #   On action: 1
.Lset49 = .Ltmp694-.Leh_func_begin39    # >> Call Site 3 <<
	.long	.Lset49
.Lset50 = .Ltmp700-.Ltmp694             #   Call between .Ltmp694 and .Ltmp700
	.long	.Lset50
	.long	0                       #     has no landing pad
	.byte	0                       #   On action: cleanup
.Lset51 = .Ltmp700-.Leh_func_begin39    # >> Call Site 4 <<
	.long	.Lset51
.Lset52 = .Ltmp707-.Ltmp700             #   Call between .Ltmp700 and .Ltmp707
	.long	.Lset52
.Lset53 = .Ltmp708-.Leh_func_begin39    #     jumps to .Ltmp708
	.long	.Lset53
	.byte	0                       #   On action: cleanup
.Lset54 = .Ltmp709-.Leh_func_begin39    # >> Call Site 5 <<
	.long	.Lset54
.Lset55 = .Ltmp710-.Ltmp709             #   Call between .Ltmp709 and .Ltmp710
	.long	.Lset55
.Lset56 = .Ltmp711-.Leh_func_begin39    #     jumps to .Ltmp711
	.long	.Lset56
	.byte	1                       #   On action: 1
.Lset57 = .Ltmp710-.Leh_func_begin39    # >> Call Site 6 <<
	.long	.Lset57
.Lset58 = .Leh_func_end39-.Ltmp710      #   Call between .Ltmp710 and .Leh_func_end39
	.long	.Lset58
	.long	0                       #     has no landing pad
	.byte	0                       #   On action: cleanup
	.byte	1                       # >> Action Record 1 <<
                                        #   Catch TypeInfo 1
	.byte	0                       #   No further actions
                                        # >> Catch TypeInfos <<
	.long	0                       # TypeInfo 1
	.align	4

	.section	.text._ZN9__gnu_cxxmiIP7outBuffSt6vectorIS1_SaIS1_EEEENS_17__normal_iteratorIT_T0_E15difference_typeERKS9_SC_,"axG",@progbits,_ZN9__gnu_cxxmiIP7outBuffSt6vectorIS1_SaIS1_EEEENS_17__normal_iteratorIT_T0_E15difference_typeERKS9_SC_,comdat
	.weak	_ZN9__gnu_cxxmiIP7outBuffSt6vectorIS1_SaIS1_EEEENS_17__normal_iteratorIT_T0_E15difference_typeERKS9_SC_
	.align	16, 0x90
	.type	_ZN9__gnu_cxxmiIP7outBuffSt6vectorIS1_SaIS1_EEEENS_17__normal_iteratorIT_T0_E15difference_typeERKS9_SC_,@function
_ZN9__gnu_cxxmiIP7outBuffSt6vectorIS1_SaIS1_EEEENS_17__normal_iteratorIT_T0_E15difference_typeERKS9_SC_: # @_ZN9__gnu_cxxmiIP7outBuffSt6vectorIS1_SaIS1_EEEENS_17__normal_iteratorIT_T0_E15difference_typeERKS9_SC_
	.cfi_startproc
.Lfunc_begin40:
	.loc	7 898 0                 # /usr/lib/gcc/x86_64-linux-gnu/4.8/../../../../include/c++/4.8/bits/stl_iterator.h:898:0
# BB#0:                                 # %entry
	pushq	%rbx
.Ltmp751:
	.cfi_def_cfa_offset 16
	subq	$16, %rsp
.Ltmp752:
	.cfi_def_cfa_offset 32
.Ltmp753:
	.cfi_offset %rbx, -16
	movq	%rdi, 8(%rsp)
	movq	%rsi, (%rsp)
	.loc	7 898 0 prologue_end    # /usr/lib/gcc/x86_64-linux-gnu/4.8/../../../../include/c++/4.8/bits/stl_iterator.h:898:0
.Ltmp754:
	movq	8(%rsp), %rdi
	callq	_ZNK9__gnu_cxx17__normal_iteratorIP7outBuffSt6vectorIS1_SaIS1_EEE4baseEv
	movq	(%rax), %rbx
	movq	(%rsp), %rdi
	callq	_ZNK9__gnu_cxx17__normal_iteratorIP7outBuffSt6vectorIS1_SaIS1_EEE4baseEv
	subq	(%rax), %rbx
	sarq	$4, %rbx
	movq	%rbx, %rax
	addq	$16, %rsp
	popq	%rbx
	ret
.Ltmp755:
.Ltmp756:
	.size	_ZN9__gnu_cxxmiIP7outBuffSt6vectorIS1_SaIS1_EEEENS_17__normal_iteratorIT_T0_E15difference_typeERKS9_SC_, .Ltmp756-_ZN9__gnu_cxxmiIP7outBuffSt6vectorIS1_SaIS1_EEEENS_17__normal_iteratorIT_T0_E15difference_typeERKS9_SC_
.Lfunc_end40:
	.cfi_endproc

	.section	.text._ZSt22__uninitialized_move_aIP7outBuffS1_SaIS0_EET0_T_S4_S3_RT1_,"axG",@progbits,_ZSt22__uninitialized_move_aIP7outBuffS1_SaIS0_EET0_T_S4_S3_RT1_,comdat
	.weak	_ZSt22__uninitialized_move_aIP7outBuffS1_SaIS0_EET0_T_S4_S3_RT1_
	.align	16, 0x90
	.type	_ZSt22__uninitialized_move_aIP7outBuffS1_SaIS0_EET0_T_S4_S3_RT1_,@function
_ZSt22__uninitialized_move_aIP7outBuffS1_SaIS0_EET0_T_S4_S3_RT1_: # @_ZSt22__uninitialized_move_aIP7outBuffS1_SaIS0_EET0_T_S4_S3_RT1_
	.cfi_startproc
.Lfunc_begin41:
	.loc	13 265 0                # /usr/lib/gcc/x86_64-linux-gnu/4.8/../../../../include/c++/4.8/bits/stl_uninitialized.h:265:0
# BB#0:                                 # %entry
	subq	$40, %rsp
.Ltmp758:
	.cfi_def_cfa_offset 48
	movq	%rdi, 32(%rsp)
	movq	%rsi, 24(%rsp)
	movq	%rdx, 16(%rsp)
	movq	%rcx, 8(%rsp)
	.loc	13 266 0 prologue_end   # /usr/lib/gcc/x86_64-linux-gnu/4.8/../../../../include/c++/4.8/bits/stl_uninitialized.h:266:0
.Ltmp759:
	movq	16(%rsp), %rdx
	movq	24(%rsp), %rsi
	movq	32(%rsp), %rdi
	callq	_ZSt22__uninitialized_copy_aIP7outBuffS1_S0_ET0_T_S3_S2_RSaIT1_E
	addq	$40, %rsp
	ret
.Ltmp760:
.Ltmp761:
	.size	_ZSt22__uninitialized_move_aIP7outBuffS1_SaIS0_EET0_T_S4_S3_RT1_, .Ltmp761-_ZSt22__uninitialized_move_aIP7outBuffS1_SaIS0_EET0_T_S4_S3_RT1_
.Lfunc_end41:
	.cfi_endproc

	.section	.text._ZSt13copy_backwardIP7outBuffS1_ET0_T_S3_S2_,"axG",@progbits,_ZSt13copy_backwardIP7outBuffS1_ET0_T_S3_S2_,comdat
	.weak	_ZSt13copy_backwardIP7outBuffS1_ET0_T_S3_S2_
	.align	16, 0x90
	.type	_ZSt13copy_backwardIP7outBuffS1_ET0_T_S3_S2_,@function
_ZSt13copy_backwardIP7outBuffS1_ET0_T_S3_S2_: # @_ZSt13copy_backwardIP7outBuffS1_ET0_T_S3_S2_
	.cfi_startproc
.Lfunc_begin42:
	.loc	14 620 0                # /usr/lib/gcc/x86_64-linux-gnu/4.8/../../../../include/c++/4.8/bits/stl_algobase.h:620:0
# BB#0:                                 # %entry
	pushq	%rbx
.Ltmp764:
	.cfi_def_cfa_offset 16
	subq	$32, %rsp
.Ltmp765:
	.cfi_def_cfa_offset 48
.Ltmp766:
	.cfi_offset %rbx, -16
	movq	%rdi, 24(%rsp)
	movq	%rsi, 16(%rsp)
	movq	%rdx, 8(%rsp)
	.loc	14 630 0 prologue_end   # /usr/lib/gcc/x86_64-linux-gnu/4.8/../../../../include/c++/4.8/bits/stl_algobase.h:630:0
.Ltmp767:
	movq	24(%rsp), %rdi
	callq	_ZSt12__miter_baseIP7outBuffENSt11_Miter_baseIT_E13iterator_typeES3_
	movq	%rax, %rbx
	movq	16(%rsp), %rdi
	callq	_ZSt12__miter_baseIP7outBuffENSt11_Miter_baseIT_E13iterator_typeES3_
	movq	8(%rsp), %rdx
	movq	%rbx, %rdi
	movq	%rax, %rsi
	callq	_ZSt23__copy_move_backward_a2ILb0EP7outBuffS1_ET1_T0_S3_S2_
	addq	$32, %rsp
	popq	%rbx
	ret
.Ltmp768:
.Ltmp769:
	.size	_ZSt13copy_backwardIP7outBuffS1_ET0_T_S3_S2_, .Ltmp769-_ZSt13copy_backwardIP7outBuffS1_ET0_T_S3_S2_
.Lfunc_end42:
	.cfi_endproc

	.section	.text._ZNK9__gnu_cxx17__normal_iteratorIP7outBuffSt6vectorIS1_SaIS1_EEE4baseEv,"axG",@progbits,_ZNK9__gnu_cxx17__normal_iteratorIP7outBuffSt6vectorIS1_SaIS1_EEE4baseEv,comdat
	.weak	_ZNK9__gnu_cxx17__normal_iteratorIP7outBuffSt6vectorIS1_SaIS1_EEE4baseEv
	.align	16, 0x90
	.type	_ZNK9__gnu_cxx17__normal_iteratorIP7outBuffSt6vectorIS1_SaIS1_EEE4baseEv,@function
_ZNK9__gnu_cxx17__normal_iteratorIP7outBuffSt6vectorIS1_SaIS1_EEE4baseEv: # @_ZNK9__gnu_cxx17__normal_iteratorIP7outBuffSt6vectorIS1_SaIS1_EEE4baseEv
	.cfi_startproc
.Lfunc_begin43:
	.loc	7 791 0                 # /usr/lib/gcc/x86_64-linux-gnu/4.8/../../../../include/c++/4.8/bits/stl_iterator.h:791:0
# BB#0:                                 # %entry
	movq	%rdi, -8(%rsp)
	.loc	7 791 0 prologue_end    # /usr/lib/gcc/x86_64-linux-gnu/4.8/../../../../include/c++/4.8/bits/stl_iterator.h:791:0
.Ltmp770:
	movq	%rdi, %rax
	ret
.Ltmp771:
.Ltmp772:
	.size	_ZNK9__gnu_cxx17__normal_iteratorIP7outBuffSt6vectorIS1_SaIS1_EEE4baseEv, .Ltmp772-_ZNK9__gnu_cxx17__normal_iteratorIP7outBuffSt6vectorIS1_SaIS1_EEE4baseEv
.Lfunc_end43:
	.cfi_endproc

	.section	.text._ZSt4fillIP7outBuffS0_EvT_S2_RKT0_,"axG",@progbits,_ZSt4fillIP7outBuffS0_EvT_S2_RKT0_,comdat
	.weak	_ZSt4fillIP7outBuffS0_EvT_S2_RKT0_
	.align	16, 0x90
	.type	_ZSt4fillIP7outBuffS0_EvT_S2_RKT0_,@function
_ZSt4fillIP7outBuffS0_EvT_S2_RKT0_:     # @_ZSt4fillIP7outBuffS0_EvT_S2_RKT0_
	.cfi_startproc
.Lfunc_begin44:
	.loc	14 722 0                # /usr/lib/gcc/x86_64-linux-gnu/4.8/../../../../include/c++/4.8/bits/stl_algobase.h:722:0
# BB#0:                                 # %entry
	pushq	%rbx
.Ltmp775:
	.cfi_def_cfa_offset 16
	subq	$32, %rsp
.Ltmp776:
	.cfi_def_cfa_offset 48
.Ltmp777:
	.cfi_offset %rbx, -16
	movq	%rdi, 24(%rsp)
	movq	%rsi, 16(%rsp)
	movq	%rdx, 8(%rsp)
	.loc	14 728 0 prologue_end   # /usr/lib/gcc/x86_64-linux-gnu/4.8/../../../../include/c++/4.8/bits/stl_algobase.h:728:0
.Ltmp778:
	movq	24(%rsp), %rdi
	callq	_ZSt12__niter_baseIP7outBuffENSt11_Niter_baseIT_E13iterator_typeES3_
	movq	%rax, %rbx
	movq	16(%rsp), %rdi
	callq	_ZSt12__niter_baseIP7outBuffENSt11_Niter_baseIT_E13iterator_typeES3_
	movq	8(%rsp), %rdx
	movq	%rbx, %rdi
	movq	%rax, %rsi
	callq	_ZSt8__fill_aIP7outBuffS0_EN9__gnu_cxx11__enable_ifIXntsr11__is_scalarIT0_EE7__valueEvE6__typeET_S7_RKS4_
	.loc	14 730 0                # /usr/lib/gcc/x86_64-linux-gnu/4.8/../../../../include/c++/4.8/bits/stl_algobase.h:730:0
	addq	$32, %rsp
	popq	%rbx
	ret
.Ltmp779:
.Ltmp780:
	.size	_ZSt4fillIP7outBuffS0_EvT_S2_RKT0_, .Ltmp780-_ZSt4fillIP7outBuffS0_EvT_S2_RKT0_
.Lfunc_end44:
	.cfi_endproc

	.section	.text._ZSt24__uninitialized_fill_n_aIP7outBuffmS0_S0_EvT_T0_RKT1_RSaIT2_E,"axG",@progbits,_ZSt24__uninitialized_fill_n_aIP7outBuffmS0_S0_EvT_T0_RKT1_RSaIT2_E,comdat
	.weak	_ZSt24__uninitialized_fill_n_aIP7outBuffmS0_S0_EvT_T0_RKT1_RSaIT2_E
	.align	16, 0x90
	.type	_ZSt24__uninitialized_fill_n_aIP7outBuffmS0_S0_EvT_T0_RKT1_RSaIT2_E,@function
_ZSt24__uninitialized_fill_n_aIP7outBuffmS0_S0_EvT_T0_RKT1_RSaIT2_E: # @_ZSt24__uninitialized_fill_n_aIP7outBuffmS0_S0_EvT_T0_RKT1_RSaIT2_E
	.cfi_startproc
.Lfunc_begin45:
	.loc	13 334 0                # /usr/lib/gcc/x86_64-linux-gnu/4.8/../../../../include/c++/4.8/bits/stl_uninitialized.h:334:0
# BB#0:                                 # %entry
	subq	$40, %rsp
.Ltmp782:
	.cfi_def_cfa_offset 48
	movq	%rdi, 32(%rsp)
	movq	%rsi, 24(%rsp)
	movq	%rdx, 16(%rsp)
	movq	%rcx, 8(%rsp)
	.loc	13 334 0 prologue_end   # /usr/lib/gcc/x86_64-linux-gnu/4.8/../../../../include/c++/4.8/bits/stl_uninitialized.h:334:0
.Ltmp783:
	movq	16(%rsp), %rdx
	movq	24(%rsp), %rsi
	movq	32(%rsp), %rdi
	callq	_ZSt20uninitialized_fill_nIP7outBuffmS0_EvT_T0_RKT1_
	addq	$40, %rsp
	ret
.Ltmp784:
.Ltmp785:
	.size	_ZSt24__uninitialized_fill_n_aIP7outBuffmS0_S0_EvT_T0_RKT1_RSaIT2_E, .Ltmp785-_ZSt24__uninitialized_fill_n_aIP7outBuffmS0_S0_EvT_T0_RKT1_RSaIT2_E
.Lfunc_end45:
	.cfi_endproc

	.section	.text._ZNKSt6vectorI7outBuffSaIS0_EE12_M_check_lenEmPKc,"axG",@progbits,_ZNKSt6vectorI7outBuffSaIS0_EE12_M_check_lenEmPKc,comdat
	.weak	_ZNKSt6vectorI7outBuffSaIS0_EE12_M_check_lenEmPKc
	.align	16, 0x90
	.type	_ZNKSt6vectorI7outBuffSaIS0_EE12_M_check_lenEmPKc,@function
_ZNKSt6vectorI7outBuffSaIS0_EE12_M_check_lenEmPKc: # @_ZNKSt6vectorI7outBuffSaIS0_EE12_M_check_lenEmPKc
	.cfi_startproc
.Lfunc_begin46:
	.loc	5 1337 0                # /usr/lib/gcc/x86_64-linux-gnu/4.8/../../../../include/c++/4.8/bits/stl_vector.h:1337:0
# BB#0:                                 # %entry
	pushq	%r14
.Ltmp789:
	.cfi_def_cfa_offset 16
	pushq	%rbx
.Ltmp790:
	.cfi_def_cfa_offset 24
	subq	$40, %rsp
.Ltmp791:
	.cfi_def_cfa_offset 64
.Ltmp792:
	.cfi_offset %rbx, -24
.Ltmp793:
	.cfi_offset %r14, -16
	movq	%rdi, 32(%rsp)
	movq	%rsi, 24(%rsp)
	movq	%rdx, 16(%rsp)
	movq	32(%rsp), %r14
	.loc	5 1338 0 prologue_end   # /usr/lib/gcc/x86_64-linux-gnu/4.8/../../../../include/c++/4.8/bits/stl_vector.h:1338:0
.Ltmp794:
	movq	%r14, %rdi
	callq	_ZNKSt6vectorI7outBuffSaIS0_EE8max_sizeEv
	movq	%rax, %rbx
	movq	%r14, %rdi
	callq	_ZNKSt6vectorI7outBuffSaIS0_EE4sizeEv
	subq	%rax, %rbx
	cmpq	24(%rsp), %rbx
	jb	.LBB46_6
# BB#1:                                 # %if.end
.Ltmp795:
	#DEBUG_VALUE: __len <- [%rsp+$8]+$0
	.loc	5 1341 0                # /usr/lib/gcc/x86_64-linux-gnu/4.8/../../../../include/c++/4.8/bits/stl_vector.h:1341:0
	movq	%r14, %rdi
	callq	_ZNKSt6vectorI7outBuffSaIS0_EE4sizeEv
	movq	%rax, %rbx
	movq	%r14, %rdi
	callq	_ZNKSt6vectorI7outBuffSaIS0_EE4sizeEv
	movq	%rax, (%rsp)
	leaq	(%rsp), %rdi
	leaq	24(%rsp), %rsi
	callq	_ZSt3maxImERKT_S2_S2_
	addq	(%rax), %rbx
	movq	%rbx, 8(%rsp)
	.loc	5 1342 0                # /usr/lib/gcc/x86_64-linux-gnu/4.8/../../../../include/c++/4.8/bits/stl_vector.h:1342:0
	movq	%r14, %rdi
	callq	_ZNKSt6vectorI7outBuffSaIS0_EE4sizeEv
	.loc	5 1341 0                # /usr/lib/gcc/x86_64-linux-gnu/4.8/../../../../include/c++/4.8/bits/stl_vector.h:1341:0
	cmpq	%rax, %rbx
	jb	.LBB46_3
# BB#2:                                 # %lor.lhs.false
	.loc	5 1342 0                # /usr/lib/gcc/x86_64-linux-gnu/4.8/../../../../include/c++/4.8/bits/stl_vector.h:1342:0
	movq	8(%rsp), %rbx
	movq	%r14, %rdi
	callq	_ZNKSt6vectorI7outBuffSaIS0_EE8max_sizeEv
	cmpq	%rax, %rbx
	jbe	.LBB46_4
.LBB46_3:                               # %cond.true
	movq	%r14, %rdi
	callq	_ZNKSt6vectorI7outBuffSaIS0_EE8max_sizeEv
	jmp	.LBB46_5
.LBB46_4:                               # %cond.false
	movq	8(%rsp), %rax
.LBB46_5:                               # %cond.end
	addq	$40, %rsp
	popq	%rbx
	popq	%r14
	ret
.LBB46_6:                               # %if.then
	.loc	5 1339 0                # /usr/lib/gcc/x86_64-linux-gnu/4.8/../../../../include/c++/4.8/bits/stl_vector.h:1339:0
	movq	16(%rsp), %rdi
	callq	_ZSt20__throw_length_errorPKc
.Ltmp796:
.Ltmp797:
	.size	_ZNKSt6vectorI7outBuffSaIS0_EE12_M_check_lenEmPKc, .Ltmp797-_ZNKSt6vectorI7outBuffSaIS0_EE12_M_check_lenEmPKc
.Lfunc_end46:
	.cfi_endproc

	.section	.text._ZNSt6vectorI7outBuffSaIS0_EE5beginEv,"axG",@progbits,_ZNSt6vectorI7outBuffSaIS0_EE5beginEv,comdat
	.weak	_ZNSt6vectorI7outBuffSaIS0_EE5beginEv
	.align	16, 0x90
	.type	_ZNSt6vectorI7outBuffSaIS0_EE5beginEv,@function
_ZNSt6vectorI7outBuffSaIS0_EE5beginEv:  # @_ZNSt6vectorI7outBuffSaIS0_EE5beginEv
	.cfi_startproc
.Lfunc_begin47:
	.loc	5 539 0                 # /usr/lib/gcc/x86_64-linux-gnu/4.8/../../../../include/c++/4.8/bits/stl_vector.h:539:0
# BB#0:                                 # %entry
	subq	$24, %rsp
.Ltmp799:
	.cfi_def_cfa_offset 32
	movq	%rdi, %rax
	movq	%rax, 8(%rsp)
	leaq	16(%rsp), %rdi
	.loc	5 539 0 prologue_end    # /usr/lib/gcc/x86_64-linux-gnu/4.8/../../../../include/c++/4.8/bits/stl_vector.h:539:0
.Ltmp800:
	movq	%rax, %rsi
	callq	_ZN9__gnu_cxx17__normal_iteratorIP7outBuffSt6vectorIS1_SaIS1_EEEC1ERKS2_
	movq	16(%rsp), %rax
	addq	$24, %rsp
	ret
.Ltmp801:
.Ltmp802:
	.size	_ZNSt6vectorI7outBuffSaIS0_EE5beginEv, .Ltmp802-_ZNSt6vectorI7outBuffSaIS0_EE5beginEv
.Lfunc_end47:
	.cfi_endproc

	.section	.text._ZNSt12_Vector_baseI7outBuffSaIS0_EE11_M_allocateEm,"axG",@progbits,_ZNSt12_Vector_baseI7outBuffSaIS0_EE11_M_allocateEm,comdat
	.weak	_ZNSt12_Vector_baseI7outBuffSaIS0_EE11_M_allocateEm
	.align	16, 0x90
	.type	_ZNSt12_Vector_baseI7outBuffSaIS0_EE11_M_allocateEm,@function
_ZNSt12_Vector_baseI7outBuffSaIS0_EE11_M_allocateEm: # @_ZNSt12_Vector_baseI7outBuffSaIS0_EE11_M_allocateEm
	.cfi_startproc
.Lfunc_begin48:
	.loc	5 168 0                 # /usr/lib/gcc/x86_64-linux-gnu/4.8/../../../../include/c++/4.8/bits/stl_vector.h:168:0
# BB#0:                                 # %entry
	subq	$24, %rsp
.Ltmp804:
	.cfi_def_cfa_offset 32
	movq	%rdi, 16(%rsp)
	movq	%rsi, 8(%rsp)
	testq	%rsi, %rsi
	je	.LBB48_1
# BB#2:                                 # %cond.true
	movq	16(%rsp), %rdi
	.loc	5 168 0 prologue_end    # /usr/lib/gcc/x86_64-linux-gnu/4.8/../../../../include/c++/4.8/bits/stl_vector.h:168:0
.Ltmp805:
	movq	8(%rsp), %rsi
	xorl	%edx, %edx
	callq	_ZN9__gnu_cxx13new_allocatorI7outBuffE8allocateEmPKv
	addq	$24, %rsp
	ret
.LBB48_1:
	xorl	%eax, %eax
	addq	$24, %rsp
	ret
.Ltmp806:
.Ltmp807:
	.size	_ZNSt12_Vector_baseI7outBuffSaIS0_EE11_M_allocateEm, .Ltmp807-_ZNSt12_Vector_baseI7outBuffSaIS0_EE11_M_allocateEm
.Lfunc_end48:
	.cfi_endproc

	.section	.text._ZSt34__uninitialized_move_if_noexcept_aIP7outBuffS1_SaIS0_EET0_T_S4_S3_RT1_,"axG",@progbits,_ZSt34__uninitialized_move_if_noexcept_aIP7outBuffS1_SaIS0_EET0_T_S4_S3_RT1_,comdat
	.weak	_ZSt34__uninitialized_move_if_noexcept_aIP7outBuffS1_SaIS0_EET0_T_S4_S3_RT1_
	.align	16, 0x90
	.type	_ZSt34__uninitialized_move_if_noexcept_aIP7outBuffS1_SaIS0_EET0_T_S4_S3_RT1_,@function
_ZSt34__uninitialized_move_if_noexcept_aIP7outBuffS1_SaIS0_EET0_T_S4_S3_RT1_: # @_ZSt34__uninitialized_move_if_noexcept_aIP7outBuffS1_SaIS0_EET0_T_S4_S3_RT1_
	.cfi_startproc
.Lfunc_begin49:
	.loc	13 278 0                # /usr/lib/gcc/x86_64-linux-gnu/4.8/../../../../include/c++/4.8/bits/stl_uninitialized.h:278:0
# BB#0:                                 # %entry
	subq	$40, %rsp
.Ltmp809:
	.cfi_def_cfa_offset 48
	movq	%rdi, 32(%rsp)
	movq	%rsi, 24(%rsp)
	movq	%rdx, 16(%rsp)
	movq	%rcx, 8(%rsp)
	.loc	13 279 0 prologue_end   # /usr/lib/gcc/x86_64-linux-gnu/4.8/../../../../include/c++/4.8/bits/stl_uninitialized.h:279:0
.Ltmp810:
	movq	16(%rsp), %rdx
	movq	24(%rsp), %rsi
	movq	32(%rsp), %rdi
	callq	_ZSt22__uninitialized_copy_aIP7outBuffS1_S0_ET0_T_S3_S2_RSaIT1_E
	addq	$40, %rsp
	ret
.Ltmp811:
.Ltmp812:
	.size	_ZSt34__uninitialized_move_if_noexcept_aIP7outBuffS1_SaIS0_EET0_T_S4_S3_RT1_, .Ltmp812-_ZSt34__uninitialized_move_if_noexcept_aIP7outBuffS1_SaIS0_EET0_T_S4_S3_RT1_
.Lfunc_end49:
	.cfi_endproc

	.section	.text._ZNSt12_Vector_baseI7outBuffSaIS0_EE13_M_deallocateEPS0_m,"axG",@progbits,_ZNSt12_Vector_baseI7outBuffSaIS0_EE13_M_deallocateEPS0_m,comdat
	.weak	_ZNSt12_Vector_baseI7outBuffSaIS0_EE13_M_deallocateEPS0_m
	.align	16, 0x90
	.type	_ZNSt12_Vector_baseI7outBuffSaIS0_EE13_M_deallocateEPS0_m,@function
_ZNSt12_Vector_baseI7outBuffSaIS0_EE13_M_deallocateEPS0_m: # @_ZNSt12_Vector_baseI7outBuffSaIS0_EE13_M_deallocateEPS0_m
	.cfi_startproc
.Lfunc_begin50:
	.loc	5 172 0                 # /usr/lib/gcc/x86_64-linux-gnu/4.8/../../../../include/c++/4.8/bits/stl_vector.h:172:0
# BB#0:                                 # %entry
	subq	$24, %rsp
.Ltmp814:
	.cfi_def_cfa_offset 32
	movq	%rdi, 16(%rsp)
	movq	%rsi, 8(%rsp)
	movq	%rdx, (%rsp)
	.loc	5 173 0 prologue_end    # /usr/lib/gcc/x86_64-linux-gnu/4.8/../../../../include/c++/4.8/bits/stl_vector.h:173:0
.Ltmp815:
	cmpq	$0, 8(%rsp)
	je	.LBB50_2
# BB#1:                                 # %if.then
	movq	16(%rsp), %rdi
	.loc	5 174 0                 # /usr/lib/gcc/x86_64-linux-gnu/4.8/../../../../include/c++/4.8/bits/stl_vector.h:174:0
	movq	(%rsp), %rdx
	movq	8(%rsp), %rsi
	callq	_ZN9__gnu_cxx13new_allocatorI7outBuffE10deallocateEPS1_m
.LBB50_2:                               # %if.end
	.loc	5 175 0                 # /usr/lib/gcc/x86_64-linux-gnu/4.8/../../../../include/c++/4.8/bits/stl_vector.h:175:0
	addq	$24, %rsp
	ret
.Ltmp816:
.Ltmp817:
	.size	_ZNSt12_Vector_baseI7outBuffSaIS0_EE13_M_deallocateEPS0_m, .Ltmp817-_ZNSt12_Vector_baseI7outBuffSaIS0_EE13_M_deallocateEPS0_m
.Lfunc_end50:
	.cfi_endproc

	.section	.text._ZN9__gnu_cxx13new_allocatorI7outBuffE10deallocateEPS1_m,"axG",@progbits,_ZN9__gnu_cxx13new_allocatorI7outBuffE10deallocateEPS1_m,comdat
	.weak	_ZN9__gnu_cxx13new_allocatorI7outBuffE10deallocateEPS1_m
	.align	16, 0x90
	.type	_ZN9__gnu_cxx13new_allocatorI7outBuffE10deallocateEPS1_m,@function
_ZN9__gnu_cxx13new_allocatorI7outBuffE10deallocateEPS1_m: # @_ZN9__gnu_cxx13new_allocatorI7outBuffE10deallocateEPS1_m
	.cfi_startproc
.Lfunc_begin51:
	.loc	2 110 0                 # /usr/lib/gcc/x86_64-linux-gnu/4.8/../../../../include/c++/4.8/ext/new_allocator.h:110:0
# BB#0:                                 # %entry
	subq	$24, %rsp
.Ltmp819:
	.cfi_def_cfa_offset 32
	movq	%rdi, 16(%rsp)
	movq	%rsi, 8(%rsp)
	movq	%rdx, (%rsp)
	.loc	2 110 0 prologue_end    # /usr/lib/gcc/x86_64-linux-gnu/4.8/../../../../include/c++/4.8/ext/new_allocator.h:110:0
.Ltmp820:
	movq	8(%rsp), %rdi
	callq	_ZdlPv
	addq	$24, %rsp
	ret
.Ltmp821:
.Ltmp822:
	.size	_ZN9__gnu_cxx13new_allocatorI7outBuffE10deallocateEPS1_m, .Ltmp822-_ZN9__gnu_cxx13new_allocatorI7outBuffE10deallocateEPS1_m
.Lfunc_end51:
	.cfi_endproc

	.section	.text._ZSt22__uninitialized_copy_aIP7outBuffS1_S0_ET0_T_S3_S2_RSaIT1_E,"axG",@progbits,_ZSt22__uninitialized_copy_aIP7outBuffS1_S0_ET0_T_S3_S2_RSaIT1_E,comdat
	.weak	_ZSt22__uninitialized_copy_aIP7outBuffS1_S0_ET0_T_S3_S2_RSaIT1_E
	.align	16, 0x90
	.type	_ZSt22__uninitialized_copy_aIP7outBuffS1_S0_ET0_T_S3_S2_RSaIT1_E,@function
_ZSt22__uninitialized_copy_aIP7outBuffS1_S0_ET0_T_S3_S2_RSaIT1_E: # @_ZSt22__uninitialized_copy_aIP7outBuffS1_S0_ET0_T_S3_S2_RSaIT1_E
	.cfi_startproc
.Lfunc_begin52:
	.loc	13 258 0                # /usr/lib/gcc/x86_64-linux-gnu/4.8/../../../../include/c++/4.8/bits/stl_uninitialized.h:258:0
# BB#0:                                 # %entry
	subq	$40, %rsp
.Ltmp824:
	.cfi_def_cfa_offset 48
	movq	%rdi, 32(%rsp)
	movq	%rsi, 24(%rsp)
	movq	%rdx, 16(%rsp)
	movq	%rcx, 8(%rsp)
	.loc	13 258 0 prologue_end   # /usr/lib/gcc/x86_64-linux-gnu/4.8/../../../../include/c++/4.8/bits/stl_uninitialized.h:258:0
.Ltmp825:
	movq	16(%rsp), %rdx
	movq	24(%rsp), %rsi
	movq	32(%rsp), %rdi
	callq	_ZSt18uninitialized_copyIP7outBuffS1_ET0_T_S3_S2_
	addq	$40, %rsp
	ret
.Ltmp826:
.Ltmp827:
	.size	_ZSt22__uninitialized_copy_aIP7outBuffS1_S0_ET0_T_S3_S2_RSaIT1_E, .Ltmp827-_ZSt22__uninitialized_copy_aIP7outBuffS1_S0_ET0_T_S3_S2_RSaIT1_E
.Lfunc_end52:
	.cfi_endproc

	.section	.text._ZSt18uninitialized_copyIP7outBuffS1_ET0_T_S3_S2_,"axG",@progbits,_ZSt18uninitialized_copyIP7outBuffS1_ET0_T_S3_S2_,comdat
	.weak	_ZSt18uninitialized_copyIP7outBuffS1_ET0_T_S3_S2_
	.align	16, 0x90
	.type	_ZSt18uninitialized_copyIP7outBuffS1_ET0_T_S3_S2_,@function
_ZSt18uninitialized_copyIP7outBuffS1_ET0_T_S3_S2_: # @_ZSt18uninitialized_copyIP7outBuffS1_ET0_T_S3_S2_
	.cfi_startproc
.Lfunc_begin53:
	.loc	13 109 0                # /usr/lib/gcc/x86_64-linux-gnu/4.8/../../../../include/c++/4.8/bits/stl_uninitialized.h:109:0
# BB#0:                                 # %entry
	subq	$24, %rsp
.Ltmp829:
	.cfi_def_cfa_offset 32
	movq	%rdi, 16(%rsp)
	movq	%rsi, 8(%rsp)
	movq	%rdx, (%rsp)
	.loc	13 115 0 prologue_end   # /usr/lib/gcc/x86_64-linux-gnu/4.8/../../../../include/c++/4.8/bits/stl_uninitialized.h:115:0
.Ltmp830:
	movq	8(%rsp), %rsi
	movq	16(%rsp), %rdi
	callq	_ZNSt20__uninitialized_copyILb1EE13__uninit_copyIP7outBuffS3_EET0_T_S5_S4_
	addq	$24, %rsp
	ret
.Ltmp831:
.Ltmp832:
	.size	_ZSt18uninitialized_copyIP7outBuffS1_ET0_T_S3_S2_, .Ltmp832-_ZSt18uninitialized_copyIP7outBuffS1_ET0_T_S3_S2_
.Lfunc_end53:
	.cfi_endproc

	.section	.text._ZNSt20__uninitialized_copyILb1EE13__uninit_copyIP7outBuffS3_EET0_T_S5_S4_,"axG",@progbits,_ZNSt20__uninitialized_copyILb1EE13__uninit_copyIP7outBuffS3_EET0_T_S5_S4_,comdat
	.weak	_ZNSt20__uninitialized_copyILb1EE13__uninit_copyIP7outBuffS3_EET0_T_S5_S4_
	.align	16, 0x90
	.type	_ZNSt20__uninitialized_copyILb1EE13__uninit_copyIP7outBuffS3_EET0_T_S5_S4_,@function
_ZNSt20__uninitialized_copyILb1EE13__uninit_copyIP7outBuffS3_EET0_T_S5_S4_: # @_ZNSt20__uninitialized_copyILb1EE13__uninit_copyIP7outBuffS3_EET0_T_S5_S4_
	.cfi_startproc
.Lfunc_begin54:
	.loc	13 93 0                 # /usr/lib/gcc/x86_64-linux-gnu/4.8/../../../../include/c++/4.8/bits/stl_uninitialized.h:93:0
# BB#0:                                 # %entry
	subq	$24, %rsp
.Ltmp834:
	.cfi_def_cfa_offset 32
	movq	%rdi, 16(%rsp)
	movq	%rsi, 8(%rsp)
	movq	%rdx, (%rsp)
	.loc	13 93 0 prologue_end    # /usr/lib/gcc/x86_64-linux-gnu/4.8/../../../../include/c++/4.8/bits/stl_uninitialized.h:93:0
.Ltmp835:
	movq	8(%rsp), %rsi
	movq	16(%rsp), %rdi
	callq	_ZSt4copyIP7outBuffS1_ET0_T_S3_S2_
	addq	$24, %rsp
	ret
.Ltmp836:
.Ltmp837:
	.size	_ZNSt20__uninitialized_copyILb1EE13__uninit_copyIP7outBuffS3_EET0_T_S5_S4_, .Ltmp837-_ZNSt20__uninitialized_copyILb1EE13__uninit_copyIP7outBuffS3_EET0_T_S5_S4_
.Lfunc_end54:
	.cfi_endproc

	.section	.text._ZSt4copyIP7outBuffS1_ET0_T_S3_S2_,"axG",@progbits,_ZSt4copyIP7outBuffS1_ET0_T_S3_S2_,comdat
	.weak	_ZSt4copyIP7outBuffS1_ET0_T_S3_S2_
	.align	16, 0x90
	.type	_ZSt4copyIP7outBuffS1_ET0_T_S3_S2_,@function
_ZSt4copyIP7outBuffS1_ET0_T_S3_S2_:     # @_ZSt4copyIP7outBuffS1_ET0_T_S3_S2_
	.cfi_startproc
.Lfunc_begin55:
	.loc	14 451 0                # /usr/lib/gcc/x86_64-linux-gnu/4.8/../../../../include/c++/4.8/bits/stl_algobase.h:451:0
# BB#0:                                 # %entry
	pushq	%rbx
.Ltmp840:
	.cfi_def_cfa_offset 16
	subq	$32, %rsp
.Ltmp841:
	.cfi_def_cfa_offset 48
.Ltmp842:
	.cfi_offset %rbx, -16
	movq	%rdi, 24(%rsp)
	movq	%rsi, 16(%rsp)
	movq	%rdx, 8(%rsp)
	.loc	14 459 0 prologue_end   # /usr/lib/gcc/x86_64-linux-gnu/4.8/../../../../include/c++/4.8/bits/stl_algobase.h:459:0
.Ltmp843:
	movq	24(%rsp), %rdi
	callq	_ZSt12__miter_baseIP7outBuffENSt11_Miter_baseIT_E13iterator_typeES3_
	movq	%rax, %rbx
	movq	16(%rsp), %rdi
	callq	_ZSt12__miter_baseIP7outBuffENSt11_Miter_baseIT_E13iterator_typeES3_
	movq	8(%rsp), %rdx
	movq	%rbx, %rdi
	movq	%rax, %rsi
	callq	_ZSt14__copy_move_a2ILb0EP7outBuffS1_ET1_T0_S3_S2_
	addq	$32, %rsp
	popq	%rbx
	ret
.Ltmp844:
.Ltmp845:
	.size	_ZSt4copyIP7outBuffS1_ET0_T_S3_S2_, .Ltmp845-_ZSt4copyIP7outBuffS1_ET0_T_S3_S2_
.Lfunc_end55:
	.cfi_endproc

	.section	.text._ZSt14__copy_move_a2ILb0EP7outBuffS1_ET1_T0_S3_S2_,"axG",@progbits,_ZSt14__copy_move_a2ILb0EP7outBuffS1_ET1_T0_S3_S2_,comdat
	.weak	_ZSt14__copy_move_a2ILb0EP7outBuffS1_ET1_T0_S3_S2_
	.align	16, 0x90
	.type	_ZSt14__copy_move_a2ILb0EP7outBuffS1_ET1_T0_S3_S2_,@function
_ZSt14__copy_move_a2ILb0EP7outBuffS1_ET1_T0_S3_S2_: # @_ZSt14__copy_move_a2ILb0EP7outBuffS1_ET1_T0_S3_S2_
	.cfi_startproc
.Lfunc_begin56:
	.loc	14 425 0                # /usr/lib/gcc/x86_64-linux-gnu/4.8/../../../../include/c++/4.8/bits/stl_algobase.h:425:0
# BB#0:                                 # %entry
	pushq	%r14
.Ltmp849:
	.cfi_def_cfa_offset 16
	pushq	%rbx
.Ltmp850:
	.cfi_def_cfa_offset 24
	subq	$24, %rsp
.Ltmp851:
	.cfi_def_cfa_offset 48
.Ltmp852:
	.cfi_offset %rbx, -24
.Ltmp853:
	.cfi_offset %r14, -16
	movq	%rdi, 16(%rsp)
	movq	%rsi, 8(%rsp)
	movq	%rdx, (%rsp)
	.loc	14 426 0 prologue_end   # /usr/lib/gcc/x86_64-linux-gnu/4.8/../../../../include/c++/4.8/bits/stl_algobase.h:426:0
.Ltmp854:
	movq	16(%rsp), %rdi
	callq	_ZSt12__niter_baseIP7outBuffENSt11_Niter_baseIT_E13iterator_typeES3_
	movq	%rax, %r14
	.loc	14 427 0                # /usr/lib/gcc/x86_64-linux-gnu/4.8/../../../../include/c++/4.8/bits/stl_algobase.h:427:0
	movq	8(%rsp), %rdi
	callq	_ZSt12__niter_baseIP7outBuffENSt11_Niter_baseIT_E13iterator_typeES3_
	movq	%rax, %rbx
	.loc	14 428 0                # /usr/lib/gcc/x86_64-linux-gnu/4.8/../../../../include/c++/4.8/bits/stl_algobase.h:428:0
	movq	(%rsp), %rdi
	callq	_ZSt12__niter_baseIP7outBuffENSt11_Niter_baseIT_E13iterator_typeES3_
	movq	%r14, %rdi
	movq	%rbx, %rsi
	movq	%rax, %rdx
	callq	_ZSt13__copy_move_aILb0EP7outBuffS1_ET1_T0_S3_S2_
	addq	$24, %rsp
	popq	%rbx
	popq	%r14
	ret
.Ltmp855:
.Ltmp856:
	.size	_ZSt14__copy_move_a2ILb0EP7outBuffS1_ET1_T0_S3_S2_, .Ltmp856-_ZSt14__copy_move_a2ILb0EP7outBuffS1_ET1_T0_S3_S2_
.Lfunc_end56:
	.cfi_endproc

	.section	.text._ZSt12__miter_baseIP7outBuffENSt11_Miter_baseIT_E13iterator_typeES3_,"axG",@progbits,_ZSt12__miter_baseIP7outBuffENSt11_Miter_baseIT_E13iterator_typeES3_,comdat
	.weak	_ZSt12__miter_baseIP7outBuffENSt11_Miter_baseIT_E13iterator_typeES3_
	.align	16, 0x90
	.type	_ZSt12__miter_baseIP7outBuffENSt11_Miter_baseIT_E13iterator_typeES3_,@function
_ZSt12__miter_baseIP7outBuffENSt11_Miter_baseIT_E13iterator_typeES3_: # @_ZSt12__miter_baseIP7outBuffENSt11_Miter_baseIT_E13iterator_typeES3_
	.cfi_startproc
.Lfunc_begin57:
	.loc	14 289 0                # /usr/lib/gcc/x86_64-linux-gnu/4.8/../../../../include/c++/4.8/bits/stl_algobase.h:289:0
# BB#0:                                 # %entry
	pushq	%rax
.Ltmp858:
	.cfi_def_cfa_offset 16
	movq	%rdi, (%rsp)
	.loc	14 289 0 prologue_end   # /usr/lib/gcc/x86_64-linux-gnu/4.8/../../../../include/c++/4.8/bits/stl_algobase.h:289:0
.Ltmp859:
	callq	_ZNSt10_Iter_baseIP7outBuffLb0EE7_S_baseES1_
	popq	%rdx
	ret
.Ltmp860:
.Ltmp861:
	.size	_ZSt12__miter_baseIP7outBuffENSt11_Miter_baseIT_E13iterator_typeES3_, .Ltmp861-_ZSt12__miter_baseIP7outBuffENSt11_Miter_baseIT_E13iterator_typeES3_
.Lfunc_end57:
	.cfi_endproc

	.section	.text._ZNSt10_Iter_baseIP7outBuffLb0EE7_S_baseES1_,"axG",@progbits,_ZNSt10_Iter_baseIP7outBuffLb0EE7_S_baseES1_,comdat
	.weak	_ZNSt10_Iter_baseIP7outBuffLb0EE7_S_baseES1_
	.align	16, 0x90
	.type	_ZNSt10_Iter_baseIP7outBuffLb0EE7_S_baseES1_,@function
_ZNSt10_Iter_baseIP7outBuffLb0EE7_S_baseES1_: # @_ZNSt10_Iter_baseIP7outBuffLb0EE7_S_baseES1_
	.cfi_startproc
.Lfunc_begin58:
	.loc	8 212 0                 # /usr/lib/gcc/x86_64-linux-gnu/4.8/../../../../include/c++/4.8/bits/stl_iterator_base_types.h:212:0
# BB#0:                                 # %entry
	movq	%rdi, -8(%rsp)
	.loc	8 212 0 prologue_end    # /usr/lib/gcc/x86_64-linux-gnu/4.8/../../../../include/c++/4.8/bits/stl_iterator_base_types.h:212:0
.Ltmp862:
	movq	%rdi, %rax
	ret
.Ltmp863:
.Ltmp864:
	.size	_ZNSt10_Iter_baseIP7outBuffLb0EE7_S_baseES1_, .Ltmp864-_ZNSt10_Iter_baseIP7outBuffLb0EE7_S_baseES1_
.Lfunc_end58:
	.cfi_endproc

	.section	.text._ZSt13__copy_move_aILb0EP7outBuffS1_ET1_T0_S3_S2_,"axG",@progbits,_ZSt13__copy_move_aILb0EP7outBuffS1_ET1_T0_S3_S2_,comdat
	.weak	_ZSt13__copy_move_aILb0EP7outBuffS1_ET1_T0_S3_S2_
	.align	16, 0x90
	.type	_ZSt13__copy_move_aILb0EP7outBuffS1_ET1_T0_S3_S2_,@function
_ZSt13__copy_move_aILb0EP7outBuffS1_ET1_T0_S3_S2_: # @_ZSt13__copy_move_aILb0EP7outBuffS1_ET1_T0_S3_S2_
	.cfi_startproc
.Lfunc_begin59:
	.loc	14 380 0                # /usr/lib/gcc/x86_64-linux-gnu/4.8/../../../../include/c++/4.8/bits/stl_algobase.h:380:0
# BB#0:                                 # %entry
	subq	$40, %rsp
.Ltmp866:
	.cfi_def_cfa_offset 48
	movq	%rdi, 32(%rsp)
	movq	%rsi, 24(%rsp)
	movq	%rdx, 16(%rsp)
	.loc	14 387 0 prologue_end   # /usr/lib/gcc/x86_64-linux-gnu/4.8/../../../../include/c++/4.8/bits/stl_algobase.h:387:0
.Ltmp867:
	movb	$1, 15(%rsp)
	.loc	14 389 0                # /usr/lib/gcc/x86_64-linux-gnu/4.8/../../../../include/c++/4.8/bits/stl_algobase.h:389:0
	movq	16(%rsp), %rdx
	movq	24(%rsp), %rsi
	movq	32(%rsp), %rdi
	callq	_ZNSt11__copy_moveILb0ELb1ESt26random_access_iterator_tagE8__copy_mI7outBuffEEPT_PKS4_S7_S5_
	addq	$40, %rsp
	ret
.Ltmp868:
.Ltmp869:
	.size	_ZSt13__copy_move_aILb0EP7outBuffS1_ET1_T0_S3_S2_, .Ltmp869-_ZSt13__copy_move_aILb0EP7outBuffS1_ET1_T0_S3_S2_
.Lfunc_end59:
	.cfi_endproc

	.section	.text._ZSt12__niter_baseIP7outBuffENSt11_Niter_baseIT_E13iterator_typeES3_,"axG",@progbits,_ZSt12__niter_baseIP7outBuffENSt11_Niter_baseIT_E13iterator_typeES3_,comdat
	.weak	_ZSt12__niter_baseIP7outBuffENSt11_Niter_baseIT_E13iterator_typeES3_
	.align	16, 0x90
	.type	_ZSt12__niter_baseIP7outBuffENSt11_Niter_baseIT_E13iterator_typeES3_,@function
_ZSt12__niter_baseIP7outBuffENSt11_Niter_baseIT_E13iterator_typeES3_: # @_ZSt12__niter_baseIP7outBuffENSt11_Niter_baseIT_E13iterator_typeES3_
	.cfi_startproc
.Lfunc_begin60:
	.loc	14 278 0                # /usr/lib/gcc/x86_64-linux-gnu/4.8/../../../../include/c++/4.8/bits/stl_algobase.h:278:0
# BB#0:                                 # %entry
	pushq	%rax
.Ltmp871:
	.cfi_def_cfa_offset 16
	movq	%rdi, (%rsp)
	.loc	14 278 0 prologue_end   # /usr/lib/gcc/x86_64-linux-gnu/4.8/../../../../include/c++/4.8/bits/stl_algobase.h:278:0
.Ltmp872:
	callq	_ZNSt10_Iter_baseIP7outBuffLb0EE7_S_baseES1_
	popq	%rdx
	ret
.Ltmp873:
.Ltmp874:
	.size	_ZSt12__niter_baseIP7outBuffENSt11_Niter_baseIT_E13iterator_typeES3_, .Ltmp874-_ZSt12__niter_baseIP7outBuffENSt11_Niter_baseIT_E13iterator_typeES3_
.Lfunc_end60:
	.cfi_endproc

	.section	.text._ZNSt11__copy_moveILb0ELb1ESt26random_access_iterator_tagE8__copy_mI7outBuffEEPT_PKS4_S7_S5_,"axG",@progbits,_ZNSt11__copy_moveILb0ELb1ESt26random_access_iterator_tagE8__copy_mI7outBuffEEPT_PKS4_S7_S5_,comdat
	.weak	_ZNSt11__copy_moveILb0ELb1ESt26random_access_iterator_tagE8__copy_mI7outBuffEEPT_PKS4_S7_S5_
	.align	16, 0x90
	.type	_ZNSt11__copy_moveILb0ELb1ESt26random_access_iterator_tagE8__copy_mI7outBuffEEPT_PKS4_S7_S5_,@function
_ZNSt11__copy_moveILb0ELb1ESt26random_access_iterator_tagE8__copy_mI7outBuffEEPT_PKS4_S7_S5_: # @_ZNSt11__copy_moveILb0ELb1ESt26random_access_iterator_tagE8__copy_mI7outBuffEEPT_PKS4_S7_S5_
	.cfi_startproc
.Lfunc_begin61:
	.loc	14 369 0                # /usr/lib/gcc/x86_64-linux-gnu/4.8/../../../../include/c++/4.8/bits/stl_algobase.h:369:0
# BB#0:                                 # %entry
	subq	$40, %rsp
.Ltmp876:
	.cfi_def_cfa_offset 48
	movq	%rdi, 32(%rsp)
	movq	%rsi, 24(%rsp)
	movq	%rdx, 16(%rsp)
	.loc	14 370 0 prologue_end   # /usr/lib/gcc/x86_64-linux-gnu/4.8/../../../../include/c++/4.8/bits/stl_algobase.h:370:0
.Ltmp877:
	movq	24(%rsp), %rax
	subq	32(%rsp), %rax
	sarq	$4, %rax
	movq	%rax, 8(%rsp)
	testq	%rax, %rax
	je	.LBB61_2
# BB#1:                                 # %if.then
	.loc	14 372 0                # /usr/lib/gcc/x86_64-linux-gnu/4.8/../../../../include/c++/4.8/bits/stl_algobase.h:372:0
	movq	8(%rsp), %rdx
	shlq	$4, %rdx
	movq	32(%rsp), %rsi
	movq	16(%rsp), %rdi
	callq	memmove
.LBB61_2:                               # %if.end
	.loc	14 373 0                # /usr/lib/gcc/x86_64-linux-gnu/4.8/../../../../include/c++/4.8/bits/stl_algobase.h:373:0
	movq	8(%rsp), %rax
	shlq	$4, %rax
	addq	16(%rsp), %rax
	addq	$40, %rsp
	ret
.Ltmp878:
.Ltmp879:
	.size	_ZNSt11__copy_moveILb0ELb1ESt26random_access_iterator_tagE8__copy_mI7outBuffEEPT_PKS4_S7_S5_, .Ltmp879-_ZNSt11__copy_moveILb0ELb1ESt26random_access_iterator_tagE8__copy_mI7outBuffEEPT_PKS4_S7_S5_
.Lfunc_end61:
	.cfi_endproc

	.section	.text._ZN9__gnu_cxx13new_allocatorI7outBuffE8allocateEmPKv,"axG",@progbits,_ZN9__gnu_cxx13new_allocatorI7outBuffE8allocateEmPKv,comdat
	.weak	_ZN9__gnu_cxx13new_allocatorI7outBuffE8allocateEmPKv
	.align	16, 0x90
	.type	_ZN9__gnu_cxx13new_allocatorI7outBuffE8allocateEmPKv,@function
_ZN9__gnu_cxx13new_allocatorI7outBuffE8allocateEmPKv: # @_ZN9__gnu_cxx13new_allocatorI7outBuffE8allocateEmPKv
	.cfi_startproc
.Lfunc_begin62:
	.loc	2 100 0                 # /usr/lib/gcc/x86_64-linux-gnu/4.8/../../../../include/c++/4.8/ext/new_allocator.h:100:0
# BB#0:                                 # %entry
	pushq	%rbx
.Ltmp882:
	.cfi_def_cfa_offset 16
	subq	$32, %rsp
.Ltmp883:
	.cfi_def_cfa_offset 48
.Ltmp884:
	.cfi_offset %rbx, -16
	movq	%rdi, 24(%rsp)
	movq	%rsi, 16(%rsp)
	movq	%rdx, 8(%rsp)
	.loc	2 101 0 prologue_end    # /usr/lib/gcc/x86_64-linux-gnu/4.8/../../../../include/c++/4.8/ext/new_allocator.h:101:0
.Ltmp885:
	movq	16(%rsp), %rbx
	movq	24(%rsp), %rdi
	callq	_ZNK9__gnu_cxx13new_allocatorI7outBuffE8max_sizeEv
	cmpq	%rax, %rbx
	ja	.LBB62_2
# BB#1:                                 # %if.end
	.loc	2 104 0                 # /usr/lib/gcc/x86_64-linux-gnu/4.8/../../../../include/c++/4.8/ext/new_allocator.h:104:0
	movq	16(%rsp), %rdi
	shlq	$4, %rdi
	callq	_Znwm
	addq	$32, %rsp
	popq	%rbx
	ret
.LBB62_2:                               # %if.then
	.loc	2 102 0                 # /usr/lib/gcc/x86_64-linux-gnu/4.8/../../../../include/c++/4.8/ext/new_allocator.h:102:0
	callq	_ZSt17__throw_bad_allocv
.Ltmp886:
.Ltmp887:
	.size	_ZN9__gnu_cxx13new_allocatorI7outBuffE8allocateEmPKv, .Ltmp887-_ZN9__gnu_cxx13new_allocatorI7outBuffE8allocateEmPKv
.Lfunc_end62:
	.cfi_endproc

	.section	.text._ZNK9__gnu_cxx13new_allocatorI7outBuffE8max_sizeEv,"axG",@progbits,_ZNK9__gnu_cxx13new_allocatorI7outBuffE8max_sizeEv,comdat
	.weak	_ZNK9__gnu_cxx13new_allocatorI7outBuffE8max_sizeEv
	.align	16, 0x90
	.type	_ZNK9__gnu_cxx13new_allocatorI7outBuffE8max_sizeEv,@function
_ZNK9__gnu_cxx13new_allocatorI7outBuffE8max_sizeEv: # @_ZNK9__gnu_cxx13new_allocatorI7outBuffE8max_sizeEv
	.cfi_startproc
.Lfunc_begin63:
	.loc	2 114 0                 # /usr/lib/gcc/x86_64-linux-gnu/4.8/../../../../include/c++/4.8/ext/new_allocator.h:114:0
# BB#0:                                 # %entry
	movq	%rdi, -8(%rsp)
	movabsq	$1152921504606846975, %rax # imm = 0xFFFFFFFFFFFFFFF
	.loc	2 114 0 prologue_end    # /usr/lib/gcc/x86_64-linux-gnu/4.8/../../../../include/c++/4.8/ext/new_allocator.h:114:0
.Ltmp888:
	ret
.Ltmp889:
.Ltmp890:
	.size	_ZNK9__gnu_cxx13new_allocatorI7outBuffE8max_sizeEv, .Ltmp890-_ZNK9__gnu_cxx13new_allocatorI7outBuffE8max_sizeEv
.Lfunc_end63:
	.cfi_endproc

	.section	.text._ZNKSt6vectorI7outBuffSaIS0_EE8max_sizeEv,"axG",@progbits,_ZNKSt6vectorI7outBuffSaIS0_EE8max_sizeEv,comdat
	.weak	_ZNKSt6vectorI7outBuffSaIS0_EE8max_sizeEv
	.align	16, 0x90
	.type	_ZNKSt6vectorI7outBuffSaIS0_EE8max_sizeEv,@function
_ZNKSt6vectorI7outBuffSaIS0_EE8max_sizeEv: # @_ZNKSt6vectorI7outBuffSaIS0_EE8max_sizeEv
	.cfi_startproc
.Lfunc_begin64:
	.loc	5 651 0                 # /usr/lib/gcc/x86_64-linux-gnu/4.8/../../../../include/c++/4.8/bits/stl_vector.h:651:0
# BB#0:                                 # %entry
	pushq	%rax
.Ltmp892:
	.cfi_def_cfa_offset 16
	movq	%rdi, (%rsp)
	.loc	5 651 0 prologue_end    # /usr/lib/gcc/x86_64-linux-gnu/4.8/../../../../include/c++/4.8/bits/stl_vector.h:651:0
.Ltmp893:
	callq	_ZNKSt12_Vector_baseI7outBuffSaIS0_EE19_M_get_Tp_allocatorEv
	movq	%rax, %rdi
	callq	_ZN9__gnu_cxx14__alloc_traitsISaI7outBuffEE8max_sizeERKS2_
	popq	%rdx
	ret
.Ltmp894:
.Ltmp895:
	.size	_ZNKSt6vectorI7outBuffSaIS0_EE8max_sizeEv, .Ltmp895-_ZNKSt6vectorI7outBuffSaIS0_EE8max_sizeEv
.Lfunc_end64:
	.cfi_endproc

	.section	.text._ZSt3maxImERKT_S2_S2_,"axG",@progbits,_ZSt3maxImERKT_S2_S2_,comdat
	.weak	_ZSt3maxImERKT_S2_S2_
	.align	16, 0x90
	.type	_ZSt3maxImERKT_S2_S2_,@function
_ZSt3maxImERKT_S2_S2_:                  # @_ZSt3maxImERKT_S2_S2_
	.cfi_startproc
.Lfunc_begin65:
	.loc	14 217 0                # /usr/lib/gcc/x86_64-linux-gnu/4.8/../../../../include/c++/4.8/bits/stl_algobase.h:217:0
# BB#0:                                 # %entry
	movq	%rdi, -16(%rsp)
	movq	%rsi, -24(%rsp)
	.loc	14 221 0 prologue_end   # /usr/lib/gcc/x86_64-linux-gnu/4.8/../../../../include/c++/4.8/bits/stl_algobase.h:221:0
.Ltmp896:
	movq	-16(%rsp), %rax
	movq	(%rax), %rax
	cmpq	(%rsi), %rax
	jae	.LBB65_2
# BB#1:                                 # %if.then
	.loc	14 222 0                # /usr/lib/gcc/x86_64-linux-gnu/4.8/../../../../include/c++/4.8/bits/stl_algobase.h:222:0
	movq	-24(%rsp), %rax
	jmp	.LBB65_3
.LBB65_2:                               # %if.end
	.loc	14 223 0                # /usr/lib/gcc/x86_64-linux-gnu/4.8/../../../../include/c++/4.8/bits/stl_algobase.h:223:0
	movq	-16(%rsp), %rax
.LBB65_3:                               # %if.end
	movq	%rax, -8(%rsp)
	.loc	14 224 0                # /usr/lib/gcc/x86_64-linux-gnu/4.8/../../../../include/c++/4.8/bits/stl_algobase.h:224:0
	movq	-8(%rsp), %rax
	ret
.Ltmp897:
.Ltmp898:
	.size	_ZSt3maxImERKT_S2_S2_, .Ltmp898-_ZSt3maxImERKT_S2_S2_
.Lfunc_end65:
	.cfi_endproc

	.section	.text._ZN9__gnu_cxx14__alloc_traitsISaI7outBuffEE8max_sizeERKS2_,"axG",@progbits,_ZN9__gnu_cxx14__alloc_traitsISaI7outBuffEE8max_sizeERKS2_,comdat
	.weak	_ZN9__gnu_cxx14__alloc_traitsISaI7outBuffEE8max_sizeERKS2_
	.align	16, 0x90
	.type	_ZN9__gnu_cxx14__alloc_traitsISaI7outBuffEE8max_sizeERKS2_,@function
_ZN9__gnu_cxx14__alloc_traitsISaI7outBuffEE8max_sizeERKS2_: # @_ZN9__gnu_cxx14__alloc_traitsISaI7outBuffEE8max_sizeERKS2_
	.cfi_startproc
.Lfunc_begin66:
	.loc	6 221 0                 # /usr/lib/gcc/x86_64-linux-gnu/4.8/../../../../include/c++/4.8/ext/alloc_traits.h:221:0
# BB#0:                                 # %entry
	pushq	%rax
.Ltmp900:
	.cfi_def_cfa_offset 16
	movq	%rdi, (%rsp)
	.loc	6 221 0 prologue_end    # /usr/lib/gcc/x86_64-linux-gnu/4.8/../../../../include/c++/4.8/ext/alloc_traits.h:221:0
.Ltmp901:
	callq	_ZNK9__gnu_cxx13new_allocatorI7outBuffE8max_sizeEv
	popq	%rdx
	ret
.Ltmp902:
.Ltmp903:
	.size	_ZN9__gnu_cxx14__alloc_traitsISaI7outBuffEE8max_sizeERKS2_, .Ltmp903-_ZN9__gnu_cxx14__alloc_traitsISaI7outBuffEE8max_sizeERKS2_
.Lfunc_end66:
	.cfi_endproc

	.section	.text._ZNKSt12_Vector_baseI7outBuffSaIS0_EE19_M_get_Tp_allocatorEv,"axG",@progbits,_ZNKSt12_Vector_baseI7outBuffSaIS0_EE19_M_get_Tp_allocatorEv,comdat
	.weak	_ZNKSt12_Vector_baseI7outBuffSaIS0_EE19_M_get_Tp_allocatorEv
	.align	16, 0x90
	.type	_ZNKSt12_Vector_baseI7outBuffSaIS0_EE19_M_get_Tp_allocatorEv,@function
_ZNKSt12_Vector_baseI7outBuffSaIS0_EE19_M_get_Tp_allocatorEv: # @_ZNKSt12_Vector_baseI7outBuffSaIS0_EE19_M_get_Tp_allocatorEv
	.cfi_startproc
.Lfunc_begin67:
	.loc	5 118 0                 # /usr/lib/gcc/x86_64-linux-gnu/4.8/../../../../include/c++/4.8/bits/stl_vector.h:118:0
# BB#0:                                 # %entry
	movq	%rdi, -8(%rsp)
	.loc	5 118 0 prologue_end    # /usr/lib/gcc/x86_64-linux-gnu/4.8/../../../../include/c++/4.8/bits/stl_vector.h:118:0
.Ltmp904:
	movq	%rdi, %rax
	ret
.Ltmp905:
.Ltmp906:
	.size	_ZNKSt12_Vector_baseI7outBuffSaIS0_EE19_M_get_Tp_allocatorEv, .Ltmp906-_ZNKSt12_Vector_baseI7outBuffSaIS0_EE19_M_get_Tp_allocatorEv
.Lfunc_end67:
	.cfi_endproc

	.section	.text._ZSt20uninitialized_fill_nIP7outBuffmS0_EvT_T0_RKT1_,"axG",@progbits,_ZSt20uninitialized_fill_nIP7outBuffmS0_EvT_T0_RKT1_,comdat
	.weak	_ZSt20uninitialized_fill_nIP7outBuffmS0_EvT_T0_RKT1_
	.align	16, 0x90
	.type	_ZSt20uninitialized_fill_nIP7outBuffmS0_EvT_T0_RKT1_,@function
_ZSt20uninitialized_fill_nIP7outBuffmS0_EvT_T0_RKT1_: # @_ZSt20uninitialized_fill_nIP7outBuffmS0_EvT_T0_RKT1_
	.cfi_startproc
.Lfunc_begin68:
	.loc	13 219 0                # /usr/lib/gcc/x86_64-linux-gnu/4.8/../../../../include/c++/4.8/bits/stl_uninitialized.h:219:0
# BB#0:                                 # %entry
	subq	$24, %rsp
.Ltmp908:
	.cfi_def_cfa_offset 32
	movq	%rdi, 16(%rsp)
	movq	%rsi, 8(%rsp)
	movq	%rdx, (%rsp)
	.loc	13 223 0 prologue_end   # /usr/lib/gcc/x86_64-linux-gnu/4.8/../../../../include/c++/4.8/bits/stl_uninitialized.h:223:0
.Ltmp909:
	movq	8(%rsp), %rsi
	movq	16(%rsp), %rdi
	callq	_ZNSt22__uninitialized_fill_nILb1EE15__uninit_fill_nIP7outBuffmS2_EEvT_T0_RKT1_
	.loc	13 225 0                # /usr/lib/gcc/x86_64-linux-gnu/4.8/../../../../include/c++/4.8/bits/stl_uninitialized.h:225:0
	addq	$24, %rsp
	ret
.Ltmp910:
.Ltmp911:
	.size	_ZSt20uninitialized_fill_nIP7outBuffmS0_EvT_T0_RKT1_, .Ltmp911-_ZSt20uninitialized_fill_nIP7outBuffmS0_EvT_T0_RKT1_
.Lfunc_end68:
	.cfi_endproc

	.section	.text._ZNSt22__uninitialized_fill_nILb1EE15__uninit_fill_nIP7outBuffmS2_EEvT_T0_RKT1_,"axG",@progbits,_ZNSt22__uninitialized_fill_nILb1EE15__uninit_fill_nIP7outBuffmS2_EEvT_T0_RKT1_,comdat
	.weak	_ZNSt22__uninitialized_fill_nILb1EE15__uninit_fill_nIP7outBuffmS2_EEvT_T0_RKT1_
	.align	16, 0x90
	.type	_ZNSt22__uninitialized_fill_nILb1EE15__uninit_fill_nIP7outBuffmS2_EEvT_T0_RKT1_,@function
_ZNSt22__uninitialized_fill_nILb1EE15__uninit_fill_nIP7outBuffmS2_EEvT_T0_RKT1_: # @_ZNSt22__uninitialized_fill_nILb1EE15__uninit_fill_nIP7outBuffmS2_EEvT_T0_RKT1_
	.cfi_startproc
.Lfunc_begin69:
	.loc	13 204 0                # /usr/lib/gcc/x86_64-linux-gnu/4.8/../../../../include/c++/4.8/bits/stl_uninitialized.h:204:0
# BB#0:                                 # %entry
	subq	$24, %rsp
.Ltmp913:
	.cfi_def_cfa_offset 32
	movq	%rdi, 16(%rsp)
	movq	%rsi, 8(%rsp)
	movq	%rdx, (%rsp)
	.loc	13 204 0 prologue_end   # /usr/lib/gcc/x86_64-linux-gnu/4.8/../../../../include/c++/4.8/bits/stl_uninitialized.h:204:0
.Ltmp914:
	movq	8(%rsp), %rsi
	movq	16(%rsp), %rdi
	callq	_ZSt6fill_nIP7outBuffmS0_ET_S2_T0_RKT1_
	addq	$24, %rsp
	ret
.Ltmp915:
.Ltmp916:
	.size	_ZNSt22__uninitialized_fill_nILb1EE15__uninit_fill_nIP7outBuffmS2_EEvT_T0_RKT1_, .Ltmp916-_ZNSt22__uninitialized_fill_nILb1EE15__uninit_fill_nIP7outBuffmS2_EEvT_T0_RKT1_
.Lfunc_end69:
	.cfi_endproc

	.section	.text._ZSt6fill_nIP7outBuffmS0_ET_S2_T0_RKT1_,"axG",@progbits,_ZSt6fill_nIP7outBuffmS0_ET_S2_T0_RKT1_,comdat
	.weak	_ZSt6fill_nIP7outBuffmS0_ET_S2_T0_RKT1_
	.align	16, 0x90
	.type	_ZSt6fill_nIP7outBuffmS0_ET_S2_T0_RKT1_,@function
_ZSt6fill_nIP7outBuffmS0_ET_S2_T0_RKT1_: # @_ZSt6fill_nIP7outBuffmS0_ET_S2_T0_RKT1_
	.cfi_startproc
.Lfunc_begin70:
	.loc	14 782 0                # /usr/lib/gcc/x86_64-linux-gnu/4.8/../../../../include/c++/4.8/bits/stl_algobase.h:782:0
# BB#0:                                 # %entry
	subq	$24, %rsp
.Ltmp918:
	.cfi_def_cfa_offset 32
	movq	%rdi, 16(%rsp)
	movq	%rsi, 8(%rsp)
	movq	%rdx, (%rsp)
	.loc	14 786 0 prologue_end   # /usr/lib/gcc/x86_64-linux-gnu/4.8/../../../../include/c++/4.8/bits/stl_algobase.h:786:0
.Ltmp919:
	movq	16(%rsp), %rdi
	callq	_ZSt12__niter_baseIP7outBuffENSt11_Niter_baseIT_E13iterator_typeES3_
	movq	(%rsp), %rdx
	movq	8(%rsp), %rsi
	movq	%rax, %rdi
	callq	_ZSt10__fill_n_aIP7outBuffmS0_EN9__gnu_cxx11__enable_ifIXntsr11__is_scalarIT1_EE7__valueET_E6__typeES5_T0_RKS4_
	addq	$24, %rsp
	ret
.Ltmp920:
.Ltmp921:
	.size	_ZSt6fill_nIP7outBuffmS0_ET_S2_T0_RKT1_, .Ltmp921-_ZSt6fill_nIP7outBuffmS0_ET_S2_T0_RKT1_
.Lfunc_end70:
	.cfi_endproc

	.section	.text._ZSt10__fill_n_aIP7outBuffmS0_EN9__gnu_cxx11__enable_ifIXntsr11__is_scalarIT1_EE7__valueET_E6__typeES5_T0_RKS4_,"axG",@progbits,_ZSt10__fill_n_aIP7outBuffmS0_EN9__gnu_cxx11__enable_ifIXntsr11__is_scalarIT1_EE7__valueET_E6__typeES5_T0_RKS4_,comdat
	.weak	_ZSt10__fill_n_aIP7outBuffmS0_EN9__gnu_cxx11__enable_ifIXntsr11__is_scalarIT1_EE7__valueET_E6__typeES5_T0_RKS4_
	.align	16, 0x90
	.type	_ZSt10__fill_n_aIP7outBuffmS0_EN9__gnu_cxx11__enable_ifIXntsr11__is_scalarIT1_EE7__valueET_E6__typeES5_T0_RKS4_,@function
_ZSt10__fill_n_aIP7outBuffmS0_EN9__gnu_cxx11__enable_ifIXntsr11__is_scalarIT1_EE7__valueET_E6__typeES5_T0_RKS4_: # @_ZSt10__fill_n_aIP7outBuffmS0_EN9__gnu_cxx11__enable_ifIXntsr11__is_scalarIT1_EE7__valueET_E6__typeES5_T0_RKS4_
	.cfi_startproc
.Lfunc_begin71:
	.loc	14 736 0                # /usr/lib/gcc/x86_64-linux-gnu/4.8/../../../../include/c++/4.8/bits/stl_algobase.h:736:0
# BB#0:                                 # %entry
	movq	%rdi, -8(%rsp)
	movq	%rsi, -16(%rsp)
	movq	%rdx, -24(%rsp)
	.loc	14 737 0 prologue_end   # /usr/lib/gcc/x86_64-linux-gnu/4.8/../../../../include/c++/4.8/bits/stl_algobase.h:737:0
.Ltmp922:
	movq	-16(%rsp), %rax
	movq	%rax, -32(%rsp)
	jmp	.LBB71_1
	.align	16, 0x90
.LBB71_2:                               # %for.body
                                        #   in Loop: Header=BB71_1 Depth=1
	.loc	14 739 0                # /usr/lib/gcc/x86_64-linux-gnu/4.8/../../../../include/c++/4.8/bits/stl_algobase.h:739:0
	movq	-8(%rsp), %rax
	movq	-24(%rsp), %rdx
	movq	(%rdx), %rcx
	movq	8(%rdx), %rdx
	movq	%rdx, 8(%rax)
	movq	%rcx, (%rax)
	.loc	14 738 0                # /usr/lib/gcc/x86_64-linux-gnu/4.8/../../../../include/c++/4.8/bits/stl_algobase.h:738:0
	decq	-32(%rsp)
	addq	$16, -8(%rsp)
.LBB71_1:                               # %for.cond
                                        # =>This Inner Loop Header: Depth=1
	.loc	14 737 0                # /usr/lib/gcc/x86_64-linux-gnu/4.8/../../../../include/c++/4.8/bits/stl_algobase.h:737:0
	cmpq	$0, -32(%rsp)
	jne	.LBB71_2
.Ltmp923:
# BB#3:                                 # %for.end
	.loc	14 740 0                # /usr/lib/gcc/x86_64-linux-gnu/4.8/../../../../include/c++/4.8/bits/stl_algobase.h:740:0
	movq	-8(%rsp), %rax
	ret
.Ltmp924:
.Ltmp925:
	.size	_ZSt10__fill_n_aIP7outBuffmS0_EN9__gnu_cxx11__enable_ifIXntsr11__is_scalarIT1_EE7__valueET_E6__typeES5_T0_RKS4_, .Ltmp925-_ZSt10__fill_n_aIP7outBuffmS0_EN9__gnu_cxx11__enable_ifIXntsr11__is_scalarIT1_EE7__valueET_E6__typeES5_T0_RKS4_
.Lfunc_end71:
	.cfi_endproc

	.section	.text._ZSt8__fill_aIP7outBuffS0_EN9__gnu_cxx11__enable_ifIXntsr11__is_scalarIT0_EE7__valueEvE6__typeET_S7_RKS4_,"axG",@progbits,_ZSt8__fill_aIP7outBuffS0_EN9__gnu_cxx11__enable_ifIXntsr11__is_scalarIT0_EE7__valueEvE6__typeET_S7_RKS4_,comdat
	.weak	_ZSt8__fill_aIP7outBuffS0_EN9__gnu_cxx11__enable_ifIXntsr11__is_scalarIT0_EE7__valueEvE6__typeET_S7_RKS4_
	.align	16, 0x90
	.type	_ZSt8__fill_aIP7outBuffS0_EN9__gnu_cxx11__enable_ifIXntsr11__is_scalarIT0_EE7__valueEvE6__typeET_S7_RKS4_,@function
_ZSt8__fill_aIP7outBuffS0_EN9__gnu_cxx11__enable_ifIXntsr11__is_scalarIT0_EE7__valueEvE6__typeET_S7_RKS4_: # @_ZSt8__fill_aIP7outBuffS0_EN9__gnu_cxx11__enable_ifIXntsr11__is_scalarIT0_EE7__valueEvE6__typeET_S7_RKS4_
	.cfi_startproc
.Lfunc_begin72:
	.loc	14 680 0                # /usr/lib/gcc/x86_64-linux-gnu/4.8/../../../../include/c++/4.8/bits/stl_algobase.h:680:0
# BB#0:                                 # %entry
	movq	%rdi, -8(%rsp)
	movq	%rsi, -16(%rsp)
	movq	%rdx, -24(%rsp)
	jmp	.LBB72_1
	.align	16, 0x90
.LBB72_2:                               # %for.body
                                        #   in Loop: Header=BB72_1 Depth=1
	.loc	14 682 0 prologue_end   # /usr/lib/gcc/x86_64-linux-gnu/4.8/../../../../include/c++/4.8/bits/stl_algobase.h:682:0
.Ltmp926:
	movq	-8(%rsp), %rax
	movq	-24(%rsp), %rdx
	movq	(%rdx), %rcx
	movq	8(%rdx), %rdx
	movq	%rdx, 8(%rax)
	movq	%rcx, (%rax)
	.loc	14 681 0                # /usr/lib/gcc/x86_64-linux-gnu/4.8/../../../../include/c++/4.8/bits/stl_algobase.h:681:0
	addq	$16, -8(%rsp)
.LBB72_1:                               # %for.cond
                                        # =>This Inner Loop Header: Depth=1
	movq	-8(%rsp), %rax
	cmpq	-16(%rsp), %rax
	jne	.LBB72_2
.Ltmp927:
# BB#3:                                 # %for.end
	.loc	14 683 0                # /usr/lib/gcc/x86_64-linux-gnu/4.8/../../../../include/c++/4.8/bits/stl_algobase.h:683:0
	ret
.Ltmp928:
.Ltmp929:
	.size	_ZSt8__fill_aIP7outBuffS0_EN9__gnu_cxx11__enable_ifIXntsr11__is_scalarIT0_EE7__valueEvE6__typeET_S7_RKS4_, .Ltmp929-_ZSt8__fill_aIP7outBuffS0_EN9__gnu_cxx11__enable_ifIXntsr11__is_scalarIT0_EE7__valueEvE6__typeET_S7_RKS4_
.Lfunc_end72:
	.cfi_endproc

	.section	.text._ZSt23__copy_move_backward_a2ILb0EP7outBuffS1_ET1_T0_S3_S2_,"axG",@progbits,_ZSt23__copy_move_backward_a2ILb0EP7outBuffS1_ET1_T0_S3_S2_,comdat
