	.file	"<stdin>"
	.file	1 "src/main.cpp"
	.file	2 "/usr/lib/gcc/x86_64-linux-gnu/4.8/../../../../include/c++/4.8/bits/ios_base.h"
	.file	3 "/usr/lib/gcc/x86_64-linux-gnu/4.8/../../../../include/c++/4.8/bits/c++config.h"
	.file	4 "/usr/lib/gcc/x86_64-linux-gnu/4.8/../../../../include/c++/4.8/bits/postypes.h"
	.file	5 "/usr/lib/gcc/x86_64-linux-gnu/4.8/../../../../include/c++/4.8/bits/locale_classes.h"
	.file	6 "/usr/lib/gcc/x86_64-linux-gnu/4.8/../../../../include/c++/4.8/bits/basic_string.h"
	.file	7 "/usr/include/xlocale.h"
	.file	8 "/usr/lib/gcc/x86_64-linux-gnu/4.8/../../../../include/c++/4.8/bits/c++locale.h"
	.file	9 "/usr/lib/gcc/x86_64-linux-gnu/4.8/../../../../include/c++/4.8/ext/new_allocator.h"
	.file	10 "/usr/lib/gcc/x86_64-linux-gnu/4.8/../../../../include/c++/4.8/bits/allocator.h"
	.file	11 "/usr/lib/gcc/x86_64-linux-gnu/4.8/../../../../include/c++/4.8/bits/memoryfwd.h"
	.file	12 "/usr/lib/gcc/x86_64-linux-gnu/4.8/../../../../include/c++/4.8/bits/stl_iterator.h"
	.file	13 "/usr/lib/gcc/x86_64-linux-gnu/4.8/../../../../include/c++/4.8/bits/basic_string.tcc"
	.file	14 "/usr/lib/gcc/x86_64-linux-gnu/4.8/../../../../include/c++/4.8/bits/stringfwd.h"
	.file	15 "/usr/lib/gcc/x86_64-linux-gnu/4.8/../../../../include/c++/4.8/bits/char_traits.h"
	.file	16 "/usr/lib/gcc/x86_64-linux-gnu/4.8/../../../../include/c++/4.8/iostream"
	.file	17 "/usr/lib/gcc/x86_64-linux-gnu/4.8/../../../../include/c++/4.8/bits/stl_vector.h"
	.file	18 "/usr/lib/gcc/x86_64-linux-gnu/4.8/../../../../include/c++/4.8/ext/alloc_traits.h"
	.file	19 "/usr/lib/gcc/x86_64-linux-gnu/4.8/../../../../include/c++/4.8/bits/stl_construct.h"
	.file	20 "src/netlist_elem.h"
	.file	21 "src/location_t.h"
	.file	22 "src/AtomicPtr.h"
	.file	23 "/usr/lib/gcc/x86_64-linux-gnu/4.8/../../../../include/c++/4.8/bits/stl_uninitialized.h"
	.file	24 "/usr/lib/gcc/x86_64-linux-gnu/4.8/../../../../include/c++/4.8/bits/stl_algobase.h"
	.file	25 "/usr/lib/gcc/x86_64-linux-gnu/4.8/../../../../include/c++/4.8/bits/stl_iterator_base_types.h"
	.file	26 "/usr/lib/gcc/x86_64-linux-gnu/4.8/../../../../include/c++/4.8/ext/type_traits.h"
	.file	27 "src/netlist.h"
	.file	28 "/usr/lib/gcc/x86_64-linux-gnu/4.8/../../../../include/c++/4.8/bits/stl_tree.h"
	.file	29 "/usr/lib/gcc/x86_64-linux-gnu/4.8/../../../../include/c++/4.8/bits/stl_pair.h"
	.file	30 "/usr/lib/gcc/x86_64-linux-gnu/4.8/../../../../include/c++/4.8/bits/stl_function.h"
	.file	31 "/usr/lib/gcc/x86_64-linux-gnu/4.8/../../../../include/c++/4.8/bits/stl_map.h"
	.file	32 "/usr/lib/gcc/x86_64-linux-gnu/4.8/../../../../include/c++/4.8/bits/move.h"
	.file	33 "src/annealer_thread.h"
	.file	34 "/usr/include/x86_64-linux-gnu/bits/pthreadtypes.h"
	.text
.Ltext_begin:
	.data
	.section	.text.startup,"ax",@progbits
	.align	16, 0x90
	.type	__cxx_global_var_init,@function
__cxx_global_var_init:                  # @__cxx_global_var_init
	.cfi_startproc
.Lfunc_begin0:
	.loc	16 73 0                 # /usr/lib/gcc/x86_64-linux-gnu/4.8/../../../../include/c++/4.8/iostream:73:0
# BB#0:                                 # %entry
	.loc	16 73 0 prologue_end    # /usr/lib/gcc/x86_64-linux-gnu/4.8/../../../../include/c++/4.8/iostream:73:0
	pushq	%rax
.Ltmp1:
	.cfi_def_cfa_offset 16
	movl	$_ZStL8__ioinit, %edi
	callq	_ZNSt8ios_base4InitC1Ev
	movl	$_ZNSt8ios_base4InitD1Ev, %edi
	movl	$_ZStL8__ioinit, %esi
	movl	$__dso_handle, %edx
	callq	__cxa_atexit
	popq	%rax
	ret
.Ltmp2:
.Ltmp3:
	.size	__cxx_global_var_init, .Ltmp3-__cxx_global_var_init
.Lfunc_end0:
	.cfi_endproc

	.text
	.globl	main
	.align	16, 0x90
	.type	main,@function
main:                                   # @main
	.cfi_startproc
	.cfi_personality 3, __gxx_personality_v0
.Leh_func_begin1:
	.cfi_lsda 3, .Lexception1
.Lfunc_begin1:
	.loc	1 56 0                  # src/main.cpp:56:0
# BB#0:                                 # %entry
	pushq	%r15
.Ltmp65:
	.cfi_def_cfa_offset 16
	pushq	%r14
.Ltmp66:
	.cfi_def_cfa_offset 24
	pushq	%rbx
.Ltmp67:
	.cfi_def_cfa_offset 32
	subq	$304, %rsp              # imm = 0x130
.Ltmp68:
	.cfi_def_cfa_offset 336
.Ltmp69:
	.cfi_offset %rbx, -32
.Ltmp70:
	.cfi_offset %r14, -24
.Ltmp71:
	.cfi_offset %r15, -16
	movl	$0, 300(%rsp)
	movl	%edi, 296(%rsp)
	movq	%rsi, 288(%rsp)
	.loc	1 62 0 prologue_end     # src/main.cpp:62:0
.Ltmp72:
	movl	$_ZSt4cout, %edi
	movl	$.L.str, %esi
	callq	_ZStlsISt11char_traitsIcEERSt13basic_ostreamIcT_ES5_PKc
	movq	%rax, %rdi
	movl	$_ZSt4endlIcSt11char_traitsIcEERSt13basic_ostreamIT_T0_ES6_, %esi
	callq	_ZNSolsEPFRSoS_E
	movq	%rax, %rdi
	movl	$_ZSt5flushIcSt11char_traitsIcEERSt13basic_ostreamIT_T0_ES6_, %esi
	callq	_ZNSolsEPFRSoS_E
	movl	$3, %edi
	.loc	1 68 0                  # src/main.cpp:68:0
	callq	srandom
	.loc	1 70 0                  # src/main.cpp:70:0
	cmpl	$5, 296(%rsp)
	je	.LBB1_2
# BB#1:                                 # %land.lhs.true
	cmpl	$6, 296(%rsp)
	jne	.LBB1_41
.LBB1_2:                                # %if.end
.Ltmp73:
	#DEBUG_VALUE: num_threads <- [%rsp+$284]+$0
	.loc	1 76 0                  # src/main.cpp:76:0
	movq	288(%rsp), %rax
	movq	8(%rax), %rdi
	callq	atoi
	movl	%eax, 284(%rsp)
	.loc	1 77 0                  # src/main.cpp:77:0
	movl	$_ZSt4cout, %edi
	movl	$.L.str3, %esi
	callq	_ZStlsISt11char_traitsIcEERSt13basic_ostreamIcT_ES5_PKc
	movl	284(%rsp), %esi
	movq	%rax, %rdi
	callq	_ZNSolsEi
	movq	%rax, %rdi
	movl	$_ZSt4endlIcSt11char_traitsIcEERSt13basic_ostreamIT_T0_ES6_, %esi
	callq	_ZNSolsEPFRSoS_E
	.loc	1 86 0                  # src/main.cpp:86:0
	movq	288(%rsp), %rax
.Ltmp74:
	#DEBUG_VALUE: swaps_per_temp <- [%rsp+$280]+$0
	movq	16(%rax), %rdi
	callq	atoi
	movl	%eax, 280(%rsp)
	.loc	1 77 0                  # src/main.cpp:77:0
	movl	$_ZSt4cout, %edi
	.loc	1 87 0                  # src/main.cpp:87:0
	movl	%eax, %esi
	callq	_ZNSolsEi
	movq	%rax, %rdi
	movl	$.L.str4, %esi
	callq	_ZStlsISt11char_traitsIcEERSt13basic_ostreamIcT_ES5_PKc
	movq	%rax, %rdi
	.loc	1 77 0                  # src/main.cpp:77:0
	movl	$_ZSt4endlIcSt11char_traitsIcEERSt13basic_ostreamIT_T0_ES6_, %esi
	.loc	1 87 0                  # src/main.cpp:87:0
	callq	_ZNSolsEPFRSoS_E
	.loc	1 90 0                  # src/main.cpp:90:0
	movq	288(%rsp), %rax
.Ltmp75:
	#DEBUG_VALUE: start_temp <- [%rsp+$276]+$0
	movq	24(%rax), %rdi
	callq	atoi
	movl	%eax, 276(%rsp)
	.loc	1 77 0                  # src/main.cpp:77:0
	movl	$_ZSt4cout, %edi
	.loc	1 91 0                  # src/main.cpp:91:0
	movl	$.L.str5, %esi
	callq	_ZStlsISt11char_traitsIcEERSt13basic_ostreamIcT_ES5_PKc
	movl	276(%rsp), %esi
	movq	%rax, %rdi
	callq	_ZNSolsEi
	movq	%rax, %rdi
	.loc	1 77 0                  # src/main.cpp:77:0
	movl	$_ZSt4endlIcSt11char_traitsIcEERSt13basic_ostreamIT_T0_ES6_, %esi
	.loc	1 91 0                  # src/main.cpp:91:0
	callq	_ZNSolsEPFRSoS_E
	leaq	256(%rsp), %r14
	.loc	1 94 0                  # src/main.cpp:94:0
	movq	288(%rsp), %rax
.Ltmp76:
	#DEBUG_VALUE: filename <- [%rsp+$264]+$0
	movq	32(%rax), %rbx
	movq	%r14, %rdi
	callq	_ZNSaIcEC1Ev
	leaq	264(%rsp), %rdi
.Ltmp4:
	movq	%rbx, %rsi
	movq	%r14, %rdx
	callq	_ZNSsC1EPKcRKSaIcE
.Ltmp5:
# BB#3:                                 # %invoke.cont
	leaq	256(%rsp), %rdi
	callq	_ZNSaIcED1Ev
	.loc	1 95 0                  # src/main.cpp:95:0
.Ltmp7:
	movl	$_ZSt4cout, %edi
	movl	$.L.str6, %esi
	callq	_ZStlsISt11char_traitsIcEERSt13basic_ostreamIcT_ES5_PKc
.Ltmp8:
# BB#4:                                 # %invoke.cont25
.Ltmp9:
	leaq	264(%rsp), %rsi
	movq	%rax, %rdi
	callq	_ZStlsIcSt11char_traitsIcESaIcEERSt13basic_ostreamIT_T0_ES7_RKSbIS4_S5_T1_E
.Ltmp10:
# BB#5:                                 # %invoke.cont27
.Ltmp11:
	movq	%rax, %rdi
	movl	$_ZSt4endlIcSt11char_traitsIcEERSt13basic_ostreamIT_T0_ES6_, %esi
	callq	_ZNSolsEPFRSoS_E
.Ltmp12:
# BB#6:                                 # %invoke.cont29
.Ltmp77:
	#DEBUG_VALUE: number_temp_steps <- [%rsp+$240]+$0
	.loc	1 98 0                  # src/main.cpp:98:0
	movl	$-1, 240(%rsp)
	.loc	1 99 0                  # src/main.cpp:99:0
	cmpl	$6, 296(%rsp)
	jne	.LBB1_10
# BB#7:                                 # %if.then32
	.loc	1 100 0                 # src/main.cpp:100:0
.Ltmp78:
	movq	288(%rsp), %rax
	movq	40(%rax), %rdi
	callq	atoi
	movl	%eax, 240(%rsp)
	.loc	1 101 0                 # src/main.cpp:101:0
.Ltmp13:
	movl	$_ZSt4cout, %edi
	movl	$.L.str7, %esi
	callq	_ZStlsISt11char_traitsIcEERSt13basic_ostreamIcT_ES5_PKc
.Ltmp14:
# BB#8:                                 # %invoke.cont35
	movl	240(%rsp), %esi
.Ltmp15:
	movq	%rax, %rdi
	callq	_ZNSolsEi
.Ltmp16:
# BB#9:                                 # %invoke.cont37
.Ltmp17:
	movq	%rax, %rdi
	movl	$_ZSt4endlIcSt11char_traitsIcEERSt13basic_ostreamIT_T0_ES6_, %esi
	callq	_ZNSolsEPFRSoS_E
.Ltmp18:
.Ltmp79:
.LBB1_10:                               # %if.end41
	#DEBUG_VALUE: my_netlist <- [%rsp+$128]+$0
	.loc	1 105 0                 # src/main.cpp:105:0
.Ltmp19:
	leaq	128(%rsp), %rdi
	leaq	264(%rsp), %rsi
	callq	_ZN7netlistC1ERKSs
.Ltmp20:
# BB#11:                                # %invoke.cont42
.Ltmp80:
	#DEBUG_VALUE: a_thread <- [%rsp+$72]+$0
	.loc	1 109 0                 # src/main.cpp:109:0
	movl	240(%rsp), %r9d
	movl	276(%rsp), %r8d
	movl	280(%rsp), %ecx
	movl	284(%rsp), %edx
.Ltmp21:
	leaq	72(%rsp), %r14
	leaq	128(%rsp), %rsi
	movq	%r14, %rdi
	callq	_ZN15annealer_threadC1EP7netlistiiii
.Ltmp22:
# BB#12:                                # %invoke.cont44
.Ltmp81:
	#DEBUG_VALUE: threads <- [%rsp+$48]+$0
	.loc	1 116 0                 # src/main.cpp:116:0
	movslq	284(%rsp), %rbx
	movq	$0, 40(%rsp)
	leaq	32(%rsp), %r15
	movq	%r15, %rdi
	callq	_ZNSaImEC1Ev
.Ltmp23:
	leaq	48(%rsp), %rdi
	leaq	40(%rsp), %rdx
	movq	%rbx, %rsi
	movq	%r15, %rcx
	callq	_ZNSt6vectorImSaImEEC1EmRKmRKS0_
.Ltmp24:
# BB#13:                                # %invoke.cont48
	leaq	32(%rsp), %rdi
	callq	_ZNSaImED1Ev
.Ltmp82:
	#DEBUG_VALUE: thread_in <- [%rsp+$24]+$0
	.loc	1 117 0                 # src/main.cpp:117:0
	movq	%r14, 24(%rsp)
	.loc	1 118 0                 # src/main.cpp:118:0
.Ltmp83:
	movl	$0, 20(%rsp)
.Ltmp84:
	#DEBUG_VALUE: i <- [%rsp+$20]+$0
	leaq	48(%rsp), %rbx
	jmp	.LBB1_14
	.align	16, 0x90
.LBB1_16:                               # %for.inc
                                        #   in Loop: Header=BB1_14 Depth=1
	.loc	1 119 0                 # src/main.cpp:119:0
.Ltmp85:
	movq	24(%rsp), %rcx
	movq	%rax, %rdi
	xorl	%esi, %esi
	movl	$_Z8entry_ptPv, %edx
	callq	pthread_create
.Ltmp86:
	.loc	1 118 0                 # src/main.cpp:118:0
	incl	20(%rsp)
.LBB1_14:                               # %for.cond
                                        # =>This Inner Loop Header: Depth=1
	movl	20(%rsp), %eax
	cmpl	284(%rsp), %eax
	jge	.LBB1_21
# BB#15:                                # %for.body
                                        #   in Loop: Header=BB1_14 Depth=1
	.loc	1 119 0                 # src/main.cpp:119:0
.Ltmp87:
	movslq	20(%rsp), %rsi
.Ltmp49:
	movq	%rbx, %rdi
	callq	_ZNSt6vectorImSaImEEixEm
.Ltmp50:
	jmp	.LBB1_16
.Ltmp88:
.LBB1_18:                               # %lpad51.nonloopexit.loopexit
.Ltmp51:
	jmp	.LBB1_20
.LBB1_21:                               # %for.end
.Ltmp89:
	#DEBUG_VALUE: i <- [%rsp+$16]+$0
	.loc	1 126 0                 # src/main.cpp:126:0
	movl	$0, 16(%rsp)
	leaq	48(%rsp), %rbx
	jmp	.LBB1_22
	.align	16, 0x90
.LBB1_25:                               # %for.inc64
                                        #   in Loop: Header=BB1_22 Depth=1
	incl	16(%rsp)
.LBB1_22:                               # %for.cond56
                                        # =>This Inner Loop Header: Depth=1
	movl	16(%rsp), %eax
	cmpl	284(%rsp), %eax
	jge	.LBB1_26
# BB#23:                                # %for.body58
                                        #   in Loop: Header=BB1_22 Depth=1
	.loc	1 127 0                 # src/main.cpp:127:0
.Ltmp90:
	movslq	16(%rsp), %rsi
.Ltmp44:
	movq	%rbx, %rdi
	callq	_ZNSt6vectorImSaImEEixEm
.Ltmp45:
# BB#24:                                # %invoke.cont60
                                        #   in Loop: Header=BB1_22 Depth=1
	movq	(%rax), %rdi
.Ltmp46:
	xorl	%esi, %esi
	callq	pthread_join
.Ltmp47:
	jmp	.LBB1_25
.Ltmp91:
.LBB1_17:                               # %lpad51.loopexit
.Ltmp48:
	jmp	.LBB1_20
.LBB1_26:                               # %for.end66
	.loc	1 139 0                 # src/main.cpp:139:0
.Ltmp26:
	movl	$_ZSt4cout, %edi
	movl	$.L.str8, %esi
	callq	_ZStlsISt11char_traitsIcEERSt13basic_ostreamIcT_ES5_PKc
	movq	%rax, %rbx
.Ltmp27:
# BB#27:                                # %invoke.cont67
.Ltmp28:
	leaq	128(%rsp), %rdi
	callq	_ZN7netlist18total_routing_costEv
.Ltmp29:
# BB#28:                                # %invoke.cont69
.Ltmp30:
	movq	%rbx, %rdi
	callq	_ZNSolsEd
.Ltmp31:
# BB#29:                                # %invoke.cont71
.Ltmp32:
	movq	%rax, %rdi
	movl	$_ZSt4endlIcSt11char_traitsIcEERSt13basic_ostreamIT_T0_ES6_, %esi
	callq	_ZNSolsEPFRSoS_E
.Ltmp33:
# BB#30:                                # %invoke.cont73
	.loc	1 145 0                 # src/main.cpp:145:0
	movl	$0, 300(%rsp)
	movl	$1, 12(%rsp)
	.loc	1 146 0                 # src/main.cpp:146:0
.Ltmp35:
	leaq	48(%rsp), %rdi
	callq	_ZNSt6vectorImSaImEED1Ev
.Ltmp36:
# BB#31:                                # %invoke.cont76
.Ltmp38:
	leaq	72(%rsp), %rdi
	callq	_ZN15annealer_threadD1Ev
.Ltmp39:
# BB#32:                                # %invoke.cont78
.Ltmp41:
	leaq	128(%rsp), %rdi
	callq	_ZN7netlistD1Ev
.Ltmp42:
# BB#33:                                # %invoke.cont80
	leaq	264(%rsp), %rdi
	callq	_ZNSsD1Ev
.Ltmp92:
	.loc	1 146 0                 # src/main.cpp:146:0
	movl	300(%rsp), %eax
	addq	$304, %rsp              # imm = 0x130
	popq	%rbx
	popq	%r14
	popq	%r15
	ret
.LBB1_41:                               # %if.then
	.loc	1 71 0                  # src/main.cpp:71:0
.Ltmp93:
	movl	$_ZSt4cout, %edi
	movl	$.L.str1, %esi
	callq	_ZStlsISt11char_traitsIcEERSt13basic_ostreamIcT_ES5_PKc
	movq	288(%rsp), %rcx
	movq	(%rcx), %rsi
	movq	%rax, %rdi
	callq	_ZStlsISt11char_traitsIcEERSt13basic_ostreamIcT_ES5_PKc
	movq	%rax, %rdi
	movl	$.L.str2, %esi
	callq	_ZStlsISt11char_traitsIcEERSt13basic_ostreamIcT_ES5_PKc
	movq	%rax, %rdi
	movl	$_ZSt4endlIcSt11char_traitsIcEERSt13basic_ostreamIT_T0_ES6_, %esi
	callq	_ZNSolsEPFRSoS_E
	movl	$1, %edi
	.loc	1 72 0                  # src/main.cpp:72:0
	callq	exit
.Ltmp94:
.LBB1_42:                               # %lpad
.Ltmp6:
	.loc	1 94 0                  # src/main.cpp:94:0
	movq	%rax, 248(%rsp)
	movl	%edx, 244(%rsp)
	leaq	256(%rsp), %rdi
	callq	_ZNSaIcED1Ev
	movq	248(%rsp), %rdi
	callq	_Unwind_Resume
.LBB1_34:                               # %lpad47
.Ltmp25:
	.loc	1 116 0                 # src/main.cpp:116:0
	movq	%rax, 248(%rsp)
	movl	%edx, 244(%rsp)
	leaq	32(%rsp), %rdi
	callq	_ZNSaImED1Ev
	jmp	.LBB1_35
.LBB1_19:                               # %lpad51.nonloopexit.nonloopexit
.Ltmp34:
.LBB1_20:                               # %lpad51
	.loc	1 119 0                 # src/main.cpp:119:0
.Ltmp95:
	movq	%rax, 248(%rsp)
	movl	%edx, 244(%rsp)
.Ltmp96:
	.loc	1 146 0                 # src/main.cpp:146:0
.Ltmp52:
	leaq	48(%rsp), %rdi
	callq	_ZNSt6vectorImSaImEED1Ev
.Ltmp53:
	jmp	.LBB1_35
.LBB1_44:                               # %lpad75
.Ltmp37:
	movq	%rax, 248(%rsp)
	movl	%edx, 244(%rsp)
.LBB1_35:                               # %ehcleanup
.Ltmp54:
	leaq	72(%rsp), %rdi
	callq	_ZN15annealer_threadD1Ev
.Ltmp55:
	jmp	.LBB1_37
.LBB1_36:                               # %lpad43
.Ltmp40:
	.loc	1 109 0                 # src/main.cpp:109:0
	movq	%rax, 248(%rsp)
	movl	%edx, 244(%rsp)
.LBB1_37:                               # %ehcleanup81
	.loc	1 146 0                 # src/main.cpp:146:0
.Ltmp56:
	leaq	128(%rsp), %rdi
	callq	_ZN7netlistD1Ev
.Ltmp57:
	jmp	.LBB1_38
.LBB1_43:                               # %lpad24
.Ltmp43:
	.loc	1 95 0                  # src/main.cpp:95:0
	movq	%rax, 248(%rsp)
	movl	%edx, 244(%rsp)
.LBB1_38:                               # %ehcleanup83
	.loc	1 146 0                 # src/main.cpp:146:0
.Ltmp58:
	leaq	264(%rsp), %rdi
	callq	_ZNSsD1Ev
.Ltmp59:
# BB#39:                                # %eh.resume
	.loc	1 94 0                  # src/main.cpp:94:0
	movq	248(%rsp), %rdi
	callq	_Unwind_Resume
.LBB1_40:                               # %terminate.lpad
.Ltmp60:
	.loc	1 146 0                 # src/main.cpp:146:0
	callq	_ZSt9terminatev
.Ltmp97:
.Ltmp98:
	.size	main, .Ltmp98-main
.Lfunc_end1:
	.cfi_endproc
.Leh_func_end1:
	.section	.gcc_except_table,"a",@progbits
	.align	4
GCC_except_table1:
.Lexception1:
	.byte	255                     # @LPStart Encoding = omit
	.byte	3                       # @TType Encoding = udata4
	.asciz	 "\277\201"             # @TType base offset
	.byte	3                       # Call site Encoding = udata4
	.ascii	 "\266\001"             # Call site table length
.Lset0 = .Leh_func_begin1-.Leh_func_begin1 # >> Call Site 1 <<
	.long	.Lset0
.Lset1 = .Ltmp4-.Leh_func_begin1        #   Call between .Leh_func_begin1 and .Ltmp4
	.long	.Lset1
	.long	0                       #     has no landing pad
	.byte	0                       #   On action: cleanup
.Lset2 = .Ltmp4-.Leh_func_begin1        # >> Call Site 2 <<
	.long	.Lset2
.Lset3 = .Ltmp5-.Ltmp4                  #   Call between .Ltmp4 and .Ltmp5
	.long	.Lset3
.Lset4 = .Ltmp6-.Leh_func_begin1        #     jumps to .Ltmp6
	.long	.Lset4
	.byte	0                       #   On action: cleanup
.Lset5 = .Ltmp7-.Leh_func_begin1        # >> Call Site 3 <<
	.long	.Lset5
.Lset6 = .Ltmp20-.Ltmp7                 #   Call between .Ltmp7 and .Ltmp20
	.long	.Lset6
.Lset7 = .Ltmp43-.Leh_func_begin1       #     jumps to .Ltmp43
	.long	.Lset7
	.byte	0                       #   On action: cleanup
.Lset8 = .Ltmp21-.Leh_func_begin1       # >> Call Site 4 <<
	.long	.Lset8
.Lset9 = .Ltmp22-.Ltmp21                #   Call between .Ltmp21 and .Ltmp22
	.long	.Lset9
.Lset10 = .Ltmp40-.Leh_func_begin1      #     jumps to .Ltmp40
	.long	.Lset10
	.byte	0                       #   On action: cleanup
.Lset11 = .Ltmp23-.Leh_func_begin1      # >> Call Site 5 <<
	.long	.Lset11
.Lset12 = .Ltmp24-.Ltmp23               #   Call between .Ltmp23 and .Ltmp24
	.long	.Lset12
.Lset13 = .Ltmp25-.Leh_func_begin1      #     jumps to .Ltmp25
	.long	.Lset13
	.byte	0                       #   On action: cleanup
.Lset14 = .Ltmp49-.Leh_func_begin1      # >> Call Site 6 <<
	.long	.Lset14
.Lset15 = .Ltmp50-.Ltmp49               #   Call between .Ltmp49 and .Ltmp50
	.long	.Lset15
.Lset16 = .Ltmp51-.Leh_func_begin1      #     jumps to .Ltmp51
	.long	.Lset16
	.byte	0                       #   On action: cleanup
.Lset17 = .Ltmp44-.Leh_func_begin1      # >> Call Site 7 <<
	.long	.Lset17
.Lset18 = .Ltmp47-.Ltmp44               #   Call between .Ltmp44 and .Ltmp47
	.long	.Lset18
.Lset19 = .Ltmp48-.Leh_func_begin1      #     jumps to .Ltmp48
	.long	.Lset19
	.byte	0                       #   On action: cleanup
.Lset20 = .Ltmp26-.Leh_func_begin1      # >> Call Site 8 <<
	.long	.Lset20
.Lset21 = .Ltmp33-.Ltmp26               #   Call between .Ltmp26 and .Ltmp33
	.long	.Lset21
.Lset22 = .Ltmp34-.Leh_func_begin1      #     jumps to .Ltmp34
	.long	.Lset22
	.byte	0                       #   On action: cleanup
.Lset23 = .Ltmp35-.Leh_func_begin1      # >> Call Site 9 <<
	.long	.Lset23
.Lset24 = .Ltmp36-.Ltmp35               #   Call between .Ltmp35 and .Ltmp36
	.long	.Lset24
.Lset25 = .Ltmp37-.Leh_func_begin1      #     jumps to .Ltmp37
	.long	.Lset25
	.byte	0                       #   On action: cleanup
.Lset26 = .Ltmp38-.Leh_func_begin1      # >> Call Site 10 <<
	.long	.Lset26
.Lset27 = .Ltmp39-.Ltmp38               #   Call between .Ltmp38 and .Ltmp39
	.long	.Lset27
.Lset28 = .Ltmp40-.Leh_func_begin1      #     jumps to .Ltmp40
	.long	.Lset28
	.byte	0                       #   On action: cleanup
.Lset29 = .Ltmp41-.Leh_func_begin1      # >> Call Site 11 <<
	.long	.Lset29
.Lset30 = .Ltmp42-.Ltmp41               #   Call between .Ltmp41 and .Ltmp42
	.long	.Lset30
.Lset31 = .Ltmp43-.Leh_func_begin1      #     jumps to .Ltmp43
	.long	.Lset31
	.byte	0                       #   On action: cleanup
.Lset32 = .Ltmp42-.Leh_func_begin1      # >> Call Site 12 <<
	.long	.Lset32
.Lset33 = .Ltmp52-.Ltmp42               #   Call between .Ltmp42 and .Ltmp52
	.long	.Lset33
	.long	0                       #     has no landing pad
	.byte	0                       #   On action: cleanup
.Lset34 = .Ltmp52-.Leh_func_begin1      # >> Call Site 13 <<
	.long	.Lset34
.Lset35 = .Ltmp59-.Ltmp52               #   Call between .Ltmp52 and .Ltmp59
	.long	.Lset35
.Lset36 = .Ltmp60-.Leh_func_begin1      #     jumps to .Ltmp60
	.long	.Lset36
	.byte	1                       #   On action: 1
.Lset37 = .Ltmp59-.Leh_func_begin1      # >> Call Site 14 <<
	.long	.Lset37
.Lset38 = .Leh_func_end1-.Ltmp59        #   Call between .Ltmp59 and .Leh_func_end1
	.long	.Lset38
	.long	0                       #     has no landing pad
	.byte	0                       #   On action: cleanup
	.byte	1                       # >> Action Record 1 <<
                                        #   Catch TypeInfo 1
	.byte	0                       #   No further actions
                                        # >> Catch TypeInfos <<
	.long	0                       # TypeInfo 1
	.align	4

	.section	.text._ZN15annealer_threadC1EP7netlistiiii,"axG",@progbits,_ZN15annealer_threadC1EP7netlistiiii,comdat
	.weak	_ZN15annealer_threadC1EP7netlistiiii
	.align	16, 0x90
	.type	_ZN15annealer_threadC1EP7netlistiiii,@function
_ZN15annealer_threadC1EP7netlistiiii:   # @_ZN15annealer_threadC1EP7netlistiiii
	.cfi_startproc
.Lfunc_begin2:
	.loc	33 66 0                 # src/annealer_thread.h:66:0
# BB#0:                                 # %entry
	subq	$40, %rsp
.Ltmp100:
	.cfi_def_cfa_offset 48
	movq	%rdi, 32(%rsp)
	movq	%rsi, 24(%rsp)
	movl	%edx, 20(%rsp)
	movl	%ecx, 16(%rsp)
	movl	%r8d, 12(%rsp)
	movl	%r9d, 8(%rsp)
	.loc	33 71 0 prologue_end    # src/annealer_thread.h:71:0
.Ltmp101:
	movl	12(%rsp), %r8d
	movl	16(%rsp), %ecx
	movl	20(%rsp), %edx
	movq	24(%rsp), %rsi
	movq	32(%rsp), %rdi
	callq	_ZN15annealer_threadC2EP7netlistiiii
	addq	$40, %rsp
	ret
.Ltmp102:
.Ltmp103:
	.size	_ZN15annealer_threadC1EP7netlistiiii, .Ltmp103-_ZN15annealer_threadC1EP7netlistiiii
.Lfunc_end2:
	.cfi_endproc

	.section	.text._ZNSt6vectorImSaImEEC1EmRKmRKS0_,"axG",@progbits,_ZNSt6vectorImSaImEEC1EmRKmRKS0_,comdat
	.weak	_ZNSt6vectorImSaImEEC1EmRKmRKS0_
	.align	16, 0x90
	.type	_ZNSt6vectorImSaImEEC1EmRKmRKS0_,@function
_ZNSt6vectorImSaImEEC1EmRKmRKS0_:       # @_ZNSt6vectorImSaImEEC1EmRKmRKS0_
	.cfi_startproc
.Lfunc_begin3:
	.loc	17 298 0                # /usr/lib/gcc/x86_64-linux-gnu/4.8/../../../../include/c++/4.8/bits/stl_vector.h:298:0
# BB#0:                                 # %entry
	subq	$40, %rsp
.Ltmp105:
	.cfi_def_cfa_offset 48
	movq	%rdi, 32(%rsp)
	movq	%rsi, 24(%rsp)
	movq	%rdx, 16(%rsp)
	movq	%rcx, 8(%rsp)
	.loc	17 298 0 prologue_end   # /usr/lib/gcc/x86_64-linux-gnu/4.8/../../../../include/c++/4.8/bits/stl_vector.h:298:0
.Ltmp106:
	movq	16(%rsp), %rdx
	movq	24(%rsp), %rsi
	movq	32(%rsp), %rdi
	callq	_ZNSt6vectorImSaImEEC2EmRKmRKS0_
	addq	$40, %rsp
	ret
.Ltmp107:
.Ltmp108:
	.size	_ZNSt6vectorImSaImEEC1EmRKmRKS0_, .Ltmp108-_ZNSt6vectorImSaImEEC1EmRKmRKS0_
.Lfunc_end3:
	.cfi_endproc

	.section	.text._ZNSaImEC1Ev,"axG",@progbits,_ZNSaImEC1Ev,comdat
	.weak	_ZNSaImEC1Ev
	.align	16, 0x90
	.type	_ZNSaImEC1Ev,@function
_ZNSaImEC1Ev:                           # @_ZNSaImEC1Ev
	.cfi_startproc
.Lfunc_begin4:
	.loc	10 113 0                # /usr/lib/gcc/x86_64-linux-gnu/4.8/../../../../include/c++/4.8/bits/allocator.h:113:0
# BB#0:                                 # %entry
	pushq	%rax
.Ltmp110:
	.cfi_def_cfa_offset 16
	movq	%rdi, (%rsp)
	.loc	10 113 0 prologue_end   # /usr/lib/gcc/x86_64-linux-gnu/4.8/../../../../include/c++/4.8/bits/allocator.h:113:0
.Ltmp111:
	callq	_ZNSaImEC2Ev
	popq	%rax
	ret
.Ltmp112:
.Ltmp113:
	.size	_ZNSaImEC1Ev, .Ltmp113-_ZNSaImEC1Ev
.Lfunc_end4:
	.cfi_endproc

	.section	.text._ZNSaImED1Ev,"axG",@progbits,_ZNSaImED1Ev,comdat
	.weak	_ZNSaImED1Ev
	.align	16, 0x90
	.type	_ZNSaImED1Ev,@function
_ZNSaImED1Ev:                           # @_ZNSaImED1Ev
	.cfi_startproc
.Lfunc_begin5:
	.loc	10 121 0                # /usr/lib/gcc/x86_64-linux-gnu/4.8/../../../../include/c++/4.8/bits/allocator.h:121:0
# BB#0:                                 # %entry
	pushq	%rax
.Ltmp115:
	.cfi_def_cfa_offset 16
	movq	%rdi, (%rsp)
	.loc	10 121 0 prologue_end   # /usr/lib/gcc/x86_64-linux-gnu/4.8/../../../../include/c++/4.8/bits/allocator.h:121:0
.Ltmp116:
	callq	_ZNSaImED2Ev
	popq	%rax
	ret
.Ltmp117:
.Ltmp118:
	.size	_ZNSaImED1Ev, .Ltmp118-_ZNSaImED1Ev
.Lfunc_end5:
	.cfi_endproc

	.section	.text._ZNSt6vectorImSaImEEixEm,"axG",@progbits,_ZNSt6vectorImSaImEEixEm,comdat
	.weak	_ZNSt6vectorImSaImEEixEm
	.align	16, 0x90
	.type	_ZNSt6vectorImSaImEEixEm,@function
_ZNSt6vectorImSaImEEixEm:               # @_ZNSt6vectorImSaImEEixEm
	.cfi_startproc
.Lfunc_begin6:
	.loc	17 771 0                # /usr/lib/gcc/x86_64-linux-gnu/4.8/../../../../include/c++/4.8/bits/stl_vector.h:771:0
# BB#0:                                 # %entry
	movq	%rdi, -8(%rsp)
	movq	%rsi, -16(%rsp)
	.loc	17 771 0 prologue_end   # /usr/lib/gcc/x86_64-linux-gnu/4.8/../../../../include/c++/4.8/bits/stl_vector.h:771:0
.Ltmp119:
	leaq	(,%rsi,8), %rax
	movq	-8(%rsp), %rcx
	addq	(%rcx), %rax
	ret
.Ltmp120:
.Ltmp121:
	.size	_ZNSt6vectorImSaImEEixEm, .Ltmp121-_ZNSt6vectorImSaImEEixEm
.Lfunc_end6:
	.cfi_endproc

	.text
	.globl	_Z8entry_ptPv
	.align	16, 0x90
	.type	_Z8entry_ptPv,@function
_Z8entry_ptPv:                          # @_Z8entry_ptPv
	.cfi_startproc
.Lfunc_begin7:
	.loc	1 149 0                 # src/main.cpp:149:0
# BB#0:                                 # %entry
	subq	$24, %rsp
.Ltmp123:
	.cfi_def_cfa_offset 32
	movq	%rdi, 8(%rsp)
	.loc	1 150 0 prologue_end    # src/main.cpp:150:0
.Ltmp124:
	movq	%rdi, (%rsp)
	.loc	1 151 0                 # src/main.cpp:151:0
	callq	_ZN15annealer_thread3RunEv
	.loc	1 152 0                 # src/main.cpp:152:0
	ud2
.Ltmp125:
.Ltmp126:
	.size	_Z8entry_ptPv, .Ltmp126-_Z8entry_ptPv
.Lfunc_end7:
	.cfi_endproc

	.section	.text._ZNSt6vectorImSaImEED1Ev,"axG",@progbits,_ZNSt6vectorImSaImEED1Ev,comdat
	.weak	_ZNSt6vectorImSaImEED1Ev
	.align	16, 0x90
	.type	_ZNSt6vectorImSaImEED1Ev,@function
_ZNSt6vectorImSaImEED1Ev:               # @_ZNSt6vectorImSaImEED1Ev
	.cfi_startproc
.Lfunc_begin8:
	.loc	17 415 0                # /usr/lib/gcc/x86_64-linux-gnu/4.8/../../../../include/c++/4.8/bits/stl_vector.h:415:0
# BB#0:                                 # %entry
	pushq	%rax
.Ltmp128:
	.cfi_def_cfa_offset 16
	movq	%rdi, (%rsp)
	.loc	17 415 0 prologue_end   # /usr/lib/gcc/x86_64-linux-gnu/4.8/../../../../include/c++/4.8/bits/stl_vector.h:415:0
.Ltmp129:
	callq	_ZNSt6vectorImSaImEED2Ev
	.loc	17 416 0                # /usr/lib/gcc/x86_64-linux-gnu/4.8/../../../../include/c++/4.8/bits/stl_vector.h:416:0
	popq	%rax
	ret
.Ltmp130:
.Ltmp131:
	.size	_ZNSt6vectorImSaImEED1Ev, .Ltmp131-_ZNSt6vectorImSaImEED1Ev
.Lfunc_end8:
	.cfi_endproc

	.section	.text._ZN15annealer_threadD1Ev,"axG",@progbits,_ZN15annealer_threadD1Ev,comdat
	.weak	_ZN15annealer_threadD1Ev
	.align	16, 0x90
	.type	_ZN15annealer_threadD1Ev,@function
_ZN15annealer_threadD1Ev:               # @_ZN15annealer_threadD1Ev
	.cfi_startproc
.Lfunc_begin9:
	.loc	33 73 0                 # src/annealer_thread.h:73:0
# BB#0:                                 # %entry
	pushq	%rax
.Ltmp133:
	.cfi_def_cfa_offset 16
	movq	%rdi, (%rsp)
	.loc	33 73 0 prologue_end    # src/annealer_thread.h:73:0
.Ltmp134:
	callq	_ZN15annealer_threadD2Ev
	.loc	33 77 0                 # src/annealer_thread.h:77:0
	popq	%rax
	ret
.Ltmp135:
.Ltmp136:
	.size	_ZN15annealer_threadD1Ev, .Ltmp136-_ZN15annealer_threadD1Ev
.Lfunc_end9:
	.cfi_endproc

	.section	.text._ZN7netlistD1Ev,"axG",@progbits,_ZN7netlistD1Ev,comdat
	.weak	_ZN7netlistD1Ev
	.align	16, 0x90
	.type	_ZN7netlistD1Ev,@function
_ZN7netlistD1Ev:                        # @_ZN7netlistD1Ev
	.cfi_startproc
.Lfunc_begin10:
	.loc	27 45 0                 # src/netlist.h:45:0
# BB#0:                                 # %entry
	pushq	%rax
.Ltmp138:
	.cfi_def_cfa_offset 16
	movq	%rdi, (%rsp)
	.loc	27 45 0 prologue_end    # src/netlist.h:45:0
.Ltmp139:
	callq	_ZN7netlistD2Ev
	popq	%rax
	ret
.Ltmp140:
.Ltmp141:
	.size	_ZN7netlistD1Ev, .Ltmp141-_ZN7netlistD1Ev
.Lfunc_end10:
	.cfi_endproc

	.section	.text._ZNSt6vectorImSaImEED2Ev,"axG",@progbits,_ZNSt6vectorImSaImEED2Ev,comdat
	.weak	_ZNSt6vectorImSaImEED2Ev
	.align	16, 0x90
	.type	_ZNSt6vectorImSaImEED2Ev,@function
_ZNSt6vectorImSaImEED2Ev:               # @_ZNSt6vectorImSaImEED2Ev
	.cfi_startproc
	.cfi_personality 3, __gxx_personality_v0
.Leh_func_begin11:
	.cfi_lsda 3, .Lexception11
.Lfunc_begin11:
	.loc	17 415 0                # /usr/lib/gcc/x86_64-linux-gnu/4.8/../../../../include/c++/4.8/bits/stl_vector.h:415:0
# BB#0:                                 # %entry
	pushq	%r15
.Ltmp154:
	.cfi_def_cfa_offset 16
	pushq	%r14
.Ltmp155:
	.cfi_def_cfa_offset 24
	pushq	%rbx
.Ltmp156:
	.cfi_def_cfa_offset 32
	subq	$32, %rsp
.Ltmp157:
	.cfi_def_cfa_offset 64
.Ltmp158:
	.cfi_offset %rbx, -32
.Ltmp159:
	.cfi_offset %r14, -24
.Ltmp160:
	.cfi_offset %r15, -16
	movq	%rdi, %rbx
	movq	%rbx, 24(%rsp)
	.loc	17 415 0 prologue_end   # /usr/lib/gcc/x86_64-linux-gnu/4.8/../../../../include/c++/4.8/bits/stl_vector.h:415:0
.Ltmp161:
	movq	(%rbx), %r14
	movq	8(%rbx), %r15
	.loc	17 416 0                # /usr/lib/gcc/x86_64-linux-gnu/4.8/../../../../include/c++/4.8/bits/stl_vector.h:416:0
.Ltmp142:
	callq	_ZNSt12_Vector_baseImSaImEE19_M_get_Tp_allocatorEv
.Ltmp143:
# BB#1:                                 # %invoke.cont
.Ltmp144:
	movq	%r14, %rdi
	movq	%r15, %rsi
	movq	%rax, %rdx
	callq	_ZSt8_DestroyIPmmEvT_S1_RSaIT0_E
.Ltmp145:
# BB#2:                                 # %invoke.cont3
	movq	%rbx, %rdi
	callq	_ZNSt12_Vector_baseImSaImEED2Ev
	addq	$32, %rsp
	popq	%rbx
	popq	%r14
	popq	%r15
	ret
.LBB11_3:                               # %lpad
.Ltmp146:
	movq	%rax, 16(%rsp)
	movl	%edx, 12(%rsp)
.Ltmp147:
	movq	%rbx, %rdi
	callq	_ZNSt12_Vector_baseImSaImEED2Ev
.Ltmp148:
# BB#4:                                 # %eh.resume
	movq	16(%rsp), %rdi
	callq	_Unwind_Resume
.LBB11_5:                               # %terminate.lpad
.Ltmp149:
	callq	_ZSt9terminatev
.Ltmp162:
.Ltmp163:
	.size	_ZNSt6vectorImSaImEED2Ev, .Ltmp163-_ZNSt6vectorImSaImEED2Ev
.Lfunc_end11:
	.cfi_endproc
.Leh_func_end11:
	.section	.gcc_except_table,"a",@progbits
	.align	4
GCC_except_table11:
.Lexception11:
	.byte	255                     # @LPStart Encoding = omit
	.byte	3                       # @TType Encoding = udata4
	.asciz	 "\274"                 # @TType base offset
	.byte	3                       # Call site Encoding = udata4
	.byte	52                      # Call site table length
.Lset39 = .Ltmp142-.Leh_func_begin11    # >> Call Site 1 <<
	.long	.Lset39
.Lset40 = .Ltmp145-.Ltmp142             #   Call between .Ltmp142 and .Ltmp145
	.long	.Lset40
.Lset41 = .Ltmp146-.Leh_func_begin11    #     jumps to .Ltmp146
	.long	.Lset41
	.byte	0                       #   On action: cleanup
.Lset42 = .Ltmp145-.Leh_func_begin11    # >> Call Site 2 <<
	.long	.Lset42
.Lset43 = .Ltmp147-.Ltmp145             #   Call between .Ltmp145 and .Ltmp147
	.long	.Lset43
	.long	0                       #     has no landing pad
	.byte	0                       #   On action: cleanup
.Lset44 = .Ltmp147-.Leh_func_begin11    # >> Call Site 3 <<
	.long	.Lset44
.Lset45 = .Ltmp148-.Ltmp147             #   Call between .Ltmp147 and .Ltmp148
	.long	.Lset45
.Lset46 = .Ltmp149-.Leh_func_begin11    #     jumps to .Ltmp149
	.long	.Lset46
	.byte	1                       #   On action: 1
.Lset47 = .Ltmp148-.Leh_func_begin11    # >> Call Site 4 <<
	.long	.Lset47
.Lset48 = .Leh_func_end11-.Ltmp148      #   Call between .Ltmp148 and .Leh_func_end11
	.long	.Lset48
	.long	0                       #     has no landing pad
	.byte	0                       #   On action: cleanup
	.byte	1                       # >> Action Record 1 <<
                                        #   Catch TypeInfo 1
	.byte	0                       #   No further actions
                                        # >> Catch TypeInfos <<
	.long	0                       # TypeInfo 1
	.align	4

	.section	.text._ZSt8_DestroyIPmmEvT_S1_RSaIT0_E,"axG",@progbits,_ZSt8_DestroyIPmmEvT_S1_RSaIT0_E,comdat
	.weak	_ZSt8_DestroyIPmmEvT_S1_RSaIT0_E
	.align	16, 0x90
	.type	_ZSt8_DestroyIPmmEvT_S1_RSaIT0_E,@function
_ZSt8_DestroyIPmmEvT_S1_RSaIT0_E:       # @_ZSt8_DestroyIPmmEvT_S1_RSaIT0_E
	.cfi_startproc
.Lfunc_begin12:
	.loc	19 150 0                # /usr/lib/gcc/x86_64-linux-gnu/4.8/../../../../include/c++/4.8/bits/stl_construct.h:150:0
# BB#0:                                 # %entry
	subq	$24, %rsp
.Ltmp165:
	.cfi_def_cfa_offset 32
	movq	%rdi, 16(%rsp)
	movq	%rsi, 8(%rsp)
	movq	%rdx, (%rsp)
	.loc	19 151 0 prologue_end   # /usr/lib/gcc/x86_64-linux-gnu/4.8/../../../../include/c++/4.8/bits/stl_construct.h:151:0
.Ltmp166:
	movq	8(%rsp), %rsi
	movq	16(%rsp), %rdi
	callq	_ZSt8_DestroyIPmEvT_S1_
	.loc	19 152 0                # /usr/lib/gcc/x86_64-linux-gnu/4.8/../../../../include/c++/4.8/bits/stl_construct.h:152:0
	addq	$24, %rsp
	ret
.Ltmp167:
.Ltmp168:
	.size	_ZSt8_DestroyIPmmEvT_S1_RSaIT0_E, .Ltmp168-_ZSt8_DestroyIPmmEvT_S1_RSaIT0_E
.Lfunc_end12:
	.cfi_endproc

	.section	.text._ZNSt12_Vector_baseImSaImEE19_M_get_Tp_allocatorEv,"axG",@progbits,_ZNSt12_Vector_baseImSaImEE19_M_get_Tp_allocatorEv,comdat
	.weak	_ZNSt12_Vector_baseImSaImEE19_M_get_Tp_allocatorEv
	.align	16, 0x90
	.type	_ZNSt12_Vector_baseImSaImEE19_M_get_Tp_allocatorEv,@function
_ZNSt12_Vector_baseImSaImEE19_M_get_Tp_allocatorEv: # @_ZNSt12_Vector_baseImSaImEE19_M_get_Tp_allocatorEv
	.cfi_startproc
.Lfunc_begin13:
	.loc	17 114 0                # /usr/lib/gcc/x86_64-linux-gnu/4.8/../../../../include/c++/4.8/bits/stl_vector.h:114:0
# BB#0:                                 # %entry
	movq	%rdi, -8(%rsp)
	.loc	17 114 0 prologue_end   # /usr/lib/gcc/x86_64-linux-gnu/4.8/../../../../include/c++/4.8/bits/stl_vector.h:114:0
.Ltmp169:
	movq	%rdi, %rax
	ret
.Ltmp170:
.Ltmp171:
	.size	_ZNSt12_Vector_baseImSaImEE19_M_get_Tp_allocatorEv, .Ltmp171-_ZNSt12_Vector_baseImSaImEE19_M_get_Tp_allocatorEv
.Lfunc_end13:
	.cfi_endproc

	.section	.text._ZNSt12_Vector_baseImSaImEED2Ev,"axG",@progbits,_ZNSt12_Vector_baseImSaImEED2Ev,comdat
	.weak	_ZNSt12_Vector_baseImSaImEED2Ev
	.align	16, 0x90
	.type	_ZNSt12_Vector_baseImSaImEED2Ev,@function
_ZNSt12_Vector_baseImSaImEED2Ev:        # @_ZNSt12_Vector_baseImSaImEED2Ev
	.cfi_startproc
	.cfi_personality 3, __gxx_personality_v0
.Leh_func_begin14:
	.cfi_lsda 3, .Lexception14
.Lfunc_begin14:
	.loc	17 160 0                # /usr/lib/gcc/x86_64-linux-gnu/4.8/../../../../include/c++/4.8/bits/stl_vector.h:160:0
# BB#0:                                 # %entry
	pushq	%rbx
.Ltmp177:
	.cfi_def_cfa_offset 16
	subq	$32, %rsp
.Ltmp178:
	.cfi_def_cfa_offset 48
.Ltmp179:
	.cfi_offset %rbx, -16
	movq	%rdi, %rbx
	movq	%rbx, 24(%rsp)
	.loc	17 160 0 prologue_end   # /usr/lib/gcc/x86_64-linux-gnu/4.8/../../../../include/c++/4.8/bits/stl_vector.h:160:0
.Ltmp180:
	movq	(%rbx), %rsi
	movq	16(%rbx), %rdx
.Ltmp172:
	subq	%rsi, %rdx
	sarq	$3, %rdx
	callq	_ZNSt12_Vector_baseImSaImEE13_M_deallocateEPmm
.Ltmp173:
# BB#1:                                 # %invoke.cont
	.loc	17 161 0                # /usr/lib/gcc/x86_64-linux-gnu/4.8/../../../../include/c++/4.8/bits/stl_vector.h:161:0
	movq	%rbx, %rdi
	callq	_ZNSt12_Vector_baseImSaImEE12_Vector_implD1Ev
	addq	$32, %rsp
	popq	%rbx
	ret
.LBB14_2:                               # %eh.resume
.Ltmp174:
	.loc	17 160 0                # /usr/lib/gcc/x86_64-linux-gnu/4.8/../../../../include/c++/4.8/bits/stl_vector.h:160:0
	movq	%rax, 16(%rsp)
	movl	%edx, 12(%rsp)
	.loc	17 161 0                # /usr/lib/gcc/x86_64-linux-gnu/4.8/../../../../include/c++/4.8/bits/stl_vector.h:161:0
	movq	%rbx, %rdi
	callq	_ZNSt12_Vector_baseImSaImEE12_Vector_implD1Ev
	movq	16(%rsp), %rdi
	callq	_Unwind_Resume
.Ltmp181:
.Ltmp182:
	.size	_ZNSt12_Vector_baseImSaImEED2Ev, .Ltmp182-_ZNSt12_Vector_baseImSaImEED2Ev
.Lfunc_end14:
	.cfi_endproc
.Leh_func_end14:
	.section	.gcc_except_table,"a",@progbits
	.align	4
GCC_except_table14:
.Lexception14:
	.byte	255                     # @LPStart Encoding = omit
	.byte	3                       # @TType Encoding = udata4
	.asciz	 "\234"                 # @TType base offset
	.byte	3                       # Call site Encoding = udata4
	.byte	26                      # Call site table length
.Lset49 = .Ltmp172-.Leh_func_begin14    # >> Call Site 1 <<
	.long	.Lset49
.Lset50 = .Ltmp173-.Ltmp172             #   Call between .Ltmp172 and .Ltmp173
	.long	.Lset50
.Lset51 = .Ltmp174-.Leh_func_begin14    #     jumps to .Ltmp174
	.long	.Lset51
	.byte	0                       #   On action: cleanup
.Lset52 = .Ltmp173-.Leh_func_begin14    # >> Call Site 2 <<
	.long	.Lset52
.Lset53 = .Leh_func_end14-.Ltmp173      #   Call between .Ltmp173 and .Leh_func_end14
	.long	.Lset53
	.long	0                       #     has no landing pad
	.byte	0                       #   On action: cleanup
	.align	4

	.section	.text._ZNSt12_Vector_baseImSaImEE13_M_deallocateEPmm,"axG",@progbits,_ZNSt12_Vector_baseImSaImEE13_M_deallocateEPmm,comdat
	.weak	_ZNSt12_Vector_baseImSaImEE13_M_deallocateEPmm
	.align	16, 0x90
	.type	_ZNSt12_Vector_baseImSaImEE13_M_deallocateEPmm,@function
_ZNSt12_Vector_baseImSaImEE13_M_deallocateEPmm: # @_ZNSt12_Vector_baseImSaImEE13_M_deallocateEPmm
	.cfi_startproc
.Lfunc_begin15:
	.loc	17 172 0                # /usr/lib/gcc/x86_64-linux-gnu/4.8/../../../../include/c++/4.8/bits/stl_vector.h:172:0
# BB#0:                                 # %entry
	subq	$24, %rsp
.Ltmp184:
	.cfi_def_cfa_offset 32
	movq	%rdi, 16(%rsp)
	movq	%rsi, 8(%rsp)
	movq	%rdx, (%rsp)
	.loc	17 173 0 prologue_end   # /usr/lib/gcc/x86_64-linux-gnu/4.8/../../../../include/c++/4.8/bits/stl_vector.h:173:0
.Ltmp185:
	cmpq	$0, 8(%rsp)
	je	.LBB15_2
# BB#1:                                 # %if.then
	movq	16(%rsp), %rdi
	.loc	17 174 0                # /usr/lib/gcc/x86_64-linux-gnu/4.8/../../../../include/c++/4.8/bits/stl_vector.h:174:0
	movq	(%rsp), %rdx
	movq	8(%rsp), %rsi
	callq	_ZN9__gnu_cxx13new_allocatorImE10deallocateEPmm
.LBB15_2:                               # %if.end
	.loc	17 175 0                # /usr/lib/gcc/x86_64-linux-gnu/4.8/../../../../include/c++/4.8/bits/stl_vector.h:175:0
	addq	$24, %rsp
	ret
.Ltmp186:
.Ltmp187:
	.size	_ZNSt12_Vector_baseImSaImEE13_M_deallocateEPmm, .Ltmp187-_ZNSt12_Vector_baseImSaImEE13_M_deallocateEPmm
.Lfunc_end15:
	.cfi_endproc

	.section	.text._ZNSt12_Vector_baseImSaImEE12_Vector_implD1Ev,"axG",@progbits,_ZNSt12_Vector_baseImSaImEE12_Vector_implD1Ev,comdat
	.weak	_ZNSt12_Vector_baseImSaImEE12_Vector_implD1Ev
	.align	16, 0x90
	.type	_ZNSt12_Vector_baseImSaImEE12_Vector_implD1Ev,@function
_ZNSt12_Vector_baseImSaImEE12_Vector_implD1Ev: # @_ZNSt12_Vector_baseImSaImEE12_Vector_implD1Ev
	.cfi_startproc
.Lfunc_begin16:
	.loc	17 79 0                 # /usr/lib/gcc/x86_64-linux-gnu/4.8/../../../../include/c++/4.8/bits/stl_vector.h:79:0
# BB#0:                                 # %entry
	pushq	%rax
.Ltmp189:
	.cfi_def_cfa_offset 16
	movq	%rdi, (%rsp)
	.loc	17 79 0 prologue_end    # /usr/lib/gcc/x86_64-linux-gnu/4.8/../../../../include/c++/4.8/bits/stl_vector.h:79:0
.Ltmp190:
	callq	_ZNSt12_Vector_baseImSaImEE12_Vector_implD2Ev
	popq	%rax
	ret
.Ltmp191:
.Ltmp192:
	.size	_ZNSt12_Vector_baseImSaImEE12_Vector_implD1Ev, .Ltmp192-_ZNSt12_Vector_baseImSaImEE12_Vector_implD1Ev
.Lfunc_end16:
	.cfi_endproc

	.section	.text._ZNSt12_Vector_baseImSaImEE12_Vector_implD2Ev,"axG",@progbits,_ZNSt12_Vector_baseImSaImEE12_Vector_implD2Ev,comdat
	.weak	_ZNSt12_Vector_baseImSaImEE12_Vector_implD2Ev
	.align	16, 0x90
	.type	_ZNSt12_Vector_baseImSaImEE12_Vector_implD2Ev,@function
_ZNSt12_Vector_baseImSaImEE12_Vector_implD2Ev: # @_ZNSt12_Vector_baseImSaImEE12_Vector_implD2Ev
	.cfi_startproc
.Lfunc_begin17:
	.loc	17 79 0                 # /usr/lib/gcc/x86_64-linux-gnu/4.8/../../../../include/c++/4.8/bits/stl_vector.h:79:0
# BB#0:                                 # %entry
	pushq	%rax
.Ltmp194:
	.cfi_def_cfa_offset 16
	movq	%rdi, (%rsp)
	.loc	17 79 0 prologue_end    # /usr/lib/gcc/x86_64-linux-gnu/4.8/../../../../include/c++/4.8/bits/stl_vector.h:79:0
.Ltmp195:
	callq	_ZNSaImED2Ev
	popq	%rax
	ret
.Ltmp196:
.Ltmp197:
	.size	_ZNSt12_Vector_baseImSaImEE12_Vector_implD2Ev, .Ltmp197-_ZNSt12_Vector_baseImSaImEE12_Vector_implD2Ev
.Lfunc_end17:
	.cfi_endproc

	.section	.text._ZNSaImED2Ev,"axG",@progbits,_ZNSaImED2Ev,comdat
	.weak	_ZNSaImED2Ev
	.align	16, 0x90
	.type	_ZNSaImED2Ev,@function
_ZNSaImED2Ev:                           # @_ZNSaImED2Ev
	.cfi_startproc
.Lfunc_begin18:
	.loc	10 121 0                # /usr/lib/gcc/x86_64-linux-gnu/4.8/../../../../include/c++/4.8/bits/allocator.h:121:0
# BB#0:                                 # %entry
	pushq	%rax
.Ltmp199:
	.cfi_def_cfa_offset 16
	movq	%rdi, (%rsp)
	.loc	10 121 0 prologue_end   # /usr/lib/gcc/x86_64-linux-gnu/4.8/../../../../include/c++/4.8/bits/allocator.h:121:0
.Ltmp200:
	callq	_ZN9__gnu_cxx13new_allocatorImED2Ev
	popq	%rax
	ret
.Ltmp201:
.Ltmp202:
	.size	_ZNSaImED2Ev, .Ltmp202-_ZNSaImED2Ev
.Lfunc_end18:
	.cfi_endproc

	.section	.text._ZN9__gnu_cxx13new_allocatorImED2Ev,"axG",@progbits,_ZN9__gnu_cxx13new_allocatorImED2Ev,comdat
	.weak	_ZN9__gnu_cxx13new_allocatorImED2Ev
	.align	16, 0x90
	.type	_ZN9__gnu_cxx13new_allocatorImED2Ev,@function
_ZN9__gnu_cxx13new_allocatorImED2Ev:    # @_ZN9__gnu_cxx13new_allocatorImED2Ev
	.cfi_startproc
.Lfunc_begin19:
	.loc	9 86 0                  # /usr/lib/gcc/x86_64-linux-gnu/4.8/../../../../include/c++/4.8/ext/new_allocator.h:86:0
# BB#0:                                 # %entry
	movq	%rdi, -8(%rsp)
	.loc	9 86 0 prologue_end     # /usr/lib/gcc/x86_64-linux-gnu/4.8/../../../../include/c++/4.8/ext/new_allocator.h:86:0
.Ltmp203:
	ret
.Ltmp204:
.Ltmp205:
	.size	_ZN9__gnu_cxx13new_allocatorImED2Ev, .Ltmp205-_ZN9__gnu_cxx13new_allocatorImED2Ev
.Lfunc_end19:
	.cfi_endproc

	.section	.text._ZN9__gnu_cxx13new_allocatorImE10deallocateEPmm,"axG",@progbits,_ZN9__gnu_cxx13new_allocatorImE10deallocateEPmm,comdat
	.weak	_ZN9__gnu_cxx13new_allocatorImE10deallocateEPmm
	.align	16, 0x90
	.type	_ZN9__gnu_cxx13new_allocatorImE10deallocateEPmm,@function
_ZN9__gnu_cxx13new_allocatorImE10deallocateEPmm: # @_ZN9__gnu_cxx13new_allocatorImE10deallocateEPmm
	.cfi_startproc
.Lfunc_begin20:
	.loc	9 110 0                 # /usr/lib/gcc/x86_64-linux-gnu/4.8/../../../../include/c++/4.8/ext/new_allocator.h:110:0
# BB#0:                                 # %entry
	subq	$24, %rsp
.Ltmp207:
	.cfi_def_cfa_offset 32
	movq	%rdi, 16(%rsp)
	movq	%rsi, 8(%rsp)
	movq	%rdx, (%rsp)
	.loc	9 110 0 prologue_end    # /usr/lib/gcc/x86_64-linux-gnu/4.8/../../../../include/c++/4.8/ext/new_allocator.h:110:0
.Ltmp208:
	movq	8(%rsp), %rdi
	callq	_ZdlPv
	addq	$24, %rsp
	ret
.Ltmp209:
.Ltmp210:
	.size	_ZN9__gnu_cxx13new_allocatorImE10deallocateEPmm, .Ltmp210-_ZN9__gnu_cxx13new_allocatorImE10deallocateEPmm
.Lfunc_end20:
	.cfi_endproc

	.section	.text._ZSt8_DestroyIPmEvT_S1_,"axG",@progbits,_ZSt8_DestroyIPmEvT_S1_,comdat
	.weak	_ZSt8_DestroyIPmEvT_S1_
	.align	16, 0x90
	.type	_ZSt8_DestroyIPmEvT_S1_,@function
_ZSt8_DestroyIPmEvT_S1_:                # @_ZSt8_DestroyIPmEvT_S1_
	.cfi_startproc
.Lfunc_begin21:
	.loc	19 123 0                # /usr/lib/gcc/x86_64-linux-gnu/4.8/../../../../include/c++/4.8/bits/stl_construct.h:123:0
# BB#0:                                 # %entry
	subq	$24, %rsp
.Ltmp212:
	.cfi_def_cfa_offset 32
	movq	%rdi, 16(%rsp)
	movq	%rsi, 8(%rsp)
	.loc	19 126 0 prologue_end   # /usr/lib/gcc/x86_64-linux-gnu/4.8/../../../../include/c++/4.8/bits/stl_construct.h:126:0
.Ltmp213:
	movq	16(%rsp), %rdi
	callq	_ZNSt12_Destroy_auxILb1EE9__destroyIPmEEvT_S3_
	.loc	19 128 0                # /usr/lib/gcc/x86_64-linux-gnu/4.8/../../../../include/c++/4.8/bits/stl_construct.h:128:0
	addq	$24, %rsp
	ret
.Ltmp214:
.Ltmp215:
	.size	_ZSt8_DestroyIPmEvT_S1_, .Ltmp215-_ZSt8_DestroyIPmEvT_S1_
.Lfunc_end21:
	.cfi_endproc

	.section	.text._ZNSt12_Destroy_auxILb1EE9__destroyIPmEEvT_S3_,"axG",@progbits,_ZNSt12_Destroy_auxILb1EE9__destroyIPmEEvT_S3_,comdat
	.weak	_ZNSt12_Destroy_auxILb1EE9__destroyIPmEEvT_S3_
	.align	16, 0x90
	.type	_ZNSt12_Destroy_auxILb1EE9__destroyIPmEEvT_S3_,@function
_ZNSt12_Destroy_auxILb1EE9__destroyIPmEEvT_S3_: # @_ZNSt12_Destroy_auxILb1EE9__destroyIPmEEvT_S3_
	.cfi_startproc
.Lfunc_begin22:
	.loc	19 112 0                # /usr/lib/gcc/x86_64-linux-gnu/4.8/../../../../include/c++/4.8/bits/stl_construct.h:112:0
# BB#0:                                 # %entry
	movq	%rdi, -8(%rsp)
	movq	%rsi, -16(%rsp)
	.loc	19 112 0 prologue_end   # /usr/lib/gcc/x86_64-linux-gnu/4.8/../../../../include/c++/4.8/bits/stl_construct.h:112:0
.Ltmp216:
	ret
.Ltmp217:
.Ltmp218:
	.size	_ZNSt12_Destroy_auxILb1EE9__destroyIPmEEvT_S3_, .Ltmp218-_ZNSt12_Destroy_auxILb1EE9__destroyIPmEEvT_S3_
.Lfunc_end22:
	.cfi_endproc

	.section	.text._ZNSt6vectorImSaImEEC2EmRKmRKS0_,"axG",@progbits,_ZNSt6vectorImSaImEEC2EmRKmRKS0_,comdat
	.weak	_ZNSt6vectorImSaImEEC2EmRKmRKS0_
	.align	16, 0x90
	.type	_ZNSt6vectorImSaImEEC2EmRKmRKS0_,@function
_ZNSt6vectorImSaImEEC2EmRKmRKS0_:       # @_ZNSt6vectorImSaImEEC2EmRKmRKS0_
	.cfi_startproc
	.cfi_personality 3, __gxx_personality_v0
.Leh_func_begin23:
	.cfi_lsda 3, .Lexception23
.Lfunc_begin23:
	.loc	17 298 0                # /usr/lib/gcc/x86_64-linux-gnu/4.8/../../../../include/c++/4.8/bits/stl_vector.h:298:0
# BB#0:                                 # %entry
	pushq	%rbx
.Ltmp227:
	.cfi_def_cfa_offset 16
	subq	$48, %rsp
.Ltmp228:
	.cfi_def_cfa_offset 64
.Ltmp229:
	.cfi_offset %rbx, -16
	movq	%rdi, 40(%rsp)
	movq	%rsi, 32(%rsp)
	movq	%rdx, 24(%rsp)
	movq	%rcx, 16(%rsp)
	.loc	17 298 0 prologue_end   # /usr/lib/gcc/x86_64-linux-gnu/4.8/../../../../include/c++/4.8/bits/stl_vector.h:298:0
.Ltmp230:
	movq	32(%rsp), %rsi
	movq	40(%rsp), %rbx
	movq	%rbx, %rdi
	movq	%rcx, %rdx
	callq	_ZNSt12_Vector_baseImSaImEEC2EmRKS0_
	.loc	17 298 0                # /usr/lib/gcc/x86_64-linux-gnu/4.8/../../../../include/c++/4.8/bits/stl_vector.h:298:0
.Ltmp231:
	movq	24(%rsp), %rdx
	movq	32(%rsp), %rsi
.Ltmp219:
	movq	%rbx, %rdi
	callq	_ZNSt6vectorImSaImEE18_M_fill_initializeEmRKm
.Ltmp220:
# BB#1:                                 # %invoke.cont
	addq	$48, %rsp
	popq	%rbx
	ret
.LBB23_2:                               # %lpad
.Ltmp221:
	movq	%rax, 8(%rsp)
	movl	%edx, 4(%rsp)
.Ltmp222:
	movq	%rbx, %rdi
	callq	_ZNSt12_Vector_baseImSaImEED2Ev
.Ltmp223:
# BB#3:                                 # %eh.resume
	movq	8(%rsp), %rdi
	callq	_Unwind_Resume
.LBB23_4:                               # %terminate.lpad
.Ltmp224:
	callq	_ZSt9terminatev
.Ltmp232:
.Ltmp233:
	.size	_ZNSt6vectorImSaImEEC2EmRKmRKS0_, .Ltmp233-_ZNSt6vectorImSaImEEC2EmRKmRKS0_
.Lfunc_end23:
	.cfi_endproc
.Leh_func_end23:
	.section	.gcc_except_table,"a",@progbits
	.align	4
GCC_except_table23:
.Lexception23:
	.byte	255                     # @LPStart Encoding = omit
	.byte	3                       # @TType Encoding = udata4
	.asciz	 "\274"                 # @TType base offset
	.byte	3                       # Call site Encoding = udata4
	.byte	52                      # Call site table length
.Lset54 = .Leh_func_begin23-.Leh_func_begin23 # >> Call Site 1 <<
	.long	.Lset54
.Lset55 = .Ltmp219-.Leh_func_begin23    #   Call between .Leh_func_begin23 and .Ltmp219
	.long	.Lset55
	.long	0                       #     has no landing pad
	.byte	0                       #   On action: cleanup
.Lset56 = .Ltmp219-.Leh_func_begin23    # >> Call Site 2 <<
	.long	.Lset56
.Lset57 = .Ltmp220-.Ltmp219             #   Call between .Ltmp219 and .Ltmp220
	.long	.Lset57
.Lset58 = .Ltmp221-.Leh_func_begin23    #     jumps to .Ltmp221
	.long	.Lset58
	.byte	0                       #   On action: cleanup
.Lset59 = .Ltmp222-.Leh_func_begin23    # >> Call Site 3 <<
	.long	.Lset59
.Lset60 = .Ltmp223-.Ltmp222             #   Call between .Ltmp222 and .Ltmp223
	.long	.Lset60
.Lset61 = .Ltmp224-.Leh_func_begin23    #     jumps to .Ltmp224
	.long	.Lset61
	.byte	1                       #   On action: 1
.Lset62 = .Ltmp223-.Leh_func_begin23    # >> Call Site 4 <<
	.long	.Lset62
.Lset63 = .Leh_func_end23-.Ltmp223      #   Call between .Ltmp223 and .Leh_func_end23
	.long	.Lset63
	.long	0                       #     has no landing pad
	.byte	0                       #   On action: cleanup
	.byte	1                       # >> Action Record 1 <<
                                        #   Catch TypeInfo 1
	.byte	0                       #   No further actions
                                        # >> Catch TypeInfos <<
	.long	0                       # TypeInfo 1
	.align	4

	.section	.text._ZNSt12_Vector_baseImSaImEEC2EmRKS0_,"axG",@progbits,_ZNSt12_Vector_baseImSaImEEC2EmRKS0_,comdat
	.weak	_ZNSt12_Vector_baseImSaImEEC2EmRKS0_
	.align	16, 0x90
	.type	_ZNSt12_Vector_baseImSaImEEC2EmRKS0_,@function
_ZNSt12_Vector_baseImSaImEEC2EmRKS0_:   # @_ZNSt12_Vector_baseImSaImEEC2EmRKS0_
	.cfi_startproc
	.cfi_personality 3, __gxx_personality_v0
.Leh_func_begin24:
	.cfi_lsda 3, .Lexception24
.Lfunc_begin24:
	.loc	17 136 0                # /usr/lib/gcc/x86_64-linux-gnu/4.8/../../../../include/c++/4.8/bits/stl_vector.h:136:0
# BB#0:                                 # %entry
	pushq	%rbx
.Ltmp239:
	.cfi_def_cfa_offset 16
	subq	$48, %rsp
.Ltmp240:
	.cfi_def_cfa_offset 64
.Ltmp241:
	.cfi_offset %rbx, -16
	movq	%rdi, 40(%rsp)
	movq	%rsi, 32(%rsp)
	movq	%rdx, 24(%rsp)
	movq	40(%rsp), %rbx
	.loc	17 136 0 prologue_end   # /usr/lib/gcc/x86_64-linux-gnu/4.8/../../../../include/c++/4.8/bits/stl_vector.h:136:0
.Ltmp242:
	movq	%rbx, %rdi
	movq	%rdx, %rsi
	callq	_ZNSt12_Vector_baseImSaImEE12_Vector_implC1ERKS0_
	.loc	17 136 0                # /usr/lib/gcc/x86_64-linux-gnu/4.8/../../../../include/c++/4.8/bits/stl_vector.h:136:0
.Ltmp243:
	movq	32(%rsp), %rsi
.Ltmp234:
	movq	%rbx, %rdi
	callq	_ZNSt12_Vector_baseImSaImEE17_M_create_storageEm
.Ltmp235:
# BB#1:                                 # %invoke.cont
	addq	$48, %rsp
	popq	%rbx
	ret
.LBB24_2:                               # %eh.resume
.Ltmp236:
	movq	%rax, 16(%rsp)
	movl	%edx, 12(%rsp)
	movq	%rbx, %rdi
	callq	_ZNSt12_Vector_baseImSaImEE12_Vector_implD1Ev
	movq	16(%rsp), %rdi
	callq	_Unwind_Resume
.Ltmp244:
.Ltmp245:
	.size	_ZNSt12_Vector_baseImSaImEEC2EmRKS0_, .Ltmp245-_ZNSt12_Vector_baseImSaImEEC2EmRKS0_
.Lfunc_end24:
	.cfi_endproc
.Leh_func_end24:
	.section	.gcc_except_table,"a",@progbits
	.align	4
GCC_except_table24:
.Lexception24:
	.byte	255                     # @LPStart Encoding = omit
	.byte	3                       # @TType Encoding = udata4
	.byte	41                      # @TType base offset
	.byte	3                       # Call site Encoding = udata4
	.byte	39                      # Call site table length
.Lset64 = .Leh_func_begin24-.Leh_func_begin24 # >> Call Site 1 <<
	.long	.Lset64
.Lset65 = .Ltmp234-.Leh_func_begin24    #   Call between .Leh_func_begin24 and .Ltmp234
	.long	.Lset65
	.long	0                       #     has no landing pad
	.byte	0                       #   On action: cleanup
.Lset66 = .Ltmp234-.Leh_func_begin24    # >> Call Site 2 <<
	.long	.Lset66
.Lset67 = .Ltmp235-.Ltmp234             #   Call between .Ltmp234 and .Ltmp235
	.long	.Lset67
.Lset68 = .Ltmp236-.Leh_func_begin24    #     jumps to .Ltmp236
	.long	.Lset68
	.byte	0                       #   On action: cleanup
.Lset69 = .Ltmp235-.Leh_func_begin24    # >> Call Site 3 <<
	.long	.Lset69
.Lset70 = .Leh_func_end24-.Ltmp235      #   Call between .Ltmp235 and .Leh_func_end24
	.long	.Lset70
	.long	0                       #     has no landing pad
	.byte	0                       #   On action: cleanup
	.align	4

	.section	.text._ZNSt6vectorImSaImEE18_M_fill_initializeEmRKm,"axG",@progbits,_ZNSt6vectorImSaImEE18_M_fill_initializeEmRKm,comdat
	.weak	_ZNSt6vectorImSaImEE18_M_fill_initializeEmRKm
	.align	16, 0x90
	.type	_ZNSt6vectorImSaImEE18_M_fill_initializeEmRKm,@function
_ZNSt6vectorImSaImEE18_M_fill_initializeEmRKm: # @_ZNSt6vectorImSaImEE18_M_fill_initializeEmRKm
	.cfi_startproc
.Lfunc_begin25:
	.loc	17 1213 0               # /usr/lib/gcc/x86_64-linux-gnu/4.8/../../../../include/c++/4.8/bits/stl_vector.h:1213:0
# BB#0:                                 # %entry
	pushq	%r15
.Ltmp251:
	.cfi_def_cfa_offset 16
	pushq	%r14
.Ltmp252:
	.cfi_def_cfa_offset 24
	pushq	%r12
.Ltmp253:
	.cfi_def_cfa_offset 32
	pushq	%rbx
.Ltmp254:
	.cfi_def_cfa_offset 40
	subq	$24, %rsp
.Ltmp255:
	.cfi_def_cfa_offset 64
.Ltmp256:
	.cfi_offset %rbx, -40
.Ltmp257:
	.cfi_offset %r12, -32
.Ltmp258:
	.cfi_offset %r14, -24
.Ltmp259:
	.cfi_offset %r15, -16
	movq	%rdx, %r14
	movq	%rdi, 16(%rsp)
	movq	%rsi, 8(%rsp)
	movq	%r14, (%rsp)
	movq	16(%rsp), %rbx
	.loc	17 1214 0 prologue_end  # /usr/lib/gcc/x86_64-linux-gnu/4.8/../../../../include/c++/4.8/bits/stl_vector.h:1214:0
.Ltmp260:
	movq	(%rbx), %r15
	movq	8(%rsp), %r12
	.loc	17 1215 0               # /usr/lib/gcc/x86_64-linux-gnu/4.8/../../../../include/c++/4.8/bits/stl_vector.h:1215:0
	movq	%rbx, %rdi
	callq	_ZNSt12_Vector_baseImSaImEE19_M_get_Tp_allocatorEv
	movq	%r15, %rdi
	movq	%r12, %rsi
	movq	%r14, %rdx
	movq	%rax, %rcx
	callq	_ZSt24__uninitialized_fill_n_aIPmmmmEvT_T0_RKT1_RSaIT2_E
	.loc	17 1216 0               # /usr/lib/gcc/x86_64-linux-gnu/4.8/../../../../include/c++/4.8/bits/stl_vector.h:1216:0
	movq	16(%rbx), %rax
	movq	%rax, 8(%rbx)
	.loc	17 1217 0               # /usr/lib/gcc/x86_64-linux-gnu/4.8/../../../../include/c++/4.8/bits/stl_vector.h:1217:0
	addq	$24, %rsp
	popq	%rbx
	popq	%r12
	popq	%r14
	popq	%r15
	ret
.Ltmp261:
.Ltmp262:
	.size	_ZNSt6vectorImSaImEE18_M_fill_initializeEmRKm, .Ltmp262-_ZNSt6vectorImSaImEE18_M_fill_initializeEmRKm
.Lfunc_end25:
	.cfi_endproc

	.section	.text._ZSt24__uninitialized_fill_n_aIPmmmmEvT_T0_RKT1_RSaIT2_E,"axG",@progbits,_ZSt24__uninitialized_fill_n_aIPmmmmEvT_T0_RKT1_RSaIT2_E,comdat
	.weak	_ZSt24__uninitialized_fill_n_aIPmmmmEvT_T0_RKT1_RSaIT2_E
	.align	16, 0x90
	.type	_ZSt24__uninitialized_fill_n_aIPmmmmEvT_T0_RKT1_RSaIT2_E,@function
_ZSt24__uninitialized_fill_n_aIPmmmmEvT_T0_RKT1_RSaIT2_E: # @_ZSt24__uninitialized_fill_n_aIPmmmmEvT_T0_RKT1_RSaIT2_E
	.cfi_startproc
.Lfunc_begin26:
	.loc	23 334 0                # /usr/lib/gcc/x86_64-linux-gnu/4.8/../../../../include/c++/4.8/bits/stl_uninitialized.h:334:0
# BB#0:                                 # %entry
	subq	$40, %rsp
.Ltmp264:
	.cfi_def_cfa_offset 48
	movq	%rdi, 32(%rsp)
	movq	%rsi, 24(%rsp)
	movq	%rdx, 16(%rsp)
	movq	%rcx, 8(%rsp)
	.loc	23 334 0 prologue_end   # /usr/lib/gcc/x86_64-linux-gnu/4.8/../../../../include/c++/4.8/bits/stl_uninitialized.h:334:0
.Ltmp265:
	movq	16(%rsp), %rdx
	movq	24(%rsp), %rsi
	movq	32(%rsp), %rdi
	callq	_ZSt20uninitialized_fill_nIPmmmEvT_T0_RKT1_
	addq	$40, %rsp
	ret
.Ltmp266:
.Ltmp267:
	.size	_ZSt24__uninitialized_fill_n_aIPmmmmEvT_T0_RKT1_RSaIT2_E, .Ltmp267-_ZSt24__uninitialized_fill_n_aIPmmmmEvT_T0_RKT1_RSaIT2_E
.Lfunc_end26:
	.cfi_endproc

	.section	.text._ZSt20uninitialized_fill_nIPmmmEvT_T0_RKT1_,"axG",@progbits,_ZSt20uninitialized_fill_nIPmmmEvT_T0_RKT1_,comdat
	.weak	_ZSt20uninitialized_fill_nIPmmmEvT_T0_RKT1_
	.align	16, 0x90
	.type	_ZSt20uninitialized_fill_nIPmmmEvT_T0_RKT1_,@function
_ZSt20uninitialized_fill_nIPmmmEvT_T0_RKT1_: # @_ZSt20uninitialized_fill_nIPmmmEvT_T0_RKT1_
	.cfi_startproc
.Lfunc_begin27:
	.loc	23 219 0                # /usr/lib/gcc/x86_64-linux-gnu/4.8/../../../../include/c++/4.8/bits/stl_uninitialized.h:219:0
# BB#0:                                 # %entry
	subq	$24, %rsp
.Ltmp269:
	.cfi_def_cfa_offset 32
	movq	%rdi, 16(%rsp)
	movq	%rsi, 8(%rsp)
	movq	%rdx, (%rsp)
	.loc	23 223 0 prologue_end   # /usr/lib/gcc/x86_64-linux-gnu/4.8/../../../../include/c++/4.8/bits/stl_uninitialized.h:223:0
.Ltmp270:
	movq	8(%rsp), %rsi
	movq	16(%rsp), %rdi
	callq	_ZNSt22__uninitialized_fill_nILb1EE15__uninit_fill_nIPmmmEEvT_T0_RKT1_
	.loc	23 225 0                # /usr/lib/gcc/x86_64-linux-gnu/4.8/../../../../include/c++/4.8/bits/stl_uninitialized.h:225:0
	addq	$24, %rsp
	ret
.Ltmp271:
.Ltmp272:
	.size	_ZSt20uninitialized_fill_nIPmmmEvT_T0_RKT1_, .Ltmp272-_ZSt20uninitialized_fill_nIPmmmEvT_T0_RKT1_
.Lfunc_end27:
	.cfi_endproc

	.section	.text._ZNSt22__uninitialized_fill_nILb1EE15__uninit_fill_nIPmmmEEvT_T0_RKT1_,"axG",@progbits,_ZNSt22__uninitialized_fill_nILb1EE15__uninit_fill_nIPmmmEEvT_T0_RKT1_,comdat
	.weak	_ZNSt22__uninitialized_fill_nILb1EE15__uninit_fill_nIPmmmEEvT_T0_RKT1_
	.align	16, 0x90
	.type	_ZNSt22__uninitialized_fill_nILb1EE15__uninit_fill_nIPmmmEEvT_T0_RKT1_,@function
_ZNSt22__uninitialized_fill_nILb1EE15__uninit_fill_nIPmmmEEvT_T0_RKT1_: # @_ZNSt22__uninitialized_fill_nILb1EE15__uninit_fill_nIPmmmEEvT_T0_RKT1_
	.cfi_startproc
.Lfunc_begin28:
	.loc	23 204 0                # /usr/lib/gcc/x86_64-linux-gnu/4.8/../../../../include/c++/4.8/bits/stl_uninitialized.h:204:0
# BB#0:                                 # %entry
	subq	$24, %rsp
.Ltmp274:
	.cfi_def_cfa_offset 32
	movq	%rdi, 16(%rsp)
	movq	%rsi, 8(%rsp)
	movq	%rdx, (%rsp)
	.loc	23 204 0 prologue_end   # /usr/lib/gcc/x86_64-linux-gnu/4.8/../../../../include/c++/4.8/bits/stl_uninitialized.h:204:0
.Ltmp275:
	movq	8(%rsp), %rsi
	movq	16(%rsp), %rdi
	callq	_ZSt6fill_nIPmmmET_S1_T0_RKT1_
	addq	$24, %rsp
	ret
.Ltmp276:
.Ltmp277:
	.size	_ZNSt22__uninitialized_fill_nILb1EE15__uninit_fill_nIPmmmEEvT_T0_RKT1_, .Ltmp277-_ZNSt22__uninitialized_fill_nILb1EE15__uninit_fill_nIPmmmEEvT_T0_RKT1_
.Lfunc_end28:
	.cfi_endproc

	.section	.text._ZSt6fill_nIPmmmET_S1_T0_RKT1_,"axG",@progbits,_ZSt6fill_nIPmmmET_S1_T0_RKT1_,comdat
	.weak	_ZSt6fill_nIPmmmET_S1_T0_RKT1_
	.align	16, 0x90
	.type	_ZSt6fill_nIPmmmET_S1_T0_RKT1_,@function
_ZSt6fill_nIPmmmET_S1_T0_RKT1_:         # @_ZSt6fill_nIPmmmET_S1_T0_RKT1_
	.cfi_startproc
.Lfunc_begin29:
	.loc	24 782 0                # /usr/lib/gcc/x86_64-linux-gnu/4.8/../../../../include/c++/4.8/bits/stl_algobase.h:782:0
# BB#0:                                 # %entry
	subq	$24, %rsp
.Ltmp279:
	.cfi_def_cfa_offset 32
	movq	%rdi, 16(%rsp)
	movq	%rsi, 8(%rsp)
	movq	%rdx, (%rsp)
	.loc	24 786 0 prologue_end   # /usr/lib/gcc/x86_64-linux-gnu/4.8/../../../../include/c++/4.8/bits/stl_algobase.h:786:0
.Ltmp280:
	movq	16(%rsp), %rdi
	callq	_ZSt12__niter_baseIPmENSt11_Niter_baseIT_E13iterator_typeES2_
	movq	(%rsp), %rdx
	movq	8(%rsp), %rsi
	movq	%rax, %rdi
	callq	_ZSt10__fill_n_aIPmmmEN9__gnu_cxx11__enable_ifIXsr11__is_scalarIT1_EE7__valueET_E6__typeES4_T0_RKS3_
	addq	$24, %rsp
	ret
.Ltmp281:
.Ltmp282:
	.size	_ZSt6fill_nIPmmmET_S1_T0_RKT1_, .Ltmp282-_ZSt6fill_nIPmmmET_S1_T0_RKT1_
.Lfunc_end29:
	.cfi_endproc

	.section	.text._ZSt10__fill_n_aIPmmmEN9__gnu_cxx11__enable_ifIXsr11__is_scalarIT1_EE7__valueET_E6__typeES4_T0_RKS3_,"axG",@progbits,_ZSt10__fill_n_aIPmmmEN9__gnu_cxx11__enable_ifIXsr11__is_scalarIT1_EE7__valueET_E6__typeES4_T0_RKS3_,comdat
	.weak	_ZSt10__fill_n_aIPmmmEN9__gnu_cxx11__enable_ifIXsr11__is_scalarIT1_EE7__valueET_E6__typeES4_T0_RKS3_
	.align	16, 0x90
	.type	_ZSt10__fill_n_aIPmmmEN9__gnu_cxx11__enable_ifIXsr11__is_scalarIT1_EE7__valueET_E6__typeES4_T0_RKS3_,@function
_ZSt10__fill_n_aIPmmmEN9__gnu_cxx11__enable_ifIXsr11__is_scalarIT1_EE7__valueET_E6__typeES4_T0_RKS3_: # @_ZSt10__fill_n_aIPmmmEN9__gnu_cxx11__enable_ifIXsr11__is_scalarIT1_EE7__valueET_E6__typeES4_T0_RKS3_
	.cfi_startproc
.Lfunc_begin30:
	.loc	24 747 0                # /usr/lib/gcc/x86_64-linux-gnu/4.8/../../../../include/c++/4.8/bits/stl_algobase.h:747:0
# BB#0:                                 # %entry
	movq	%rdi, -8(%rsp)
	movq	%rsi, -16(%rsp)
	movq	%rdx, -24(%rsp)
	.loc	24 748 0 prologue_end   # /usr/lib/gcc/x86_64-linux-gnu/4.8/../../../../include/c++/4.8/bits/stl_algobase.h:748:0
.Ltmp283:
	movq	(%rdx), %rax
	movq	%rax, -32(%rsp)
	.loc	24 749 0                # /usr/lib/gcc/x86_64-linux-gnu/4.8/../../../../include/c++/4.8/bits/stl_algobase.h:749:0
.Ltmp284:
	movq	-16(%rsp), %rax
	movq	%rax, -40(%rsp)
	jmp	.LBB30_1
	.align	16, 0x90
.LBB30_2:                               # %for.body
                                        #   in Loop: Header=BB30_1 Depth=1
	.loc	24 751 0                # /usr/lib/gcc/x86_64-linux-gnu/4.8/../../../../include/c++/4.8/bits/stl_algobase.h:751:0
	movq	-8(%rsp), %rax
	movq	-32(%rsp), %rcx
	movq	%rcx, (%rax)
	.loc	24 750 0                # /usr/lib/gcc/x86_64-linux-gnu/4.8/../../../../include/c++/4.8/bits/stl_algobase.h:750:0
	decq	-40(%rsp)
	addq	$8, -8(%rsp)
.LBB30_1:                               # %for.cond
                                        # =>This Inner Loop Header: Depth=1
	.loc	24 749 0                # /usr/lib/gcc/x86_64-linux-gnu/4.8/../../../../include/c++/4.8/bits/stl_algobase.h:749:0
	cmpq	$0, -40(%rsp)
	jne	.LBB30_2
.Ltmp285:
# BB#3:                                 # %for.end
	.loc	24 752 0                # /usr/lib/gcc/x86_64-linux-gnu/4.8/../../../../include/c++/4.8/bits/stl_algobase.h:752:0
	movq	-8(%rsp), %rax
	ret
.Ltmp286:
.Ltmp287:
	.size	_ZSt10__fill_n_aIPmmmEN9__gnu_cxx11__enable_ifIXsr11__is_scalarIT1_EE7__valueET_E6__typeES4_T0_RKS3_, .Ltmp287-_ZSt10__fill_n_aIPmmmEN9__gnu_cxx11__enable_ifIXsr11__is_scalarIT1_EE7__valueET_E6__typeES4_T0_RKS3_
.Lfunc_end30:
	.cfi_endproc

	.section	.text._ZSt12__niter_baseIPmENSt11_Niter_baseIT_E13iterator_typeES2_,"axG",@progbits,_ZSt12__niter_baseIPmENSt11_Niter_baseIT_E13iterator_typeES2_,comdat
	.weak	_ZSt12__niter_baseIPmENSt11_Niter_baseIT_E13iterator_typeES2_
	.align	16, 0x90
	.type	_ZSt12__niter_baseIPmENSt11_Niter_baseIT_E13iterator_typeES2_,@function
_ZSt12__niter_baseIPmENSt11_Niter_baseIT_E13iterator_typeES2_: # @_ZSt12__niter_baseIPmENSt11_Niter_baseIT_E13iterator_typeES2_
	.cfi_startproc
.Lfunc_begin31:
	.loc	24 278 0                # /usr/lib/gcc/x86_64-linux-gnu/4.8/../../../../include/c++/4.8/bits/stl_algobase.h:278:0
# BB#0:                                 # %entry
	pushq	%rax
.Ltmp289:
	.cfi_def_cfa_offset 16
	movq	%rdi, (%rsp)
	.loc	24 278 0 prologue_end   # /usr/lib/gcc/x86_64-linux-gnu/4.8/../../../../include/c++/4.8/bits/stl_algobase.h:278:0
.Ltmp290:
	callq	_ZNSt10_Iter_baseIPmLb0EE7_S_baseES0_
	popq	%rdx
	ret
.Ltmp291:
.Ltmp292:
	.size	_ZSt12__niter_baseIPmENSt11_Niter_baseIT_E13iterator_typeES2_, .Ltmp292-_ZSt12__niter_baseIPmENSt11_Niter_baseIT_E13iterator_typeES2_
.Lfunc_end31:
	.cfi_endproc

	.section	.text._ZNSt10_Iter_baseIPmLb0EE7_S_baseES0_,"axG",@progbits,_ZNSt10_Iter_baseIPmLb0EE7_S_baseES0_,comdat
	.weak	_ZNSt10_Iter_baseIPmLb0EE7_S_baseES0_
	.align	16, 0x90
	.type	_ZNSt10_Iter_baseIPmLb0EE7_S_baseES0_,@function
_ZNSt10_Iter_baseIPmLb0EE7_S_baseES0_:  # @_ZNSt10_Iter_baseIPmLb0EE7_S_baseES0_
	.cfi_startproc
.Lfunc_begin32:
	.loc	25 212 0                # /usr/lib/gcc/x86_64-linux-gnu/4.8/../../../../include/c++/4.8/bits/stl_iterator_base_types.h:212:0
# BB#0:                                 # %entry
	movq	%rdi, -8(%rsp)
	.loc	25 212 0 prologue_end   # /usr/lib/gcc/x86_64-linux-gnu/4.8/../../../../include/c++/4.8/bits/stl_iterator_base_types.h:212:0
.Ltmp293:
	movq	%rdi, %rax
	ret
.Ltmp294:
.Ltmp295:
	.size	_ZNSt10_Iter_baseIPmLb0EE7_S_baseES0_, .Ltmp295-_ZNSt10_Iter_baseIPmLb0EE7_S_baseES0_
.Lfunc_end32:
	.cfi_endproc

	.section	.text._ZNSt12_Vector_baseImSaImEE12_Vector_implC1ERKS0_,"axG",@progbits,_ZNSt12_Vector_baseImSaImEE12_Vector_implC1ERKS0_,comdat
	.weak	_ZNSt12_Vector_baseImSaImEE12_Vector_implC1ERKS0_
	.align	16, 0x90
	.type	_ZNSt12_Vector_baseImSaImEE12_Vector_implC1ERKS0_,@function
_ZNSt12_Vector_baseImSaImEE12_Vector_implC1ERKS0_: # @_ZNSt12_Vector_baseImSaImEE12_Vector_implC1ERKS0_
	.cfi_startproc
.Lfunc_begin33:
	.loc	17 92 0                 # /usr/lib/gcc/x86_64-linux-gnu/4.8/../../../../include/c++/4.8/bits/stl_vector.h:92:0
# BB#0:                                 # %entry
	subq	$24, %rsp
.Ltmp297:
	.cfi_def_cfa_offset 32
	movq	%rdi, 16(%rsp)
	movq	%rsi, 8(%rsp)
	movq	16(%rsp), %rdi
	.loc	17 92 0 prologue_end    # /usr/lib/gcc/x86_64-linux-gnu/4.8/../../../../include/c++/4.8/bits/stl_vector.h:92:0
.Ltmp298:
	callq	_ZNSt12_Vector_baseImSaImEE12_Vector_implC2ERKS0_
	addq	$24, %rsp
	ret
.Ltmp299:
.Ltmp300:
	.size	_ZNSt12_Vector_baseImSaImEE12_Vector_implC1ERKS0_, .Ltmp300-_ZNSt12_Vector_baseImSaImEE12_Vector_implC1ERKS0_
.Lfunc_end33:
	.cfi_endproc

	.section	.text._ZNSt12_Vector_baseImSaImEE17_M_create_storageEm,"axG",@progbits,_ZNSt12_Vector_baseImSaImEE17_M_create_storageEm,comdat
	.weak	_ZNSt12_Vector_baseImSaImEE17_M_create_storageEm
	.align	16, 0x90
	.type	_ZNSt12_Vector_baseImSaImEE17_M_create_storageEm,@function
_ZNSt12_Vector_baseImSaImEE17_M_create_storageEm: # @_ZNSt12_Vector_baseImSaImEE17_M_create_storageEm
	.cfi_startproc
.Lfunc_begin34:
	.loc	17 180 0                # /usr/lib/gcc/x86_64-linux-gnu/4.8/../../../../include/c++/4.8/bits/stl_vector.h:180:0
# BB#0:                                 # %entry
	pushq	%rbx
.Ltmp303:
	.cfi_def_cfa_offset 16
	subq	$16, %rsp
.Ltmp304:
	.cfi_def_cfa_offset 32
.Ltmp305:
	.cfi_offset %rbx, -16
	movq	%rdi, 8(%rsp)
	movq	%rsi, (%rsp)
	movq	8(%rsp), %rbx
	.loc	17 181 0 prologue_end   # /usr/lib/gcc/x86_64-linux-gnu/4.8/../../../../include/c++/4.8/bits/stl_vector.h:181:0
.Ltmp306:
	movq	%rbx, %rdi
	callq	_ZNSt12_Vector_baseImSaImEE11_M_allocateEm
	movq	%rax, (%rbx)
	.loc	17 182 0                # /usr/lib/gcc/x86_64-linux-gnu/4.8/../../../../include/c++/4.8/bits/stl_vector.h:182:0
	movq	%rax, 8(%rbx)
	.loc	17 183 0                # /usr/lib/gcc/x86_64-linux-gnu/4.8/../../../../include/c++/4.8/bits/stl_vector.h:183:0
	movq	(%rsp), %rax
	shlq	$3, %rax
	addq	(%rbx), %rax
	movq	%rax, 16(%rbx)
	.loc	17 184 0                # /usr/lib/gcc/x86_64-linux-gnu/4.8/../../../../include/c++/4.8/bits/stl_vector.h:184:0
	addq	$16, %rsp
	popq	%rbx
	ret
.Ltmp307:
.Ltmp308:
	.size	_ZNSt12_Vector_baseImSaImEE17_M_create_storageEm, .Ltmp308-_ZNSt12_Vector_baseImSaImEE17_M_create_storageEm
.Lfunc_end34:
	.cfi_endproc

	.section	.text._ZNSt12_Vector_baseImSaImEE11_M_allocateEm,"axG",@progbits,_ZNSt12_Vector_baseImSaImEE11_M_allocateEm,comdat
	.weak	_ZNSt12_Vector_baseImSaImEE11_M_allocateEm
	.align	16, 0x90
	.type	_ZNSt12_Vector_baseImSaImEE11_M_allocateEm,@function
_ZNSt12_Vector_baseImSaImEE11_M_allocateEm: # @_ZNSt12_Vector_baseImSaImEE11_M_allocateEm
	.cfi_startproc
.Lfunc_begin35:
	.loc	17 168 0                # /usr/lib/gcc/x86_64-linux-gnu/4.8/../../../../include/c++/4.8/bits/stl_vector.h:168:0
# BB#0:                                 # %entry
	subq	$24, %rsp
.Ltmp310:
	.cfi_def_cfa_offset 32
	movq	%rdi, 16(%rsp)
	movq	%rsi, 8(%rsp)
	testq	%rsi, %rsi
	je	.LBB35_1
# BB#2:                                 # %cond.true
	movq	16(%rsp), %rdi
	.loc	17 168 0 prologue_end   # /usr/lib/gcc/x86_64-linux-gnu/4.8/../../../../include/c++/4.8/bits/stl_vector.h:168:0
.Ltmp311:
	movq	8(%rsp), %rsi
	xorl	%edx, %edx
	callq	_ZN9__gnu_cxx13new_allocatorImE8allocateEmPKv
	addq	$24, %rsp
	ret
.LBB35_1:
	xorl	%eax, %eax
	addq	$24, %rsp
	ret
.Ltmp312:
.Ltmp313:
	.size	_ZNSt12_Vector_baseImSaImEE11_M_allocateEm, .Ltmp313-_ZNSt12_Vector_baseImSaImEE11_M_allocateEm
.Lfunc_end35:
	.cfi_endproc

	.section	.text._ZN9__gnu_cxx13new_allocatorImE8allocateEmPKv,"axG",@progbits,_ZN9__gnu_cxx13new_allocatorImE8allocateEmPKv,comdat
	.weak	_ZN9__gnu_cxx13new_allocatorImE8allocateEmPKv
	.align	16, 0x90
	.type	_ZN9__gnu_cxx13new_allocatorImE8allocateEmPKv,@function
_ZN9__gnu_cxx13new_allocatorImE8allocateEmPKv: # @_ZN9__gnu_cxx13new_allocatorImE8allocateEmPKv
	.cfi_startproc
.Lfunc_begin36:
	.loc	9 100 0                 # /usr/lib/gcc/x86_64-linux-gnu/4.8/../../../../include/c++/4.8/ext/new_allocator.h:100:0
# BB#0:                                 # %entry
	pushq	%rbx
.Ltmp316:
	.cfi_def_cfa_offset 16
	subq	$32, %rsp
.Ltmp317:
	.cfi_def_cfa_offset 48
.Ltmp318:
	.cfi_offset %rbx, -16
	movq	%rdi, 24(%rsp)
	movq	%rsi, 16(%rsp)
	movq	%rdx, 8(%rsp)
	.loc	9 101 0 prologue_end    # /usr/lib/gcc/x86_64-linux-gnu/4.8/../../../../include/c++/4.8/ext/new_allocator.h:101:0
.Ltmp319:
	movq	16(%rsp), %rbx
	movq	24(%rsp), %rdi
	callq	_ZNK9__gnu_cxx13new_allocatorImE8max_sizeEv
	cmpq	%rax, %rbx
	ja	.LBB36_2
# BB#1:                                 # %if.end
	.loc	9 104 0                 # /usr/lib/gcc/x86_64-linux-gnu/4.8/../../../../include/c++/4.8/ext/new_allocator.h:104:0
	movq	16(%rsp), %rdi
	shlq	$3, %rdi
	callq	_Znwm
	addq	$32, %rsp
	popq	%rbx
	ret
.LBB36_2:                               # %if.then
	.loc	9 102 0                 # /usr/lib/gcc/x86_64-linux-gnu/4.8/../../../../include/c++/4.8/ext/new_allocator.h:102:0
	callq	_ZSt17__throw_bad_allocv
.Ltmp320:
.Ltmp321:
	.size	_ZN9__gnu_cxx13new_allocatorImE8allocateEmPKv, .Ltmp321-_ZN9__gnu_cxx13new_allocatorImE8allocateEmPKv
.Lfunc_end36:
	.cfi_endproc

	.section	.text._ZNK9__gnu_cxx13new_allocatorImE8max_sizeEv,"axG",@progbits,_ZNK9__gnu_cxx13new_allocatorImE8max_sizeEv,comdat
	.weak	_ZNK9__gnu_cxx13new_allocatorImE8max_sizeEv
	.align	16, 0x90
	.type	_ZNK9__gnu_cxx13new_allocatorImE8max_sizeEv,@function
_ZNK9__gnu_cxx13new_allocatorImE8max_sizeEv: # @_ZNK9__gnu_cxx13new_allocatorImE8max_sizeEv
	.cfi_startproc
.Lfunc_begin37:
	.loc	9 114 0                 # /usr/lib/gcc/x86_64-linux-gnu/4.8/../../../../include/c++/4.8/ext/new_allocator.h:114:0
# BB#0:                                 # %entry
	movq	%rdi, -8(%rsp)
	movabsq	$2305843009213693951, %rax # imm = 0x1FFFFFFFFFFFFFFF
	.loc	9 114 0 prologue_end    # /usr/lib/gcc/x86_64-linux-gnu/4.8/../../../../include/c++/4.8/ext/new_allocator.h:114:0
.Ltmp322:
	ret
.Ltmp323:
.Ltmp324:
	.size	_ZNK9__gnu_cxx13new_allocatorImE8max_sizeEv, .Ltmp324-_ZNK9__gnu_cxx13new_allocatorImE8max_sizeEv
.Lfunc_end37:
	.cfi_endproc

	.section	.text._ZNSt12_Vector_baseImSaImEE12_Vector_implC2ERKS0_,"axG",@progbits,_ZNSt12_Vector_baseImSaImEE12_Vector_implC2ERKS0_,comdat
	.weak	_ZNSt12_Vector_baseImSaImEE12_Vector_implC2ERKS0_
	.align	16, 0x90
	.type	_ZNSt12_Vector_baseImSaImEE12_Vector_implC2ERKS0_,@function
_ZNSt12_Vector_baseImSaImEE12_Vector_implC2ERKS0_: # @_ZNSt12_Vector_baseImSaImEE12_Vector_implC2ERKS0_
	.cfi_startproc
.Lfunc_begin38:
	.loc	17 92 0                 # /usr/lib/gcc/x86_64-linux-gnu/4.8/../../../../include/c++/4.8/bits/stl_vector.h:92:0
# BB#0:                                 # %entry
	pushq	%rbx
.Ltmp327:
	.cfi_def_cfa_offset 16
	subq	$16, %rsp
.Ltmp328:
	.cfi_def_cfa_offset 32
.Ltmp329:
	.cfi_offset %rbx, -16
	movq	%rdi, 8(%rsp)
	movq	%rsi, (%rsp)
	movq	8(%rsp), %rbx
	.loc	17 92 0 prologue_end    # /usr/lib/gcc/x86_64-linux-gnu/4.8/../../../../include/c++/4.8/bits/stl_vector.h:92:0
.Ltmp330:
	movq	%rbx, %rdi
	callq	_ZNSaImEC2ERKS_
	vxorps	%xmm0, %xmm0, %xmm0
	vmovups	%xmm0, (%rbx)
	movq	$0, 16(%rbx)
	.loc	17 92 0                 # /usr/lib/gcc/x86_64-linux-gnu/4.8/../../../../include/c++/4.8/bits/stl_vector.h:92:0
.Ltmp331:
	addq	$16, %rsp
	popq	%rbx
	ret
.Ltmp332:
.Ltmp333:
	.size	_ZNSt12_Vector_baseImSaImEE12_Vector_implC2ERKS0_, .Ltmp333-_ZNSt12_Vector_baseImSaImEE12_Vector_implC2ERKS0_
.Lfunc_end38:
	.cfi_endproc

	.section	.text._ZNSaImEC2ERKS_,"axG",@progbits,_ZNSaImEC2ERKS_,comdat
	.weak	_ZNSaImEC2ERKS_
	.align	16, 0x90
	.type	_ZNSaImEC2ERKS_,@function
_ZNSaImEC2ERKS_:                        # @_ZNSaImEC2ERKS_
	.cfi_startproc
.Lfunc_begin39:
	.loc	10 116 0                # /usr/lib/gcc/x86_64-linux-gnu/4.8/../../../../include/c++/4.8/bits/allocator.h:116:0
# BB#0:                                 # %entry
	subq	$24, %rsp
.Ltmp335:
	.cfi_def_cfa_offset 32
	movq	%rdi, 16(%rsp)
	movq	%rsi, 8(%rsp)
	movq	16(%rsp), %rdi
	.loc	10 116 0 prologue_end   # /usr/lib/gcc/x86_64-linux-gnu/4.8/../../../../include/c++/4.8/bits/allocator.h:116:0
.Ltmp336:
	callq	_ZN9__gnu_cxx13new_allocatorImEC2ERKS1_
	.loc	10 116 0                # /usr/lib/gcc/x86_64-linux-gnu/4.8/../../../../include/c++/4.8/bits/allocator.h:116:0
.Ltmp337:
	addq	$24, %rsp
	ret
.Ltmp338:
.Ltmp339:
	.size	_ZNSaImEC2ERKS_, .Ltmp339-_ZNSaImEC2ERKS_
.Lfunc_end39:
	.cfi_endproc

	.section	.text._ZN9__gnu_cxx13new_allocatorImEC2ERKS1_,"axG",@progbits,_ZN9__gnu_cxx13new_allocatorImEC2ERKS1_,comdat
	.weak	_ZN9__gnu_cxx13new_allocatorImEC2ERKS1_
	.align	16, 0x90
	.type	_ZN9__gnu_cxx13new_allocatorImEC2ERKS1_,@function
_ZN9__gnu_cxx13new_allocatorImEC2ERKS1_: # @_ZN9__gnu_cxx13new_allocatorImEC2ERKS1_
	.cfi_startproc
.Lfunc_begin40:
	.loc	9 81 0                  # /usr/lib/gcc/x86_64-linux-gnu/4.8/../../../../include/c++/4.8/ext/new_allocator.h:81:0
# BB#0:                                 # %entry
	movq	%rdi, -8(%rsp)
	movq	%rsi, -16(%rsp)
	.loc	9 81 0 prologue_end     # /usr/lib/gcc/x86_64-linux-gnu/4.8/../../../../include/c++/4.8/ext/new_allocator.h:81:0
.Ltmp340:
	ret
.Ltmp341:
.Ltmp342:
	.size	_ZN9__gnu_cxx13new_allocatorImEC2ERKS1_, .Ltmp342-_ZN9__gnu_cxx13new_allocatorImEC2ERKS1_
.Lfunc_end40:
	.cfi_endproc

	.section	.text._ZNSaImEC2Ev,"axG",@progbits,_ZNSaImEC2Ev,comdat
	.weak	_ZNSaImEC2Ev
	.align	16, 0x90
	.type	_ZNSaImEC2Ev,@function
_ZNSaImEC2Ev:                           # @_ZNSaImEC2Ev
	.cfi_startproc
.Lfunc_begin41:
	.loc	10 113 0                # /usr/lib/gcc/x86_64-linux-gnu/4.8/../../../../include/c++/4.8/bits/allocator.h:113:0
# BB#0:                                 # %entry
	pushq	%rax
.Ltmp344:
	.cfi_def_cfa_offset 16
	movq	%rdi, (%rsp)
	.loc	10 113 0 prologue_end   # /usr/lib/gcc/x86_64-linux-gnu/4.8/../../../../include/c++/4.8/bits/allocator.h:113:0
.Ltmp345:
	callq	_ZN9__gnu_cxx13new_allocatorImEC2Ev
	.loc	10 113 0                # /usr/lib/gcc/x86_64-linux-gnu/4.8/../../../../include/c++/4.8/bits/allocator.h:113:0
.Ltmp346:
	popq	%rax
	ret
.Ltmp347:
.Ltmp348:
	.size	_ZNSaImEC2Ev, .Ltmp348-_ZNSaImEC2Ev
.Lfunc_end41:
	.cfi_endproc

	.section	.text._ZN9__gnu_cxx13new_allocatorImEC2Ev,"axG",@progbits,_ZN9__gnu_cxx13new_allocatorImEC2Ev,comdat
	.weak	_ZN9__gnu_cxx13new_allocatorImEC2Ev
	.align	16, 0x90
	.type	_ZN9__gnu_cxx13new_allocatorImEC2Ev,@function
_ZN9__gnu_cxx13new_allocatorImEC2Ev:    # @_ZN9__gnu_cxx13new_allocatorImEC2Ev
	.cfi_startproc
.Lfunc_begin42:
	.loc	9 79 0                  # /usr/lib/gcc/x86_64-linux-gnu/4.8/../../../../include/c++/4.8/ext/new_allocator.h:79:0
# BB#0:                                 # %entry
	movq	%rdi, -8(%rsp)
	.loc	9 79 0 prologue_end     # /usr/lib/gcc/x86_64-linux-gnu/4.8/../../../../include/c++/4.8/ext/new_allocator.h:79:0
.Ltmp349:
	ret
.Ltmp350:
.Ltmp351:
	.size	_ZN9__gnu_cxx13new_allocatorImEC2Ev, .Ltmp351-_ZN9__gnu_cxx13new_allocatorImEC2Ev
.Lfunc_end42:
	.cfi_endproc

	.section	.text._ZN7netlistD2Ev,"axG",@progbits,_ZN7netlistD2Ev,comdat
	.weak	_ZN7netlistD2Ev
	.align	16, 0x90
	.type	_ZN7netlistD2Ev,@function
_ZN7netlistD2Ev:                        # @_ZN7netlistD2Ev
	.cfi_startproc
	.cfi_personality 3, __gxx_personality_v0
.Leh_func_begin43:
	.cfi_lsda 3, .Lexception43
.Lfunc_begin43:
	.loc	27 45 0                 # src/netlist.h:45:0
# BB#0:                                 # %entry
	pushq	%rbx
.Ltmp365:
	.cfi_def_cfa_offset 16
	subq	$32, %rsp
.Ltmp366:
	.cfi_def_cfa_offset 48
.Ltmp367:
	.cfi_offset %rbx, -16
	movq	%rdi, %rbx
	movq	%rbx, 24(%rsp)
	.loc	27 45 0 prologue_end    # src/netlist.h:45:0
.Ltmp368:
.Ltmp352:
	addq	$64, %rdi
	callq	_ZNSt3mapISsP12netlist_elemSt4lessISsESaISt4pairIKSsS1_EEED1Ev
.Ltmp353:
# BB#1:                                 # %invoke.cont
.Ltmp357:
	leaq	40(%rbx), %rdi
	callq	_ZNSt6vectorIS_I10location_tSaIS0_EESaIS2_EED1Ev
.Ltmp358:
# BB#2:                                 # %invoke.cont3
	leaq	16(%rbx), %rdi
	callq	_ZNSt6vectorI12netlist_elemSaIS0_EED1Ev
	addq	$32, %rsp
	popq	%rbx
	ret
.LBB43_3:                               # %lpad
.Ltmp354:
	movq	%rax, 16(%rsp)
	movl	%edx, 12(%rsp)
.Ltmp355:
	leaq	40(%rbx), %rdi
	callq	_ZNSt6vectorIS_I10location_tSaIS0_EESaIS2_EED1Ev
.Ltmp356:
	jmp	.LBB43_5
.LBB43_4:                               # %lpad2
.Ltmp359:
	movq	%rax, 16(%rsp)
	movl	%edx, 12(%rsp)
.LBB43_5:                               # %ehcleanup
.Ltmp360:
	leaq	16(%rbx), %rdi
	callq	_ZNSt6vectorI12netlist_elemSaIS0_EED1Ev
.Ltmp361:
# BB#6:                                 # %eh.resume
	movq	16(%rsp), %rdi
	callq	_Unwind_Resume
.LBB43_7:                               # %terminate.lpad
.Ltmp362:
	callq	_ZSt9terminatev
.Ltmp369:
.Ltmp370:
	.size	_ZN7netlistD2Ev, .Ltmp370-_ZN7netlistD2Ev
.Lfunc_end43:
	.cfi_endproc
.Leh_func_end43:
	.section	.gcc_except_table,"a",@progbits
	.align	4
GCC_except_table43:
.Lexception43:
	.byte	255                     # @LPStart Encoding = omit
	.byte	3                       # @TType Encoding = udata4
	.byte	73                      # @TType base offset
	.byte	3                       # Call site Encoding = udata4
	.byte	65                      # Call site table length
.Lset71 = .Ltmp352-.Leh_func_begin43    # >> Call Site 1 <<
	.long	.Lset71
.Lset72 = .Ltmp353-.Ltmp352             #   Call between .Ltmp352 and .Ltmp353
	.long	.Lset72
.Lset73 = .Ltmp354-.Leh_func_begin43    #     jumps to .Ltmp354
	.long	.Lset73
	.byte	0                       #   On action: cleanup
.Lset74 = .Ltmp357-.Leh_func_begin43    # >> Call Site 2 <<
	.long	.Lset74
.Lset75 = .Ltmp358-.Ltmp357             #   Call between .Ltmp357 and .Ltmp358
	.long	.Lset75
.Lset76 = .Ltmp359-.Leh_func_begin43    #     jumps to .Ltmp359
	.long	.Lset76
	.byte	0                       #   On action: cleanup
.Lset77 = .Ltmp358-.Leh_func_begin43    # >> Call Site 3 <<
	.long	.Lset77
.Lset78 = .Ltmp355-.Ltmp358             #   Call between .Ltmp358 and .Ltmp355
	.long	.Lset78
	.long	0                       #     has no landing pad
	.byte	0                       #   On action: cleanup
.Lset79 = .Ltmp355-.Leh_func_begin43    # >> Call Site 4 <<
	.long	.Lset79
.Lset80 = .Ltmp361-.Ltmp355             #   Call between .Ltmp355 and .Ltmp361
	.long	.Lset80
.Lset81 = .Ltmp362-.Leh_func_begin43    #     jumps to .Ltmp362
	.long	.Lset81
	.byte	1                       #   On action: 1
.Lset82 = .Ltmp361-.Leh_func_begin43    # >> Call Site 5 <<
	.long	.Lset82
.Lset83 = .Leh_func_end43-.Ltmp361      #   Call between .Ltmp361 and .Leh_func_end43
	.long	.Lset83
	.long	0                       #     has no landing pad
	.byte	0                       #   On action: cleanup
	.byte	1                       # >> Action Record 1 <<
                                        #   Catch TypeInfo 1
	.byte	0                       #   No further actions
                                        # >> Catch TypeInfos <<
	.long	0                       # TypeInfo 1
	.align	4

	.section	.text._ZNSt3mapISsP12netlist_elemSt4lessISsESaISt4pairIKSsS1_EEED1Ev,"axG",@progbits,_ZNSt3mapISsP12netlist_elemSt4lessISsESaISt4pairIKSsS1_EEED1Ev,comdat
	.weak	_ZNSt3mapISsP12netlist_elemSt4lessISsESaISt4pairIKSsS1_EEED1Ev
	.align	16, 0x90
	.type	_ZNSt3mapISsP12netlist_elemSt4lessISsESaISt4pairIKSsS1_EEED1Ev,@function
_ZNSt3mapISsP12netlist_elemSt4lessISsESaISt4pairIKSsS1_EEED1Ev: # @_ZNSt3mapISsP12netlist_elemSt4lessISsESaISt4pairIKSsS1_EEED1Ev
	.cfi_startproc
.Lfunc_begin44:
	.loc	31 96 0                 # /usr/lib/gcc/x86_64-linux-gnu/4.8/../../../../include/c++/4.8/bits/stl_map.h:96:0
# BB#0:                                 # %entry
	pushq	%rax
.Ltmp372:
	.cfi_def_cfa_offset 16
	movq	%rdi, (%rsp)
	.loc	31 96 0 prologue_end    # /usr/lib/gcc/x86_64-linux-gnu/4.8/../../../../include/c++/4.8/bits/stl_map.h:96:0
.Ltmp373:
	callq	_ZNSt3mapISsP12netlist_elemSt4lessISsESaISt4pairIKSsS1_EEED2Ev
	popq	%rax
	ret
.Ltmp374:
.Ltmp375:
	.size	_ZNSt3mapISsP12netlist_elemSt4lessISsESaISt4pairIKSsS1_EEED1Ev, .Ltmp375-_ZNSt3mapISsP12netlist_elemSt4lessISsESaISt4pairIKSsS1_EEED1Ev
.Lfunc_end44:
	.cfi_endproc

	.section	.text._ZNSt6vectorIS_I10location_tSaIS0_EESaIS2_EED1Ev,"axG",@progbits,_ZNSt6vectorIS_I10location_tSaIS0_EESaIS2_EED1Ev,comdat
	.weak	_ZNSt6vectorIS_I10location_tSaIS0_EESaIS2_EED1Ev
	.align	16, 0x90
	.type	_ZNSt6vectorIS_I10location_tSaIS0_EESaIS2_EED1Ev,@function
_ZNSt6vectorIS_I10location_tSaIS0_EESaIS2_EED1Ev: # @_ZNSt6vectorIS_I10location_tSaIS0_EESaIS2_EED1Ev
	.cfi_startproc
.Lfunc_begin45:
	.loc	17 415 0                # /usr/lib/gcc/x86_64-linux-gnu/4.8/../../../../include/c++/4.8/bits/stl_vector.h:415:0
# BB#0:                                 # %entry
	pushq	%rax
.Ltmp377:
	.cfi_def_cfa_offset 16
	movq	%rdi, (%rsp)
	.loc	17 415 0 prologue_end   # /usr/lib/gcc/x86_64-linux-gnu/4.8/../../../../include/c++/4.8/bits/stl_vector.h:415:0
.Ltmp378:
	callq	_ZNSt6vectorIS_I10location_tSaIS0_EESaIS2_EED2Ev
	.loc	17 416 0                # /usr/lib/gcc/x86_64-linux-gnu/4.8/../../../../include/c++/4.8/bits/stl_vector.h:416:0
	popq	%rax
	ret
.Ltmp379:
.Ltmp380:
	.size	_ZNSt6vectorIS_I10location_tSaIS0_EESaIS2_EED1Ev, .Ltmp380-_ZNSt6vectorIS_I10location_tSaIS0_EESaIS2_EED1Ev
.Lfunc_end45:
	.cfi_endproc

	.section	.text._ZNSt6vectorI12netlist_elemSaIS0_EED1Ev,"axG",@progbits,_ZNSt6vectorI12netlist_elemSaIS0_EED1Ev,comdat
	.weak	_ZNSt6vectorI12netlist_elemSaIS0_EED1Ev
	.align	16, 0x90
	.type	_ZNSt6vectorI12netlist_elemSaIS0_EED1Ev,@function
_ZNSt6vectorI12netlist_elemSaIS0_EED1Ev: # @_ZNSt6vectorI12netlist_elemSaIS0_EED1Ev
	.cfi_startproc
.Lfunc_begin46:
	.loc	17 415 0                # /usr/lib/gcc/x86_64-linux-gnu/4.8/../../../../include/c++/4.8/bits/stl_vector.h:415:0
# BB#0:                                 # %entry
	pushq	%rax
.Ltmp382:
	.cfi_def_cfa_offset 16
	movq	%rdi, (%rsp)
	.loc	17 415 0 prologue_end   # /usr/lib/gcc/x86_64-linux-gnu/4.8/../../../../include/c++/4.8/bits/stl_vector.h:415:0
.Ltmp383:
	callq	_ZNSt6vectorI12netlist_elemSaIS0_EED2Ev
	.loc	17 416 0                # /usr/lib/gcc/x86_64-linux-gnu/4.8/../../../../include/c++/4.8/bits/stl_vector.h:416:0
	popq	%rax
	ret
.Ltmp384:
.Ltmp385:
	.size	_ZNSt6vectorI12netlist_elemSaIS0_EED1Ev, .Ltmp385-_ZNSt6vectorI12netlist_elemSaIS0_EED1Ev
.Lfunc_end46:
	.cfi_endproc

	.section	.text._ZNSt6vectorI12netlist_elemSaIS0_EED2Ev,"axG",@progbits,_ZNSt6vectorI12netlist_elemSaIS0_EED2Ev,comdat
	.weak	_ZNSt6vectorI12netlist_elemSaIS0_EED2Ev
	.align	16, 0x90
	.type	_ZNSt6vectorI12netlist_elemSaIS0_EED2Ev,@function
_ZNSt6vectorI12netlist_elemSaIS0_EED2Ev: # @_ZNSt6vectorI12netlist_elemSaIS0_EED2Ev
	.cfi_startproc
	.cfi_personality 3, __gxx_personality_v0
.Leh_func_begin47:
	.cfi_lsda 3, .Lexception47
.Lfunc_begin47:
	.loc	17 415 0                # /usr/lib/gcc/x86_64-linux-gnu/4.8/../../../../include/c++/4.8/bits/stl_vector.h:415:0
# BB#0:                                 # %entry
	pushq	%r15
.Ltmp398:
	.cfi_def_cfa_offset 16
	pushq	%r14
.Ltmp399:
	.cfi_def_cfa_offset 24
	pushq	%rbx
.Ltmp400:
	.cfi_def_cfa_offset 32
	subq	$32, %rsp
.Ltmp401:
	.cfi_def_cfa_offset 64
.Ltmp402:
	.cfi_offset %rbx, -32
.Ltmp403:
	.cfi_offset %r14, -24
.Ltmp404:
	.cfi_offset %r15, -16
	movq	%rdi, %rbx
	movq	%rbx, 24(%rsp)
	.loc	17 415 0 prologue_end   # /usr/lib/gcc/x86_64-linux-gnu/4.8/../../../../include/c++/4.8/bits/stl_vector.h:415:0
.Ltmp405:
	movq	(%rbx), %r14
	movq	8(%rbx), %r15
	.loc	17 416 0                # /usr/lib/gcc/x86_64-linux-gnu/4.8/../../../../include/c++/4.8/bits/stl_vector.h:416:0
.Ltmp386:
	callq	_ZNSt12_Vector_baseI12netlist_elemSaIS0_EE19_M_get_Tp_allocatorEv
.Ltmp387:
# BB#1:                                 # %invoke.cont
.Ltmp388:
	movq	%r14, %rdi
	movq	%r15, %rsi
	movq	%rax, %rdx
	callq	_ZSt8_DestroyIP12netlist_elemS0_EvT_S2_RSaIT0_E
.Ltmp389:
# BB#2:                                 # %invoke.cont3
	movq	%rbx, %rdi
	callq	_ZNSt12_Vector_baseI12netlist_elemSaIS0_EED2Ev
	addq	$32, %rsp
	popq	%rbx
	popq	%r14
	popq	%r15
	ret
.LBB47_3:                               # %lpad
.Ltmp390:
	movq	%rax, 16(%rsp)
	movl	%edx, 12(%rsp)
.Ltmp391:
	movq	%rbx, %rdi
	callq	_ZNSt12_Vector_baseI12netlist_elemSaIS0_EED2Ev
.Ltmp392:
# BB#4:                                 # %eh.resume
	movq	16(%rsp), %rdi
	callq	_Unwind_Resume
.LBB47_5:                               # %terminate.lpad
.Ltmp393:
	callq	_ZSt9terminatev
.Ltmp406:
.Ltmp407:
	.size	_ZNSt6vectorI12netlist_elemSaIS0_EED2Ev, .Ltmp407-_ZNSt6vectorI12netlist_elemSaIS0_EED2Ev
.Lfunc_end47:
	.cfi_endproc
.Leh_func_end47:
	.section	.gcc_except_table,"a",@progbits
	.align	4
GCC_except_table47:
.Lexception47:
	.byte	255                     # @LPStart Encoding = omit
	.byte	3                       # @TType Encoding = udata4
	.asciz	 "\274"                 # @TType base offset
	.byte	3                       # Call site Encoding = udata4
	.byte	52                      # Call site table length
.Lset84 = .Ltmp386-.Leh_func_begin47    # >> Call Site 1 <<
	.long	.Lset84
.Lset85 = .Ltmp389-.Ltmp386             #   Call between .Ltmp386 and .Ltmp389
	.long	.Lset85
.Lset86 = .Ltmp390-.Leh_func_begin47    #     jumps to .Ltmp390
	.long	.Lset86
	.byte	0                       #   On action: cleanup
.Lset87 = .Ltmp389-.Leh_func_begin47    # >> Call Site 2 <<
	.long	.Lset87
.Lset88 = .Ltmp391-.Ltmp389             #   Call between .Ltmp389 and .Ltmp391
	.long	.Lset88
	.long	0                       #     has no landing pad
	.byte	0                       #   On action: cleanup
.Lset89 = .Ltmp391-.Leh_func_begin47    # >> Call Site 3 <<
	.long	.Lset89
.Lset90 = .Ltmp392-.Ltmp391             #   Call between .Ltmp391 and .Ltmp392
	.long	.Lset90
.Lset91 = .Ltmp393-.Leh_func_begin47    #     jumps to .Ltmp393
	.long	.Lset91
	.byte	1                       #   On action: 1
.Lset92 = .Ltmp392-.Leh_func_begin47    # >> Call Site 4 <<
	.long	.Lset92
.Lset93 = .Leh_func_end47-.Ltmp392      #   Call between .Ltmp392 and .Leh_func_end47
	.long	.Lset93
	.long	0                       #     has no landing pad
	.byte	0                       #   On action: cleanup
	.byte	1                       # >> Action Record 1 <<
                                        #   Catch TypeInfo 1
	.byte	0                       #   No further actions
                                        # >> Catch TypeInfos <<
	.long	0                       # TypeInfo 1
	.align	4

	.section	.text._ZSt8_DestroyIP12netlist_elemS0_EvT_S2_RSaIT0_E,"axG",@progbits,_ZSt8_DestroyIP12netlist_elemS0_EvT_S2_RSaIT0_E,comdat
	.weak	_ZSt8_DestroyIP12netlist_elemS0_EvT_S2_RSaIT0_E
	.align	16, 0x90
	.type	_ZSt8_DestroyIP12netlist_elemS0_EvT_S2_RSaIT0_E,@function
_ZSt8_DestroyIP12netlist_elemS0_EvT_S2_RSaIT0_E: # @_ZSt8_DestroyIP12netlist_elemS0_EvT_S2_RSaIT0_E
	.cfi_startproc
.Lfunc_begin48:
	.loc	19 150 0                # /usr/lib/gcc/x86_64-linux-gnu/4.8/../../../../include/c++/4.8/bits/stl_construct.h:150:0
# BB#0:                                 # %entry
	subq	$24, %rsp
.Ltmp409:
	.cfi_def_cfa_offset 32
	movq	%rdi, 16(%rsp)
	movq	%rsi, 8(%rsp)
	movq	%rdx, (%rsp)
	.loc	19 151 0 prologue_end   # /usr/lib/gcc/x86_64-linux-gnu/4.8/../../../../include/c++/4.8/bits/stl_construct.h:151:0
.Ltmp410:
	movq	8(%rsp), %rsi
	movq	16(%rsp), %rdi
	callq	_ZSt8_DestroyIP12netlist_elemEvT_S2_
	.loc	19 152 0                # /usr/lib/gcc/x86_64-linux-gnu/4.8/../../../../include/c++/4.8/bits/stl_construct.h:152:0
	addq	$24, %rsp
	ret
.Ltmp411:
.Ltmp412:
	.size	_ZSt8_DestroyIP12netlist_elemS0_EvT_S2_RSaIT0_E, .Ltmp412-_ZSt8_DestroyIP12netlist_elemS0_EvT_S2_RSaIT0_E
.Lfunc_end48:
	.cfi_endproc

	.section	.text._ZNSt12_Vector_baseI12netlist_elemSaIS0_EE19_M_get_Tp_allocatorEv,"axG",@progbits,_ZNSt12_Vector_baseI12netlist_elemSaIS0_EE19_M_get_Tp_allocatorEv,comdat
	.weak	_ZNSt12_Vector_baseI12netlist_elemSaIS0_EE19_M_get_Tp_allocatorEv
	.align	16, 0x90
	.type	_ZNSt12_Vector_baseI12netlist_elemSaIS0_EE19_M_get_Tp_allocatorEv,@function
_ZNSt12_Vector_baseI12netlist_elemSaIS0_EE19_M_get_Tp_allocatorEv: # @_ZNSt12_Vector_baseI12netlist_elemSaIS0_EE19_M_get_Tp_allocatorEv
	.cfi_startproc
.Lfunc_begin49:
	.loc	17 114 0                # /usr/lib/gcc/x86_64-linux-gnu/4.8/../../../../include/c++/4.8/bits/stl_vector.h:114:0
# BB#0:                                 # %entry
	movq	%rdi, -8(%rsp)
	.loc	17 114 0 prologue_end   # /usr/lib/gcc/x86_64-linux-gnu/4.8/../../../../include/c++/4.8/bits/stl_vector.h:114:0
.Ltmp413:
	movq	%rdi, %rax
	ret
.Ltmp414:
.Ltmp415:
	.size	_ZNSt12_Vector_baseI12netlist_elemSaIS0_EE19_M_get_Tp_allocatorEv, .Ltmp415-_ZNSt12_Vector_baseI12netlist_elemSaIS0_EE19_M_get_Tp_allocatorEv
.Lfunc_end49:
	.cfi_endproc

	.section	.text._ZNSt12_Vector_baseI12netlist_elemSaIS0_EED2Ev,"axG",@progbits,_ZNSt12_Vector_baseI12netlist_elemSaIS0_EED2Ev,comdat
	.weak	_ZNSt12_Vector_baseI12netlist_elemSaIS0_EED2Ev
	.align	16, 0x90
	.type	_ZNSt12_Vector_baseI12netlist_elemSaIS0_EED2Ev,@function
_ZNSt12_Vector_baseI12netlist_elemSaIS0_EED2Ev: # @_ZNSt12_Vector_baseI12netlist_elemSaIS0_EED2Ev
	.cfi_startproc
	.cfi_personality 3, __gxx_personality_v0
.Leh_func_begin50:
	.cfi_lsda 3, .Lexception50
.Lfunc_begin50:
	.loc	17 160 0                # /usr/lib/gcc/x86_64-linux-gnu/4.8/../../../../include/c++/4.8/bits/stl_vector.h:160:0
# BB#0:                                 # %entry
	pushq	%rbx
.Ltmp421:
	.cfi_def_cfa_offset 16
	subq	$32, %rsp
.Ltmp422:
	.cfi_def_cfa_offset 48
.Ltmp423:
	.cfi_offset %rbx, -16
	movq	%rdi, %rbx
	movq	%rbx, 24(%rsp)
	.loc	17 160 0 prologue_end   # /usr/lib/gcc/x86_64-linux-gnu/4.8/../../../../include/c++/4.8/bits/stl_vector.h:160:0
.Ltmp424:
	movq	(%rbx), %rsi
	movq	16(%rbx), %rdx
.Ltmp416:
	subq	%rsi, %rdx
	sarq	$6, %rdx
	callq	_ZNSt12_Vector_baseI12netlist_elemSaIS0_EE13_M_deallocateEPS0_m
.Ltmp417:
# BB#1:                                 # %invoke.cont
	.loc	17 161 0                # /usr/lib/gcc/x86_64-linux-gnu/4.8/../../../../include/c++/4.8/bits/stl_vector.h:161:0
	movq	%rbx, %rdi
	callq	_ZNSt12_Vector_baseI12netlist_elemSaIS0_EE12_Vector_implD1Ev
	addq	$32, %rsp
	popq	%rbx
	ret
.LBB50_2:                               # %eh.resume
.Ltmp418:
	.loc	17 160 0                # /usr/lib/gcc/x86_64-linux-gnu/4.8/../../../../include/c++/4.8/bits/stl_vector.h:160:0
	movq	%rax, 16(%rsp)
	movl	%edx, 12(%rsp)
	.loc	17 161 0                # /usr/lib/gcc/x86_64-linux-gnu/4.8/../../../../include/c++/4.8/bits/stl_vector.h:161:0
	movq	%rbx, %rdi
	callq	_ZNSt12_Vector_baseI12netlist_elemSaIS0_EE12_Vector_implD1Ev
	movq	16(%rsp), %rdi
	callq	_Unwind_Resume
.Ltmp425:
.Ltmp426:
	.size	_ZNSt12_Vector_baseI12netlist_elemSaIS0_EED2Ev, .Ltmp426-_ZNSt12_Vector_baseI12netlist_elemSaIS0_EED2Ev
.Lfunc_end50:
	.cfi_endproc
.Leh_func_end50:
	.section	.gcc_except_table,"a",@progbits
	.align	4
GCC_except_table50:
.Lexception50:
	.byte	255                     # @LPStart Encoding = omit
	.byte	3                       # @TType Encoding = udata4
	.asciz	 "\234"                 # @TType base offset
	.byte	3                       # Call site Encoding = udata4
	.byte	26                      # Call site table length
.Lset94 = .Ltmp416-.Leh_func_begin50    # >> Call Site 1 <<
	.long	.Lset94
.Lset95 = .Ltmp417-.Ltmp416             #   Call between .Ltmp416 and .Ltmp417
	.long	.Lset95
.Lset96 = .Ltmp418-.Leh_func_begin50    #     jumps to .Ltmp418
	.long	.Lset96
	.byte	0                       #   On action: cleanup
.Lset97 = .Ltmp417-.Leh_func_begin50    # >> Call Site 2 <<
	.long	.Lset97
.Lset98 = .Leh_func_end50-.Ltmp417      #   Call between .Ltmp417 and .Leh_func_end50
	.long	.Lset98
	.long	0                       #     has no landing pad
	.byte	0                       #   On action: cleanup
	.align	4

	.section	.text._ZNSt12_Vector_baseI12netlist_elemSaIS0_EE13_M_deallocateEPS0_m,"axG",@progbits,_ZNSt12_Vector_baseI12netlist_elemSaIS0_EE13_M_deallocateEPS0_m,comdat
	.weak	_ZNSt12_Vector_baseI12netlist_elemSaIS0_EE13_M_deallocateEPS0_m
	.align	16, 0x90
	.type	_ZNSt12_Vector_baseI12netlist_elemSaIS0_EE13_M_deallocateEPS0_m,@function
_ZNSt12_Vector_baseI12netlist_elemSaIS0_EE13_M_deallocateEPS0_m: # @_ZNSt12_Vector_baseI12netlist_elemSaIS0_EE13_M_deallocateEPS0_m
	.cfi_startproc
.Lfunc_begin51:
	.loc	17 172 0                # /usr/lib/gcc/x86_64-linux-gnu/4.8/../../../../include/c++/4.8/bits/stl_vector.h:172:0
# BB#0:                                 # %entry
	subq	$24, %rsp
.Ltmp428:
	.cfi_def_cfa_offset 32
	movq	%rdi, 16(%rsp)
	movq	%rsi, 8(%rsp)
	movq	%rdx, (%rsp)
	.loc	17 173 0 prologue_end   # /usr/lib/gcc/x86_64-linux-gnu/4.8/../../../../include/c++/4.8/bits/stl_vector.h:173:0
.Ltmp429:
	cmpq	$0, 8(%rsp)
	je	.LBB51_2
# BB#1:                                 # %if.then
	movq	16(%rsp), %rdi
	.loc	17 174 0                # /usr/lib/gcc/x86_64-linux-gnu/4.8/../../../../include/c++/4.8/bits/stl_vector.h:174:0
	movq	(%rsp), %rdx
	movq	8(%rsp), %rsi
	callq	_ZN9__gnu_cxx13new_allocatorI12netlist_elemE10deallocateEPS1_m
.LBB51_2:                               # %if.end
	.loc	17 175 0                # /usr/lib/gcc/x86_64-linux-gnu/4.8/../../../../include/c++/4.8/bits/stl_vector.h:175:0
	addq	$24, %rsp
	ret
.Ltmp430:
.Ltmp431:
	.size	_ZNSt12_Vector_baseI12netlist_elemSaIS0_EE13_M_deallocateEPS0_m, .Ltmp431-_ZNSt12_Vector_baseI12netlist_elemSaIS0_EE13_M_deallocateEPS0_m
.Lfunc_end51:
	.cfi_endproc

	.section	.text._ZNSt12_Vector_baseI12netlist_elemSaIS0_EE12_Vector_implD1Ev,"axG",@progbits,_ZNSt12_Vector_baseI12netlist_elemSaIS0_EE12_Vector_implD1Ev,comdat
	.weak	_ZNSt12_Vector_baseI12netlist_elemSaIS0_EE12_Vector_implD1Ev
	.align	16, 0x90
	.type	_ZNSt12_Vector_baseI12netlist_elemSaIS0_EE12_Vector_implD1Ev,@function
_ZNSt12_Vector_baseI12netlist_elemSaIS0_EE12_Vector_implD1Ev: # @_ZNSt12_Vector_baseI12netlist_elemSaIS0_EE12_Vector_implD1Ev
	.cfi_startproc
.Lfunc_begin52:
	.loc	17 79 0                 # /usr/lib/gcc/x86_64-linux-gnu/4.8/../../../../include/c++/4.8/bits/stl_vector.h:79:0
# BB#0:                                 # %entry
	pushq	%rax
.Ltmp433:
	.cfi_def_cfa_offset 16
	movq	%rdi, (%rsp)
	.loc	17 79 0 prologue_end    # /usr/lib/gcc/x86_64-linux-gnu/4.8/../../../../include/c++/4.8/bits/stl_vector.h:79:0
.Ltmp434:
	callq	_ZNSt12_Vector_baseI12netlist_elemSaIS0_EE12_Vector_implD2Ev
	popq	%rax
	ret
.Ltmp435:
.Ltmp436:
	.size	_ZNSt12_Vector_baseI12netlist_elemSaIS0_EE12_Vector_implD1Ev, .Ltmp436-_ZNSt12_Vector_baseI12netlist_elemSaIS0_EE12_Vector_implD1Ev
.Lfunc_end52:
	.cfi_endproc

	.section	.text._ZNSt12_Vector_baseI12netlist_elemSaIS0_EE12_Vector_implD2Ev,"axG",@progbits,_ZNSt12_Vector_baseI12netlist_elemSaIS0_EE12_Vector_implD2Ev,comdat
	.weak	_ZNSt12_Vector_baseI12netlist_elemSaIS0_EE12_Vector_implD2Ev
	.align	16, 0x90
	.type	_ZNSt12_Vector_baseI12netlist_elemSaIS0_EE12_Vector_implD2Ev,@function
_ZNSt12_Vector_baseI12netlist_elemSaIS0_EE12_Vector_implD2Ev: # @_ZNSt12_Vector_baseI12netlist_elemSaIS0_EE12_Vector_implD2Ev
	.cfi_startproc
.Lfunc_begin53:
	.loc	17 79 0                 # /usr/lib/gcc/x86_64-linux-gnu/4.8/../../../../include/c++/4.8/bits/stl_vector.h:79:0
# BB#0:                                 # %entry
	pushq	%rax
.Ltmp438:
	.cfi_def_cfa_offset 16
	movq	%rdi, (%rsp)
	.loc	17 79 0 prologue_end    # /usr/lib/gcc/x86_64-linux-gnu/4.8/../../../../include/c++/4.8/bits/stl_vector.h:79:0
.Ltmp439:
	callq	_ZNSaI12netlist_elemED2Ev
	popq	%rax
	ret
.Ltmp440:
.Ltmp441:
	.size	_ZNSt12_Vector_baseI12netlist_elemSaIS0_EE12_Vector_implD2Ev, .Ltmp441-_ZNSt12_Vector_baseI12netlist_elemSaIS0_EE12_Vector_implD2Ev
.Lfunc_end53:
	.cfi_endproc

	.section	.text._ZNSaI12netlist_elemED2Ev,"axG",@progbits,_ZNSaI12netlist_elemED2Ev,comdat
	.weak	_ZNSaI12netlist_elemED2Ev
	.align	16, 0x90
	.type	_ZNSaI12netlist_elemED2Ev,@function
_ZNSaI12netlist_elemED2Ev:              # @_ZNSaI12netlist_elemED2Ev
	.cfi_startproc
.Lfunc_begin54:
	.loc	10 121 0                # /usr/lib/gcc/x86_64-linux-gnu/4.8/../../../../include/c++/4.8/bits/allocator.h:121:0
# BB#0:                                 # %entry
	pushq	%rax
.Ltmp443:
	.cfi_def_cfa_offset 16
	movq	%rdi, (%rsp)
	.loc	10 121 0 prologue_end   # /usr/lib/gcc/x86_64-linux-gnu/4.8/../../../../include/c++/4.8/bits/allocator.h:121:0
.Ltmp444:
	callq	_ZN9__gnu_cxx13new_allocatorI12netlist_elemED2Ev
	popq	%rax
	ret
.Ltmp445:
.Ltmp446:
	.size	_ZNSaI12netlist_elemED2Ev, .Ltmp446-_ZNSaI12netlist_elemED2Ev
.Lfunc_end54:
	.cfi_endproc

	.section	.text._ZN9__gnu_cxx13new_allocatorI12netlist_elemED2Ev,"axG",@progbits,_ZN9__gnu_cxx13new_allocatorI12netlist_elemED2Ev,comdat
	.weak	_ZN9__gnu_cxx13new_allocatorI12netlist_elemED2Ev
	.align	16, 0x90
	.type	_ZN9__gnu_cxx13new_allocatorI12netlist_elemED2Ev,@function
_ZN9__gnu_cxx13new_allocatorI12netlist_elemED2Ev: # @_ZN9__gnu_cxx13new_allocatorI12netlist_elemED2Ev
	.cfi_startproc
.Lfunc_begin55:
	.loc	9 86 0                  # /usr/lib/gcc/x86_64-linux-gnu/4.8/../../../../include/c++/4.8/ext/new_allocator.h:86:0
# BB#0:                                 # %entry
	movq	%rdi, -8(%rsp)
	.loc	9 86 0 prologue_end     # /usr/lib/gcc/x86_64-linux-gnu/4.8/../../../../include/c++/4.8/ext/new_allocator.h:86:0
.Ltmp447:
	ret
.Ltmp448:
.Ltmp449:
	.size	_ZN9__gnu_cxx13new_allocatorI12netlist_elemED2Ev, .Ltmp449-_ZN9__gnu_cxx13new_allocatorI12netlist_elemED2Ev
.Lfunc_end55:
	.cfi_endproc

	.section	.text._ZN9__gnu_cxx13new_allocatorI12netlist_elemE10deallocateEPS1_m,"axG",@progbits,_ZN9__gnu_cxx13new_allocatorI12netlist_elemE10deallocateEPS1_m,comdat
	.weak	_ZN9__gnu_cxx13new_allocatorI12netlist_elemE10deallocateEPS1_m
	.align	16, 0x90
	.type	_ZN9__gnu_cxx13new_allocatorI12netlist_elemE10deallocateEPS1_m,@function
_ZN9__gnu_cxx13new_allocatorI12netlist_elemE10deallocateEPS1_m: # @_ZN9__gnu_cxx13new_allocatorI12netlist_elemE10deallocateEPS1_m
	.cfi_startproc
.Lfunc_begin56:
	.loc	9 110 0                 # /usr/lib/gcc/x86_64-linux-gnu/4.8/../../../../include/c++/4.8/ext/new_allocator.h:110:0
# BB#0:                                 # %entry
	subq	$24, %rsp
.Ltmp451:
	.cfi_def_cfa_offset 32
	movq	%rdi, 16(%rsp)
	movq	%rsi, 8(%rsp)
	movq	%rdx, (%rsp)
	.loc	9 110 0 prologue_end    # /usr/lib/gcc/x86_64-linux-gnu/4.8/../../../../include/c++/4.8/ext/new_allocator.h:110:0
.Ltmp452:
	movq	8(%rsp), %rdi
	callq	_ZdlPv
	addq	$24, %rsp
	ret
.Ltmp453:
.Ltmp454:
	.size	_ZN9__gnu_cxx13new_allocatorI12netlist_elemE10deallocateEPS1_m, .Ltmp454-_ZN9__gnu_cxx13new_allocatorI12netlist_elemE10deallocateEPS1_m
.Lfunc_end56:
	.cfi_endproc

	.section	.text._ZSt8_DestroyIP12netlist_elemEvT_S2_,"axG",@progbits,_ZSt8_DestroyIP12netlist_elemEvT_S2_,comdat
	.weak	_ZSt8_DestroyIP12netlist_elemEvT_S2_
	.align	16, 0x90
	.type	_ZSt8_DestroyIP12netlist_elemEvT_S2_,@function
_ZSt8_DestroyIP12netlist_elemEvT_S2_:   # @_ZSt8_DestroyIP12netlist_elemEvT_S2_
	.cfi_startproc
.Lfunc_begin57:
	.loc	19 123 0                # /usr/lib/gcc/x86_64-linux-gnu/4.8/../../../../include/c++/4.8/bits/stl_construct.h:123:0
# BB#0:                                 # %entry
	subq	$24, %rsp
.Ltmp456:
	.cfi_def_cfa_offset 32
	movq	%rdi, 16(%rsp)
	movq	%rsi, 8(%rsp)
	.loc	19 126 0 prologue_end   # /usr/lib/gcc/x86_64-linux-gnu/4.8/../../../../include/c++/4.8/bits/stl_construct.h:126:0
.Ltmp457:
	movq	16(%rsp), %rdi
	callq	_ZNSt12_Destroy_auxILb0EE9__destroyIP12netlist_elemEEvT_S4_
	.loc	19 128 0                # /usr/lib/gcc/x86_64-linux-gnu/4.8/../../../../include/c++/4.8/bits/stl_construct.h:128:0
	addq	$24, %rsp
	ret
.Ltmp458:
.Ltmp459:
	.size	_ZSt8_DestroyIP12netlist_elemEvT_S2_, .Ltmp459-_ZSt8_DestroyIP12netlist_elemEvT_S2_
.Lfunc_end57:
	.cfi_endproc

	.section	.text._ZNSt12_Destroy_auxILb0EE9__destroyIP12netlist_elemEEvT_S4_,"axG",@progbits,_ZNSt12_Destroy_auxILb0EE9__destroyIP12netlist_elemEEvT_S4_,comdat
	.weak	_ZNSt12_Destroy_auxILb0EE9__destroyIP12netlist_elemEEvT_S4_
	.align	16, 0x90
	.type	_ZNSt12_Destroy_auxILb0EE9__destroyIP12netlist_elemEEvT_S4_,@function
_ZNSt12_Destroy_auxILb0EE9__destroyIP12netlist_elemEEvT_S4_: # @_ZNSt12_Destroy_auxILb0EE9__destroyIP12netlist_elemEEvT_S4_
	.cfi_startproc
.Lfunc_begin58:
	.loc	19 101 0                # /usr/lib/gcc/x86_64-linux-gnu/4.8/../../../../include/c++/4.8/bits/stl_construct.h:101:0
# BB#0:                                 # %entry
	subq	$24, %rsp
.Ltmp461:
	.cfi_def_cfa_offset 32
	movq	%rdi, 16(%rsp)
	movq	%rsi, 8(%rsp)
	jmp	.LBB58_1
	.align	16, 0x90
.LBB58_2:                               # %for.body
                                        #   in Loop: Header=BB58_1 Depth=1
	.loc	19 103 0 prologue_end   # /usr/lib/gcc/x86_64-linux-gnu/4.8/../../../../include/c++/4.8/bits/stl_construct.h:103:0
.Ltmp462:
	movq	16(%rsp), %rdi
	callq	_ZSt11__addressofI12netlist_elemEPT_RS1_
	movq	%rax, %rdi
	callq	_ZSt8_DestroyI12netlist_elemEvPT_
	.loc	19 102 0                # /usr/lib/gcc/x86_64-linux-gnu/4.8/../../../../include/c++/4.8/bits/stl_construct.h:102:0
	addq	$64, 16(%rsp)
.LBB58_1:                               # %for.cond
                                        # =>This Inner Loop Header: Depth=1
	movq	16(%rsp), %rax
	cmpq	8(%rsp), %rax
	jne	.LBB58_2
.Ltmp463:
# BB#3:                                 # %for.end
	.loc	19 104 0                # /usr/lib/gcc/x86_64-linux-gnu/4.8/../../../../include/c++/4.8/bits/stl_construct.h:104:0
	addq	$24, %rsp
	ret
.Ltmp464:
.Ltmp465:
	.size	_ZNSt12_Destroy_auxILb0EE9__destroyIP12netlist_elemEEvT_S4_, .Ltmp465-_ZNSt12_Destroy_auxILb0EE9__destroyIP12netlist_elemEEvT_S4_
.Lfunc_end58:
	.cfi_endproc

	.section	.text._ZSt8_DestroyI12netlist_elemEvPT_,"axG",@progbits,_ZSt8_DestroyI12netlist_elemEvPT_,comdat
	.weak	_ZSt8_DestroyI12netlist_elemEvPT_
	.align	16, 0x90
	.type	_ZSt8_DestroyI12netlist_elemEvPT_,@function
_ZSt8_DestroyI12netlist_elemEvPT_:      # @_ZSt8_DestroyI12netlist_elemEvPT_
	.cfi_startproc
.Lfunc_begin59:
	.loc	19 93 0                 # /usr/lib/gcc/x86_64-linux-gnu/4.8/../../../../include/c++/4.8/bits/stl_construct.h:93:0
# BB#0:                                 # %entry
	pushq	%rax
.Ltmp467:
	.cfi_def_cfa_offset 16
	movq	%rdi, (%rsp)
	.loc	19 93 0 prologue_end    # /usr/lib/gcc/x86_64-linux-gnu/4.8/../../../../include/c++/4.8/bits/stl_construct.h:93:0
.Ltmp468:
	callq	_ZN12netlist_elemD1Ev
	popq	%rax
	ret
.Ltmp469:
.Ltmp470:
	.size	_ZSt8_DestroyI12netlist_elemEvPT_, .Ltmp470-_ZSt8_DestroyI12netlist_elemEvPT_
.Lfunc_end59:
	.cfi_endproc

	.section	.text._ZSt11__addressofI12netlist_elemEPT_RS1_,"axG",@progbits,_ZSt11__addressofI12netlist_elemEPT_RS1_,comdat
	.weak	_ZSt11__addressofI12netlist_elemEPT_RS1_
	.align	16, 0x90
	.type	_ZSt11__addressofI12netlist_elemEPT_RS1_,@function
_ZSt11__addressofI12netlist_elemEPT_RS1_: # @_ZSt11__addressofI12netlist_elemEPT_RS1_
	.cfi_startproc
.Lfunc_begin60:
	.loc	32 48 0                 # /usr/lib/gcc/x86_64-linux-gnu/4.8/../../../../include/c++/4.8/bits/move.h:48:0
# BB#0:                                 # %entry
	movq	%rdi, -8(%rsp)
	.loc	32 49 0 prologue_end    # /usr/lib/gcc/x86_64-linux-gnu/4.8/../../../../include/c++/4.8/bits/move.h:49:0
.Ltmp471:
	movq	%rdi, %rax
	ret
.Ltmp472:
.Ltmp473:
	.size	_ZSt11__addressofI12netlist_elemEPT_RS1_, .Ltmp473-_ZSt11__addressofI12netlist_elemEPT_RS1_
.Lfunc_end60:
	.cfi_endproc

	.section	.text._ZN12netlist_elemD1Ev,"axG",@progbits,_ZN12netlist_elemD1Ev,comdat
	.weak	_ZN12netlist_elemD1Ev
	.align	16, 0x90
	.type	_ZN12netlist_elemD1Ev,@function
_ZN12netlist_elemD1Ev:                  # @_ZN12netlist_elemD1Ev
	.cfi_startproc
.Lfunc_begin61:
	.loc	20 42 0                 # src/netlist_elem.h:42:0
# BB#0:                                 # %entry
	pushq	%rax
.Ltmp475:
	.cfi_def_cfa_offset 16
	movq	%rdi, (%rsp)
	.loc	20 42 0 prologue_end    # src/netlist_elem.h:42:0
.Ltmp476:
	callq	_ZN12netlist_elemD2Ev
	popq	%rax
	ret
.Ltmp477:
.Ltmp478:
	.size	_ZN12netlist_elemD1Ev, .Ltmp478-_ZN12netlist_elemD1Ev
.Lfunc_end61:
	.cfi_endproc

	.section	.text._ZN12netlist_elemD2Ev,"axG",@progbits,_ZN12netlist_elemD2Ev,comdat
	.weak	_ZN12netlist_elemD2Ev
	.align	16, 0x90
	.type	_ZN12netlist_elemD2Ev,@function
_ZN12netlist_elemD2Ev:                  # @_ZN12netlist_elemD2Ev
	.cfi_startproc
	.cfi_personality 3, __gxx_personality_v0
.Leh_func_begin62:
	.cfi_lsda 3, .Lexception62
.Lfunc_begin62:
	.loc	20 42 0                 # src/netlist_elem.h:42:0
# BB#0:                                 # %entry
	pushq	%rbx
.Ltmp492:
	.cfi_def_cfa_offset 16
	subq	$32, %rsp
.Ltmp493:
	.cfi_def_cfa_offset 48
.Ltmp494:
	.cfi_offset %rbx, -16
	movq	%rdi, %rbx
	movq	%rbx, 24(%rsp)
	.loc	20 42 0 prologue_end    # src/netlist_elem.h:42:0
.Ltmp495:
.Ltmp479:
	addq	$32, %rdi
	callq	_ZNSt6vectorIP12netlist_elemSaIS1_EED1Ev
.Ltmp480:
# BB#1:                                 # %invoke.cont
.Ltmp484:
	leaq	8(%rbx), %rdi
	callq	_ZNSt6vectorIP12netlist_elemSaIS1_EED1Ev
.Ltmp485:
# BB#2:                                 # %invoke.cont3
	movq	%rbx, %rdi
	callq	_ZNSsD1Ev
	addq	$32, %rsp
	popq	%rbx
	ret
.LBB62_3:                               # %lpad
.Ltmp481:
	movq	%rax, 16(%rsp)
	movl	%edx, 12(%rsp)
.Ltmp482:
	leaq	8(%rbx), %rdi
	callq	_ZNSt6vectorIP12netlist_elemSaIS1_EED1Ev
.Ltmp483:
	jmp	.LBB62_5
.LBB62_4:                               # %lpad2
.Ltmp486:
	movq	%rax, 16(%rsp)
	movl	%edx, 12(%rsp)
.LBB62_5:                               # %ehcleanup
.Ltmp487:
	movq	%rbx, %rdi
	callq	_ZNSsD1Ev
.Ltmp488:
# BB#6:                                 # %eh.resume
	movq	16(%rsp), %rdi
	callq	_Unwind_Resume
.LBB62_7:                               # %terminate.lpad
.Ltmp489:
	callq	_ZSt9terminatev
.Ltmp496:
.Ltmp497:
	.size	_ZN12netlist_elemD2Ev, .Ltmp497-_ZN12netlist_elemD2Ev
.Lfunc_end62:
	.cfi_endproc
.Leh_func_end62:
	.section	.gcc_except_table,"a",@progbits
	.align	4
GCC_except_table62:
.Lexception62:
	.byte	255                     # @LPStart Encoding = omit
	.byte	3                       # @TType Encoding = udata4
	.byte	73                      # @TType base offset
	.byte	3                       # Call site Encoding = udata4
	.byte	65                      # Call site table length
.Lset99 = .Ltmp479-.Leh_func_begin62    # >> Call Site 1 <<
	.long	.Lset99
.Lset100 = .Ltmp480-.Ltmp479            #   Call between .Ltmp479 and .Ltmp480
	.long	.Lset100
.Lset101 = .Ltmp481-.Leh_func_begin62   #     jumps to .Ltmp481
	.long	.Lset101
	.byte	0                       #   On action: cleanup
.Lset102 = .Ltmp484-.Leh_func_begin62   # >> Call Site 2 <<
	.long	.Lset102
.Lset103 = .Ltmp485-.Ltmp484            #   Call between .Ltmp484 and .Ltmp485
	.long	.Lset103
.Lset104 = .Ltmp486-.Leh_func_begin62   #     jumps to .Ltmp486
	.long	.Lset104
	.byte	0                       #   On action: cleanup
.Lset105 = .Ltmp485-.Leh_func_begin62   # >> Call Site 3 <<
	.long	.Lset105
.Lset106 = .Ltmp482-.Ltmp485            #   Call between .Ltmp485 and .Ltmp482
	.long	.Lset106
	.long	0                       #     has no landing pad
	.byte	0                       #   On action: cleanup
.Lset107 = .Ltmp482-.Leh_func_begin62   # >> Call Site 4 <<
	.long	.Lset107
.Lset108 = .Ltmp488-.Ltmp482            #   Call between .Ltmp482 and .Ltmp488
	.long	.Lset108
.Lset109 = .Ltmp489-.Leh_func_begin62   #     jumps to .Ltmp489
	.long	.Lset109
	.byte	1                       #   On action: 1
.Lset110 = .Ltmp488-.Leh_func_begin62   # >> Call Site 5 <<
	.long	.Lset110
.Lset111 = .Leh_func_end62-.Ltmp488     #   Call between .Ltmp488 and .Leh_func_end62
	.long	.Lset111
	.long	0                       #     has no landing pad
	.byte	0                       #   On action: cleanup
	.byte	1                       # >> Action Record 1 <<
                                        #   Catch TypeInfo 1
	.byte	0                       #   No further actions
                                        # >> Catch TypeInfos <<
	.long	0                       # TypeInfo 1
	.align	4

	.section	.text._ZNSt6vectorIP12netlist_elemSaIS1_EED1Ev,"axG",@progbits,_ZNSt6vectorIP12netlist_elemSaIS1_EED1Ev,comdat
	.weak	_ZNSt6vectorIP12netlist_elemSaIS1_EED1Ev
	.align	16, 0x90
	.type	_ZNSt6vectorIP12netlist_elemSaIS1_EED1Ev,@function
_ZNSt6vectorIP12netlist_elemSaIS1_EED1Ev: # @_ZNSt6vectorIP12netlist_elemSaIS1_EED1Ev
	.cfi_startproc
.Lfunc_begin63:
	.loc	17 415 0                # /usr/lib/gcc/x86_64-linux-gnu/4.8/../../../../include/c++/4.8/bits/stl_vector.h:415:0
# BB#0:                                 # %entry
	pushq	%rax
.Ltmp499:
	.cfi_def_cfa_offset 16
	movq	%rdi, (%rsp)
	.loc	17 415 0 prologue_end   # /usr/lib/gcc/x86_64-linux-gnu/4.8/../../../../include/c++/4.8/bits/stl_vector.h:415:0
.Ltmp500:
	callq	_ZNSt6vectorIP12netlist_elemSaIS1_EED2Ev
	.loc	17 416 0                # /usr/lib/gcc/x86_64-linux-gnu/4.8/../../../../include/c++/4.8/bits/stl_vector.h:416:0
	popq	%rax
	ret
.Ltmp501:
.Ltmp502:
	.size	_ZNSt6vectorIP12netlist_elemSaIS1_EED1Ev, .Ltmp502-_ZNSt6vectorIP12netlist_elemSaIS1_EED1Ev
.Lfunc_end63:
	.cfi_endproc

	.section	.text._ZNSt6vectorIP12netlist_elemSaIS1_EED2Ev,"axG",@progbits,_ZNSt6vectorIP12netlist_elemSaIS1_EED2Ev,comdat
	.weak	_ZNSt6vectorIP12netlist_elemSaIS1_EED2Ev
	.align	16, 0x90
	.type	_ZNSt6vectorIP12netlist_elemSaIS1_EED2Ev,@function
_ZNSt6vectorIP12netlist_elemSaIS1_EED2Ev: # @_ZNSt6vectorIP12netlist_elemSaIS1_EED2Ev
	.cfi_startproc
	.cfi_personality 3, __gxx_personality_v0
.Leh_func_begin64:
	.cfi_lsda 3, .Lexception64
.Lfunc_begin64:
	.loc	17 415 0                # /usr/lib/gcc/x86_64-linux-gnu/4.8/../../../../include/c++/4.8/bits/stl_vector.h:415:0
# BB#0:                                 # %entry
	pushq	%r15
.Ltmp515:
	.cfi_def_cfa_offset 16
	pushq	%r14
.Ltmp516:
	.cfi_def_cfa_offset 24
	pushq	%rbx
.Ltmp517:
	.cfi_def_cfa_offset 32
	subq	$32, %rsp
.Ltmp518:
	.cfi_def_cfa_offset 64
.Ltmp519:
	.cfi_offset %rbx, -32
.Ltmp520:
	.cfi_offset %r14, -24
.Ltmp521:
	.cfi_offset %r15, -16
	movq	%rdi, %rbx
	movq	%rbx, 24(%rsp)
	.loc	17 415 0 prologue_end   # /usr/lib/gcc/x86_64-linux-gnu/4.8/../../../../include/c++/4.8/bits/stl_vector.h:415:0
.Ltmp522:
	movq	(%rbx), %r14
	movq	8(%rbx), %r15
	.loc	17 416 0                # /usr/lib/gcc/x86_64-linux-gnu/4.8/../../../../include/c++/4.8/bits/stl_vector.h:416:0
.Ltmp503:
	callq	_ZNSt12_Vector_baseIP12netlist_elemSaIS1_EE19_M_get_Tp_allocatorEv
.Ltmp504:
# BB#1:                                 # %invoke.cont
.Ltmp505:
	movq	%r14, %rdi
	movq	%r15, %rsi
	movq	%rax, %rdx
	callq	_ZSt8_DestroyIPP12netlist_elemS1_EvT_S3_RSaIT0_E
.Ltmp506:
# BB#2:                                 # %invoke.cont3
	movq	%rbx, %rdi
	callq	_ZNSt12_Vector_baseIP12netlist_elemSaIS1_EED2Ev
	addq	$32, %rsp
	popq	%rbx
	popq	%r14
	popq	%r15
	ret
.LBB64_3:                               # %lpad
.Ltmp507:
	movq	%rax, 16(%rsp)
	movl	%edx, 12(%rsp)
.Ltmp508:
	movq	%rbx, %rdi
	callq	_ZNSt12_Vector_baseIP12netlist_elemSaIS1_EED2Ev
.Ltmp509:
# BB#4:                                 # %eh.resume
	movq	16(%rsp), %rdi
	callq	_Unwind_Resume
.LBB64_5:                               # %terminate.lpad
.Ltmp510:
	callq	_ZSt9terminatev
.Ltmp523:
.Ltmp524:
	.size	_ZNSt6vectorIP12netlist_elemSaIS1_EED2Ev, .Ltmp524-_ZNSt6vectorIP12netlist_elemSaIS1_EED2Ev
.Lfunc_end64:
	.cfi_endproc
.Leh_func_end64:
	.section	.gcc_except_table,"a",@progbits
	.align	4
GCC_except_table64:
.Lexception64:
	.byte	255                     # @LPStart Encoding = omit
	.byte	3                       # @TType Encoding = udata4
	.asciz	 "\274"                 # @TType base offset
	.byte	3                       # Call site Encoding = udata4
	.byte	52                      # Call site table length
.Lset112 = .Ltmp503-.Leh_func_begin64   # >> Call Site 1 <<
	.long	.Lset112
.Lset113 = .Ltmp506-.Ltmp503            #   Call between .Ltmp503 and .Ltmp506
	.long	.Lset113
.Lset114 = .Ltmp507-.Leh_func_begin64   #     jumps to .Ltmp507
	.long	.Lset114
	.byte	0                       #   On action: cleanup
.Lset115 = .Ltmp506-.Leh_func_begin64   # >> Call Site 2 <<
	.long	.Lset115
.Lset116 = .Ltmp508-.Ltmp506            #   Call between .Ltmp506 and .Ltmp508
	.long	.Lset116
	.long	0                       #     has no landing pad
	.byte	0                       #   On action: cleanup
.Lset117 = .Ltmp508-.Leh_func_begin64   # >> Call Site 3 <<
	.long	.Lset117
.Lset118 = .Ltmp509-.Ltmp508            #   Call between .Ltmp508 and .Ltmp509
	.long	.Lset118
.Lset119 = .Ltmp510-.Leh_func_begin64   #     jumps to .Ltmp510
	.long	.Lset119
	.byte	1                       #   On action: 1
.Lset120 = .Ltmp509-.Leh_func_begin64   # >> Call Site 4 <<
	.long	.Lset120
.Lset121 = .Leh_func_end64-.Ltmp509     #   Call between .Ltmp509 and .Leh_func_end64
	.long	.Lset121
	.long	0                       #     has no landing pad
	.byte	0                       #   On action: cleanup
	.byte	1                       # >> Action Record 1 <<
                                        #   Catch TypeInfo 1
	.byte	0                       #   No further actions
                                        # >> Catch TypeInfos <<
	.long	0                       # TypeInfo 1
	.align	4

	.section	.text._ZSt8_DestroyIPP12netlist_elemS1_EvT_S3_RSaIT0_E,"axG",@progbits,_ZSt8_DestroyIPP12netlist_elemS1_EvT_S3_RSaIT0_E,comdat
	.weak	_ZSt8_DestroyIPP12netlist_elemS1_EvT_S3_RSaIT0_E
	.align	16, 0x90
	.type	_ZSt8_DestroyIPP12netlist_elemS1_EvT_S3_RSaIT0_E,@function
_ZSt8_DestroyIPP12netlist_elemS1_EvT_S3_RSaIT0_E: # @_ZSt8_DestroyIPP12netlist_elemS1_EvT_S3_RSaIT0_E
	.cfi_startproc
.Lfunc_begin65:
	.loc	19 150 0                # /usr/lib/gcc/x86_64-linux-gnu/4.8/../../../../include/c++/4.8/bits/stl_construct.h:150:0
# BB#0:                                 # %entry
	subq	$24, %rsp
.Ltmp526:
	.cfi_def_cfa_offset 32
	movq	%rdi, 16(%rsp)
	movq	%rsi, 8(%rsp)
	movq	%rdx, (%rsp)
	.loc	19 151 0 prologue_end   # /usr/lib/gcc/x86_64-linux-gnu/4.8/../../../../include/c++/4.8/bits/stl_construct.h:151:0
.Ltmp527:
	movq	8(%rsp), %rsi
	movq	16(%rsp), %rdi
	callq	_ZSt8_DestroyIPP12netlist_elemEvT_S3_
	.loc	19 152 0                # /usr/lib/gcc/x86_64-linux-gnu/4.8/../../../../include/c++/4.8/bits/stl_construct.h:152:0
	addq	$24, %rsp
	ret
.Ltmp528:
.Ltmp529:
	.size	_ZSt8_DestroyIPP12netlist_elemS1_EvT_S3_RSaIT0_E, .Ltmp529-_ZSt8_DestroyIPP12netlist_elemS1_EvT_S3_RSaIT0_E
.Lfunc_end65:
	.cfi_endproc

	.section	.text._ZNSt12_Vector_baseIP12netlist_elemSaIS1_EE19_M_get_Tp_allocatorEv,"axG",@progbits,_ZNSt12_Vector_baseIP12netlist_elemSaIS1_EE19_M_get_Tp_allocatorEv,comdat
	.weak	_ZNSt12_Vector_baseIP12netlist_elemSaIS1_EE19_M_get_Tp_allocatorEv
	.align	16, 0x90
	.type	_ZNSt12_Vector_baseIP12netlist_elemSaIS1_EE19_M_get_Tp_allocatorEv,@function
_ZNSt12_Vector_baseIP12netlist_elemSaIS1_EE19_M_get_Tp_allocatorEv: # @_ZNSt12_Vector_baseIP12netlist_elemSaIS1_EE19_M_get_Tp_allocatorEv
	.cfi_startproc
.Lfunc_begin66:
	.loc	17 114 0                # /usr/lib/gcc/x86_64-linux-gnu/4.8/../../../../include/c++/4.8/bits/stl_vector.h:114:0
# BB#0:                                 # %entry
	movq	%rdi, -8(%rsp)
	.loc	17 114 0 prologue_end   # /usr/lib/gcc/x86_64-linux-gnu/4.8/../../../../include/c++/4.8/bits/stl_vector.h:114:0
.Ltmp530:
	movq	%rdi, %rax
	ret
.Ltmp531:
.Ltmp532:
	.size	_ZNSt12_Vector_baseIP12netlist_elemSaIS1_EE19_M_get_Tp_allocatorEv, .Ltmp532-_ZNSt12_Vector_baseIP12netlist_elemSaIS1_EE19_M_get_Tp_allocatorEv
.Lfunc_end66:
	.cfi_endproc

	.section	.text._ZNSt12_Vector_baseIP12netlist_elemSaIS1_EED2Ev,"axG",@progbits,_ZNSt12_Vector_baseIP12netlist_elemSaIS1_EED2Ev,comdat
	.weak	_ZNSt12_Vector_baseIP12netlist_elemSaIS1_EED2Ev
	.align	16, 0x90
	.type	_ZNSt12_Vector_baseIP12netlist_elemSaIS1_EED2Ev,@function
_ZNSt12_Vector_baseIP12netlist_elemSaIS1_EED2Ev: # @_ZNSt12_Vector_baseIP12netlist_elemSaIS1_EED2Ev
	.cfi_startproc
	.cfi_personality 3, __gxx_personality_v0
.Leh_func_begin67:
	.cfi_lsda 3, .Lexception67
.Lfunc_begin67:
	.loc	17 160 0                # /usr/lib/gcc/x86_64-linux-gnu/4.8/../../../../include/c++/4.8/bits/stl_vector.h:160:0
# BB#0:                                 # %entry
	pushq	%rbx
.Ltmp538:
	.cfi_def_cfa_offset 16
	subq	$32, %rsp
.Ltmp539:
	.cfi_def_cfa_offset 48
.Ltmp540:
	.cfi_offset %rbx, -16
	movq	%rdi, %rbx
	movq	%rbx, 24(%rsp)
	.loc	17 160 0 prologue_end   # /usr/lib/gcc/x86_64-linux-gnu/4.8/../../../../include/c++/4.8/bits/stl_vector.h:160:0
.Ltmp541:
	movq	(%rbx), %rsi
	movq	16(%rbx), %rdx
.Ltmp533:
	subq	%rsi, %rdx
	sarq	$3, %rdx
	callq	_ZNSt12_Vector_baseIP12netlist_elemSaIS1_EE13_M_deallocateEPS1_m
.Ltmp534:
# BB#1:                                 # %invoke.cont
	.loc	17 161 0                # /usr/lib/gcc/x86_64-linux-gnu/4.8/../../../../include/c++/4.8/bits/stl_vector.h:161:0
	movq	%rbx, %rdi
	callq	_ZNSt12_Vector_baseIP12netlist_elemSaIS1_EE12_Vector_implD1Ev
	addq	$32, %rsp
	popq	%rbx
	ret
.LBB67_2:                               # %eh.resume
.Ltmp535:
	.loc	17 160 0                # /usr/lib/gcc/x86_64-linux-gnu/4.8/../../../../include/c++/4.8/bits/stl_vector.h:160:0
	movq	%rax, 16(%rsp)
	movl	%edx, 12(%rsp)
	.loc	17 161 0                # /usr/lib/gcc/x86_64-linux-gnu/4.8/../../../../include/c++/4.8/bits/stl_vector.h:161:0
	movq	%rbx, %rdi
	callq	_ZNSt12_Vector_baseIP12netlist_elemSaIS1_EE12_Vector_implD1Ev
	movq	16(%rsp), %rdi
	callq	_Unwind_Resume
.Ltmp542:
.Ltmp543:
	.size	_ZNSt12_Vector_baseIP12netlist_elemSaIS1_EED2Ev, .Ltmp543-_ZNSt12_Vector_baseIP12netlist_elemSaIS1_EED2Ev
.Lfunc_end67:
	.cfi_endproc
.Leh_func_end67:
	.section	.gcc_except_table,"a",@progbits
	.align	4
GCC_except_table67:
.Lexception67:
	.byte	255                     # @LPStart Encoding = omit
	.byte	3                       # @TType Encoding = udata4
	.asciz	 "\234"                 # @TType base offset
	.byte	3                       # Call site Encoding = udata4
	.byte	26                      # Call site table length
.Lset122 = .Ltmp533-.Leh_func_begin67   # >> Call Site 1 <<
	.long	.Lset122
.Lset123 = .Ltmp534-.Ltmp533            #   Call between .Ltmp533 and .Ltmp534
	.long	.Lset123
.Lset124 = .Ltmp535-.Leh_func_begin67   #     jumps to .Ltmp535
	.long	.Lset124
	.byte	0                       #   On action: cleanup
.Lset125 = .Ltmp534-.Leh_func_begin67   # >> Call Site 2 <<
	.long	.Lset125
.Lset126 = .Leh_func_end67-.Ltmp534     #   Call between .Ltmp534 and .Leh_func_end67
	.long	.Lset126
	.long	0                       #     has no landing pad
	.byte	0                       #   On action: cleanup
	.align	4

	.section	.text._ZNSt12_Vector_baseIP12netlist_elemSaIS1_EE13_M_deallocateEPS1_m,"axG",@progbits,_ZNSt12_Vector_baseIP12netlist_elemSaIS1_EE13_M_deallocateEPS1_m,comdat
	.weak	_ZNSt12_Vector_baseIP12netlist_elemSaIS1_EE13_M_deallocateEPS1_m
	.align	16, 0x90
	.type	_ZNSt12_Vector_baseIP12netlist_elemSaIS1_EE13_M_deallocateEPS1_m,@function
_ZNSt12_Vector_baseIP12netlist_elemSaIS1_EE13_M_deallocateEPS1_m: # @_ZNSt12_Vector_baseIP12netlist_elemSaIS1_EE13_M_deallocateEPS1_m
	.cfi_startproc
.Lfunc_begin68:
	.loc	17 172 0                # /usr/lib/gcc/x86_64-linux-gnu/4.8/../../../../include/c++/4.8/bits/stl_vector.h:172:0
# BB#0:                                 # %entry
	subq	$24, %rsp
.Ltmp545:
	.cfi_def_cfa_offset 32
	movq	%rdi, 16(%rsp)
	movq	%rsi, 8(%rsp)
	movq	%rdx, (%rsp)
	.loc	17 173 0 prologue_end   # /usr/lib/gcc/x86_64-linux-gnu/4.8/../../../../include/c++/4.8/bits/stl_vector.h:173:0
.Ltmp546:
	cmpq	$0, 8(%rsp)
	je	.LBB68_2
# BB#1:                                 # %if.then
	movq	16(%rsp), %rdi
	.loc	17 174 0                # /usr/lib/gcc/x86_64-linux-gnu/4.8/../../../../include/c++/4.8/bits/stl_vector.h:174:0
	movq	(%rsp), %rdx
	movq	8(%rsp), %rsi
	callq	_ZN9__gnu_cxx13new_allocatorIP12netlist_elemE10deallocateEPS2_m
.LBB68_2:                               # %if.end
	.loc	17 175 0                # /usr/lib/gcc/x86_64-linux-gnu/4.8/../../../../include/c++/4.8/bits/stl_vector.h:175:0
	addq	$24, %rsp
	ret
.Ltmp547:
.Ltmp548:
	.size	_ZNSt12_Vector_baseIP12netlist_elemSaIS1_EE13_M_deallocateEPS1_m, .Ltmp548-_ZNSt12_Vector_baseIP12netlist_elemSaIS1_EE13_M_deallocateEPS1_m
.Lfunc_end68:
	.cfi_endproc

	.section	.text._ZNSt12_Vector_baseIP12netlist_elemSaIS1_EE12_Vector_implD1Ev,"axG",@progbits,_ZNSt12_Vector_baseIP12netlist_elemSaIS1_EE12_Vector_implD1Ev,comdat
	.weak	_ZNSt12_Vector_baseIP12netlist_elemSaIS1_EE12_Vector_implD1Ev
	.align	16, 0x90
	.type	_ZNSt12_Vector_baseIP12netlist_elemSaIS1_EE12_Vector_implD1Ev,@function
_ZNSt12_Vector_baseIP12netlist_elemSaIS1_EE12_Vector_implD1Ev: # @_ZNSt12_Vector_baseIP12netlist_elemSaIS1_EE12_Vector_implD1Ev
	.cfi_startproc
.Lfunc_begin69:
	.loc	17 79 0                 # /usr/lib/gcc/x86_64-linux-gnu/4.8/../../../../include/c++/4.8/bits/stl_vector.h:79:0
# BB#0:                                 # %entry
	pushq	%rax
.Ltmp550:
	.cfi_def_cfa_offset 16
	movq	%rdi, (%rsp)
	.loc	17 79 0 prologue_end    # /usr/lib/gcc/x86_64-linux-gnu/4.8/../../../../include/c++/4.8/bits/stl_vector.h:79:0
.Ltmp551:
	callq	_ZNSt12_Vector_baseIP12netlist_elemSaIS1_EE12_Vector_implD2Ev
	popq	%rax
	ret
.Ltmp552:
.Ltmp553:
	.size	_ZNSt12_Vector_baseIP12netlist_elemSaIS1_EE12_Vector_implD1Ev, .Ltmp553-_ZNSt12_Vector_baseIP12netlist_elemSaIS1_EE12_Vector_implD1Ev
.Lfunc_end69:
	.cfi_endproc

	.section	.text._ZNSt12_Vector_baseIP12netlist_elemSaIS1_EE12_Vector_implD2Ev,"axG",@progbits,_ZNSt12_Vector_baseIP12netlist_elemSaIS1_EE12_Vector_implD2Ev,comdat
	.weak	_ZNSt12_Vector_baseIP12netlist_elemSaIS1_EE12_Vector_implD2Ev
	.align	16, 0x90
	.type	_ZNSt12_Vector_baseIP12netlist_elemSaIS1_EE12_Vector_implD2Ev,@function
_ZNSt12_Vector_baseIP12netlist_elemSaIS1_EE12_Vector_implD2Ev: # @_ZNSt12_Vector_baseIP12netlist_elemSaIS1_EE12_Vector_implD2Ev
	.cfi_startproc
.Lfunc_begin70:
	.loc	17 79 0                 # /usr/lib/gcc/x86_64-linux-gnu/4.8/../../../../include/c++/4.8/bits/stl_vector.h:79:0
# BB#0:                                 # %entry
	pushq	%rax
.Ltmp555:
	.cfi_def_cfa_offset 16
	movq	%rdi, (%rsp)
	.loc	17 79 0 prologue_end    # /usr/lib/gcc/x86_64-linux-gnu/4.8/../../../../include/c++/4.8/bits/stl_vector.h:79:0
.Ltmp556:
	callq	_ZNSaIP12netlist_elemED2Ev
	popq	%rax
	ret
.Ltmp557:
.Ltmp558:
	.size	_ZNSt12_Vector_baseIP12netlist_elemSaIS1_EE12_Vector_implD2Ev, .Ltmp558-_ZNSt12_Vector_baseIP12netlist_elemSaIS1_EE12_Vector_implD2Ev
.Lfunc_end70:
	.cfi_endproc

	.section	.text._ZNSaIP12netlist_elemED2Ev,"axG",@progbits,_ZNSaIP12netlist_elemED2Ev,comdat
	.weak	_ZNSaIP12netlist_elemED2Ev
	.align	16, 0x90
	.type	_ZNSaIP12netlist_elemED2Ev,@function
_ZNSaIP12netlist_elemED2Ev:             # @_ZNSaIP12netlist_elemED2Ev
	.cfi_startproc
.Lfunc_begin71:
	.loc	10 121 0                # /usr/lib/gcc/x86_64-linux-gnu/4.8/../../../../include/c++/4.8/bits/allocator.h:121:0
# BB#0:                                 # %entry
	pushq	%rax
.Ltmp560:
	.cfi_def_cfa_offset 16
	movq	%rdi, (%rsp)
	.loc	10 121 0 prologue_end   # /usr/lib/gcc/x86_64-linux-gnu/4.8/../../../../include/c++/4.8/bits/allocator.h:121:0
.Ltmp561:
	callq	_ZN9__gnu_cxx13new_allocatorIP12netlist_elemED2Ev
	popq	%rax
	ret
.Ltmp562:
.Ltmp563:
	.size	_ZNSaIP12netlist_elemED2Ev, .Ltmp563-_ZNSaIP12netlist_elemED2Ev
.Lfunc_end71:
	.cfi_endproc

	.section	.text._ZN9__gnu_cxx13new_allocatorIP12netlist_elemED2Ev,"axG",@progbits,_ZN9__gnu_cxx13new_allocatorIP12netlist_elemED2Ev,comdat
	.weak	_ZN9__gnu_cxx13new_allocatorIP12netlist_elemED2Ev
	.align	16, 0x90
	.type	_ZN9__gnu_cxx13new_allocatorIP12netlist_elemED2Ev,@function
_ZN9__gnu_cxx13new_allocatorIP12netlist_elemED2Ev: # @_ZN9__gnu_cxx13new_allocatorIP12netlist_elemED2Ev
	.cfi_startproc
.Lfunc_begin72:
	.loc	9 86 0                  # /usr/lib/gcc/x86_64-linux-gnu/4.8/../../../../include/c++/4.8/ext/new_allocator.h:86:0
# BB#0:                                 # %entry
	movq	%rdi, -8(%rsp)
	.loc	9 86 0 prologue_end     # /usr/lib/gcc/x86_64-linux-gnu/4.8/../../../../include/c++/4.8/ext/new_allocator.h:86:0
.Ltmp564:
	ret
.Ltmp565:
.Ltmp566:
	.size	_ZN9__gnu_cxx13new_allocatorIP12netlist_elemED2Ev, .Ltmp566-_ZN9__gnu_cxx13new_allocatorIP12netlist_elemED2Ev
.Lfunc_end72:
	.cfi_endproc

	.section	.text._ZN9__gnu_cxx13new_allocatorIP12netlist_elemE10deallocateEPS2_m,"axG",@progbits,_ZN9__gnu_cxx13new_allocatorIP12netlist_elemE10deallocateEPS2_m,comdat
	.weak	_ZN9__gnu_cxx13new_allocatorIP12netlist_elemE10deallocateEPS2_m
	.align	16, 0x90
	.type	_ZN9__gnu_cxx13new_allocatorIP12netlist_elemE10deallocateEPS2_m,@function
_ZN9__gnu_cxx13new_allocatorIP12netlist_elemE10deallocateEPS2_m: # @_ZN9__gnu_cxx13new_allocatorIP12netlist_elemE10deallocateEPS2_m
	.cfi_startproc
.Lfunc_begin73:
	.loc	9 110 0                 # /usr/lib/gcc/x86_64-linux-gnu/4.8/../../../../include/c++/4.8/ext/new_allocator.h:110:0
# BB#0:                                 # %entry
	subq	$24, %rsp
.Ltmp568:
	.cfi_def_cfa_offset 32
	movq	%rdi, 16(%rsp)
	movq	%rsi, 8(%rsp)
	movq	%rdx, (%rsp)
	.loc	9 110 0 prologue_end    # /usr/lib/gcc/x86_64-linux-gnu/4.8/../../../../include/c++/4.8/ext/new_allocator.h:110:0
.Ltmp569:
	movq	8(%rsp), %rdi
	callq	_ZdlPv
	addq	$24, %rsp
	ret
.Ltmp570:
.Ltmp571:
	.size	_ZN9__gnu_cxx13new_allocatorIP12netlist_elemE10deallocateEPS2_m, .Ltmp571-_ZN9__gnu_cxx13new_allocatorIP12netlist_elemE10deallocateEPS2_m
.Lfunc_end73:
	.cfi_endproc

	.section	.text._ZSt8_DestroyIPP12netlist_elemEvT_S3_,"axG",@progbits,_ZSt8_DestroyIPP12netlist_elemEvT_S3_,comdat
	.weak	_ZSt8_DestroyIPP12netlist_elemEvT_S3_
	.align	16, 0x90
	.type	_ZSt8_DestroyIPP12netlist_elemEvT_S3_,@function
_ZSt8_DestroyIPP12netlist_elemEvT_S3_:  # @_ZSt8_DestroyIPP12netlist_elemEvT_S3_
	.cfi_startproc
.Lfunc_begin74:
	.loc	19 123 0                # /usr/lib/gcc/x86_64-linux-gnu/4.8/../../../../include/c++/4.8/bits/stl_construct.h:123:0
# BB#0:                                 # %entry
	subq	$24, %rsp
.Ltmp573:
	.cfi_def_cfa_offset 32
	movq	%rdi, 16(%rsp)
	movq	%rsi, 8(%rsp)
	.loc	19 126 0 prologue_end   # /usr/lib/gcc/x86_64-linux-gnu/4.8/../../../../include/c++/4.8/bits/stl_construct.h:126:0
.Ltmp574:
	movq	16(%rsp), %rdi
	callq	_ZNSt12_Destroy_auxILb1EE9__destroyIPP12netlist_elemEEvT_S5_
	.loc	19 128 0                # /usr/lib/gcc/x86_64-linux-gnu/4.8/../../../../include/c++/4.8/bits/stl_construct.h:128:0
	addq	$24, %rsp
	ret
.Ltmp575:
.Ltmp576:
	.size	_ZSt8_DestroyIPP12netlist_elemEvT_S3_, .Ltmp576-_ZSt8_DestroyIPP12netlist_elemEvT_S3_
.Lfunc_end74:
	.cfi_endproc

	.section	.text._ZNSt12_Destroy_auxILb1EE9__destroyIPP12netlist_elemEEvT_S5_,"axG",@progbits,_ZNSt12_Destroy_auxILb1EE9__destroyIPP12netlist_elemEEvT_S5_,comdat
	.weak	_ZNSt12_Destroy_auxILb1EE9__destroyIPP12netlist_elemEEvT_S5_
	.align	16, 0x90
	.type	_ZNSt12_Destroy_auxILb1EE9__destroyIPP12netlist_elemEEvT_S5_,@function
_ZNSt12_Destroy_auxILb1EE9__destroyIPP12netlist_elemEEvT_S5_: # @_ZNSt12_Destroy_auxILb1EE9__destroyIPP12netlist_elemEEvT_S5_
	.cfi_startproc
.Lfunc_begin75:
	.loc	19 112 0                # /usr/lib/gcc/x86_64-linux-gnu/4.8/../../../../include/c++/4.8/bits/stl_construct.h:112:0
# BB#0:                                 # %entry
	movq	%rdi, -8(%rsp)
	movq	%rsi, -16(%rsp)
	.loc	19 112 0 prologue_end   # /usr/lib/gcc/x86_64-linux-gnu/4.8/../../../../include/c++/4.8/bits/stl_construct.h:112:0
.Ltmp577:
	ret
.Ltmp578:
.Ltmp579:
	.size	_ZNSt12_Destroy_auxILb1EE9__destroyIPP12netlist_elemEEvT_S5_, .Ltmp579-_ZNSt12_Destroy_auxILb1EE9__destroyIPP12netlist_elemEEvT_S5_
.Lfunc_end75:
	.cfi_endproc

	.section	.text._ZNSt6vectorIS_I10location_tSaIS0_EESaIS2_EED2Ev,"axG",@progbits,_ZNSt6vectorIS_I10location_tSaIS0_EESaIS2_EED2Ev,comdat
	.weak	_ZNSt6vectorIS_I10location_tSaIS0_EESaIS2_EED2Ev
	.align	16, 0x90
	.type	_ZNSt6vectorIS_I10location_tSaIS0_EESaIS2_EED2Ev,@function
_ZNSt6vectorIS_I10location_tSaIS0_EESaIS2_EED2Ev: # @_ZNSt6vectorIS_I10location_tSaIS0_EESaIS2_EED2Ev
	.cfi_startproc
	.cfi_personality 3, __gxx_personality_v0
.Leh_func_begin76:
	.cfi_lsda 3, .Lexception76
.Lfunc_begin76:
	.loc	17 415 0                # /usr/lib/gcc/x86_64-linux-gnu/4.8/../../../../include/c++/4.8/bits/stl_vector.h:415:0
# BB#0:                                 # %entry
	pushq	%r15
.Ltmp592:
	.cfi_def_cfa_offset 16
	pushq	%r14
.Ltmp593:
	.cfi_def_cfa_offset 24
	pushq	%rbx
.Ltmp594:
	.cfi_def_cfa_offset 32
	subq	$32, %rsp
.Ltmp595:
	.cfi_def_cfa_offset 64
.Ltmp596:
	.cfi_offset %rbx, -32
.Ltmp597:
	.cfi_offset %r14, -24
.Ltmp598:
	.cfi_offset %r15, -16
	movq	%rdi, %rbx
	movq	%rbx, 24(%rsp)
	.loc	17 415 0 prologue_end   # /usr/lib/gcc/x86_64-linux-gnu/4.8/../../../../include/c++/4.8/bits/stl_vector.h:415:0
.Ltmp599:
	movq	(%rbx), %r14
	movq	8(%rbx), %r15
	.loc	17 416 0                # /usr/lib/gcc/x86_64-linux-gnu/4.8/../../../../include/c++/4.8/bits/stl_vector.h:416:0
.Ltmp580:
	callq	_ZNSt12_Vector_baseISt6vectorI10location_tSaIS1_EESaIS3_EE19_M_get_Tp_allocatorEv
.Ltmp581:
# BB#1:                                 # %invoke.cont
.Ltmp582:
	movq	%r14, %rdi
	movq	%r15, %rsi
	movq	%rax, %rdx
	callq	_ZSt8_DestroyIPSt6vectorI10location_tSaIS1_EES3_EvT_S5_RSaIT0_E
.Ltmp583:
# BB#2:                                 # %invoke.cont3
	movq	%rbx, %rdi
	callq	_ZNSt12_Vector_baseISt6vectorI10location_tSaIS1_EESaIS3_EED2Ev
	addq	$32, %rsp
	popq	%rbx
	popq	%r14
	popq	%r15
	ret
.LBB76_3:                               # %lpad
.Ltmp584:
	movq	%rax, 16(%rsp)
	movl	%edx, 12(%rsp)
.Ltmp585:
	movq	%rbx, %rdi
	callq	_ZNSt12_Vector_baseISt6vectorI10location_tSaIS1_EESaIS3_EED2Ev
.Ltmp586:
# BB#4:                                 # %eh.resume
	movq	16(%rsp), %rdi
	callq	_Unwind_Resume
.LBB76_5:                               # %terminate.lpad
.Ltmp587:
	callq	_ZSt9terminatev
.Ltmp600:
.Ltmp601:
	.size	_ZNSt6vectorIS_I10location_tSaIS0_EESaIS2_EED2Ev, .Ltmp601-_ZNSt6vectorIS_I10location_tSaIS0_EESaIS2_EED2Ev
.Lfunc_end76:
	.cfi_endproc
.Leh_func_end76:
	.section	.gcc_except_table,"a",@progbits
	.align	4
GCC_except_table76:
.Lexception76:
	.byte	255                     # @LPStart Encoding = omit
	.byte	3                       # @TType Encoding = udata4
	.asciz	 "\274"                 # @TType base offset
	.byte	3                       # Call site Encoding = udata4
	.byte	52                      # Call site table length
.Lset127 = .Ltmp580-.Leh_func_begin76   # >> Call Site 1 <<
	.long	.Lset127
.Lset128 = .Ltmp583-.Ltmp580            #   Call between .Ltmp580 and .Ltmp583
	.long	.Lset128
.Lset129 = .Ltmp584-.Leh_func_begin76   #     jumps to .Ltmp584
	.long	.Lset129
	.byte	0                       #   On action: cleanup
.Lset130 = .Ltmp583-.Leh_func_begin76   # >> Call Site 2 <<
	.long	.Lset130
.Lset131 = .Ltmp585-.Ltmp583            #   Call between .Ltmp583 and .Ltmp585
	.long	.Lset131
	.long	0                       #     has no landing pad
	.byte	0                       #   On action: cleanup
.Lset132 = .Ltmp585-.Leh_func_begin76   # >> Call Site 3 <<
	.long	.Lset132
.Lset133 = .Ltmp586-.Ltmp585            #   Call between .Ltmp585 and .Ltmp586
	.long	.Lset133
.Lset134 = .Ltmp587-.Leh_func_begin76   #     jumps to .Ltmp587
	.long	.Lset134
	.byte	1                       #   On action: 1
.Lset135 = .Ltmp586-.Leh_func_begin76   # >> Call Site 4 <<
	.long	.Lset135
.Lset136 = .Leh_func_end76-.Ltmp586     #   Call between .Ltmp586 and .Leh_func_end76
	.long	.Lset136
	.long	0                       #     has no landing pad
	.byte	0                       #   On action: cleanup
	.byte	1                       # >> Action Record 1 <<
                                        #   Catch TypeInfo 1
	.byte	0                       #   No further actions
                                        # >> Catch TypeInfos <<
	.long	0                       # TypeInfo 1
	.align	4

	.section	.text._ZSt8_DestroyIPSt6vectorI10location_tSaIS1_EES3_EvT_S5_RSaIT0_E,"axG",@progbits,_ZSt8_DestroyIPSt6vectorI10location_tSaIS1_EES3_EvT_S5_RSaIT0_E,comdat
	.weak	_ZSt8_DestroyIPSt6vectorI10location_tSaIS1_EES3_EvT_S5_RSaIT0_E
	.align	16, 0x90
	.type	_ZSt8_DestroyIPSt6vectorI10location_tSaIS1_EES3_EvT_S5_RSaIT0_E,@function
_ZSt8_DestroyIPSt6vectorI10location_tSaIS1_EES3_EvT_S5_RSaIT0_E: # @_ZSt8_DestroyIPSt6vectorI10location_tSaIS1_EES3_EvT_S5_RSaIT0_E
	.cfi_startproc
.Lfunc_begin77:
	.loc	19 150 0                # /usr/lib/gcc/x86_64-linux-gnu/4.8/../../../../include/c++/4.8/bits/stl_construct.h:150:0
# BB#0:                                 # %entry
	subq	$24, %rsp
.Ltmp603:
	.cfi_def_cfa_offset 32
	movq	%rdi, 16(%rsp)
	movq	%rsi, 8(%rsp)
	movq	%rdx, (%rsp)
	.loc	19 151 0 prologue_end   # /usr/lib/gcc/x86_64-linux-gnu/4.8/../../../../include/c++/4.8/bits/stl_construct.h:151:0
.Ltmp604:
	movq	8(%rsp), %rsi
	movq	16(%rsp), %rdi
	callq	_ZSt8_DestroyIPSt6vectorI10location_tSaIS1_EEEvT_S5_
	.loc	19 152 0                # /usr/lib/gcc/x86_64-linux-gnu/4.8/../../../../include/c++/4.8/bits/stl_construct.h:152:0
	addq	$24, %rsp
	ret
.Ltmp605:
.Ltmp606:
	.size	_ZSt8_DestroyIPSt6vectorI10location_tSaIS1_EES3_EvT_S5_RSaIT0_E, .Ltmp606-_ZSt8_DestroyIPSt6vectorI10location_tSaIS1_EES3_EvT_S5_RSaIT0_E
.Lfunc_end77:
	.cfi_endproc

	.section	.text._ZNSt12_Vector_baseISt6vectorI10location_tSaIS1_EESaIS3_EE19_M_get_Tp_allocatorEv,"axG",@progbits,_ZNSt12_Vector_baseISt6vectorI10location_tSaIS1_EESaIS3_EE19_M_get_Tp_allocatorEv,comdat
	.weak	_ZNSt12_Vector_baseISt6vectorI10location_tSaIS1_EESaIS3_EE19_M_get_Tp_allocatorEv
	.align	16, 0x90
	.type	_ZNSt12_Vector_baseISt6vectorI10location_tSaIS1_EESaIS3_EE19_M_get_Tp_allocatorEv,@function
_ZNSt12_Vector_baseISt6vectorI10location_tSaIS1_EESaIS3_EE19_M_get_Tp_allocatorEv: # @_ZNSt12_Vector_baseISt6vectorI10location_tSaIS1_EESaIS3_EE19_M_get_Tp_allocatorEv
	.cfi_startproc
.Lfunc_begin78:
	.loc	17 114 0                # /usr/lib/gcc/x86_64-linux-gnu/4.8/../../../../include/c++/4.8/bits/stl_vector.h:114:0
# BB#0:                                 # %entry
	movq	%rdi, -8(%rsp)
	.loc	17 114 0 prologue_end   # /usr/lib/gcc/x86_64-linux-gnu/4.8/../../../../include/c++/4.8/bits/stl_vector.h:114:0
.Ltmp607:
	movq	%rdi, %rax
	ret
.Ltmp608:
.Ltmp609:
	.size	_ZNSt12_Vector_baseISt6vectorI10location_tSaIS1_EESaIS3_EE19_M_get_Tp_allocatorEv, .Ltmp609-_ZNSt12_Vector_baseISt6vectorI10location_tSaIS1_EESaIS3_EE19_M_get_Tp_allocatorEv
.Lfunc_end78:
	.cfi_endproc

	.section	.text._ZNSt12_Vector_baseISt6vectorI10location_tSaIS1_EESaIS3_EED2Ev,"axG",@progbits,_ZNSt12_Vector_baseISt6vectorI10location_tSaIS1_EESaIS3_EED2Ev,comdat
	.weak	_ZNSt12_Vector_baseISt6vectorI10location_tSaIS1_EESaIS3_EED2Ev
	.align	16, 0x90
	.type	_ZNSt12_Vector_baseISt6vectorI10location_tSaIS1_EESaIS3_EED2Ev,@function
_ZNSt12_Vector_baseISt6vectorI10location_tSaIS1_EESaIS3_EED2Ev: # @_ZNSt12_Vector_baseISt6vectorI10location_tSaIS1_EESaIS3_EED2Ev
	.cfi_startproc
	.cfi_personality 3, __gxx_personality_v0
.Leh_func_begin79:
	.cfi_lsda 3, .Lexception79
.Lfunc_begin79:
	.loc	17 160 0                # /usr/lib/gcc/x86_64-linux-gnu/4.8/../../../../include/c++/4.8/bits/stl_vector.h:160:0
# BB#0:                                 # %entry
	pushq	%rbx
.Ltmp615:
	.cfi_def_cfa_offset 16
	subq	$32, %rsp
.Ltmp616:
	.cfi_def_cfa_offset 48
.Ltmp617:
	.cfi_offset %rbx, -16
	movq	%rdi, %rbx
	movq	%rbx, 24(%rsp)
	.loc	17 160 0 prologue_end   # /usr/lib/gcc/x86_64-linux-gnu/4.8/../../../../include/c++/4.8/bits/stl_vector.h:160:0
.Ltmp618:
	movq	(%rbx), %rsi
	movq	16(%rbx), %rax
	subq	%rsi, %rax
	sarq	$3, %rax
	movabsq	$-6148914691236517205, %rdx # imm = 0xAAAAAAAAAAAAAAAB
	imulq	%rax, %rdx
.Ltmp610:
	callq	_ZNSt12_Vector_baseISt6vectorI10location_tSaIS1_EESaIS3_EE13_M_deallocateEPS3_m
.Ltmp611:
# BB#1:                                 # %invoke.cont
	.loc	17 161 0                # /usr/lib/gcc/x86_64-linux-gnu/4.8/../../../../include/c++/4.8/bits/stl_vector.h:161:0
	movq	%rbx, %rdi
	callq	_ZNSt12_Vector_baseISt6vectorI10location_tSaIS1_EESaIS3_EE12_Vector_implD1Ev
	addq	$32, %rsp
	popq	%rbx
	ret
.LBB79_2:                               # %eh.resume
.Ltmp612:
	.loc	17 160 0                # /usr/lib/gcc/x86_64-linux-gnu/4.8/../../../../include/c++/4.8/bits/stl_vector.h:160:0
	movq	%rax, 16(%rsp)
	movl	%edx, 12(%rsp)
	.loc	17 161 0                # /usr/lib/gcc/x86_64-linux-gnu/4.8/../../../../include/c++/4.8/bits/stl_vector.h:161:0
	movq	%rbx, %rdi
	callq	_ZNSt12_Vector_baseISt6vectorI10location_tSaIS1_EESaIS3_EE12_Vector_implD1Ev
	movq	16(%rsp), %rdi
	callq	_Unwind_Resume
.Ltmp619:
.Ltmp620:
	.size	_ZNSt12_Vector_baseISt6vectorI10location_tSaIS1_EESaIS3_EED2Ev, .Ltmp620-_ZNSt12_Vector_baseISt6vectorI10location_tSaIS1_EESaIS3_EED2Ev
.Lfunc_end79:
	.cfi_endproc
.Leh_func_end79:
	.section	.gcc_except_table,"a",@progbits
	.align	4
GCC_except_table79:
.Lexception79:
	.byte	255                     # @LPStart Encoding = omit
	.byte	3                       # @TType Encoding = udata4
	.asciz	 "\234"                 # @TType base offset
	.byte	3                       # Call site Encoding = udata4
	.byte	26                      # Call site table length
.Lset137 = .Ltmp610-.Leh_func_begin79   # >> Call Site 1 <<
	.long	.Lset137
.Lset138 = .Ltmp611-.Ltmp610            #   Call between .Ltmp610 and .Ltmp611
	.long	.Lset138
.Lset139 = .Ltmp612-.Leh_func_begin79   #     jumps to .Ltmp612
	.long	.Lset139
	.byte	0                       #   On action: cleanup
.Lset140 = .Ltmp611-.Leh_func_begin79   # >> Call Site 2 <<
	.long	.Lset140
.Lset141 = .Leh_func_end79-.Ltmp611     #   Call between .Ltmp611 and .Leh_func_end79
	.long	.Lset141
	.long	0                       #     has no landing pad
	.byte	0                       #   On action: cleanup
	.align	4

	.section	.text._ZNSt12_Vector_baseISt6vectorI10location_tSaIS1_EESaIS3_EE13_M_deallocateEPS3_m,"axG",@progbits,_ZNSt12_Vector_baseISt6vectorI10location_tSaIS1_EESaIS3_EE13_M_deallocateEPS3_m,comdat
	.weak	_ZNSt12_Vector_baseISt6vectorI10location_tSaIS1_EESaIS3_EE13_M_deallocateEPS3_m
	.align	16, 0x90
	.type	_ZNSt12_Vector_baseISt6vectorI10location_tSaIS1_EESaIS3_EE13_M_deallocateEPS3_m,@function
_ZNSt12_Vector_baseISt6vectorI10location_tSaIS1_EESaIS3_EE13_M_deallocateEPS3_m: # @_ZNSt12_Vector_baseISt6vectorI10location_tSaIS1_EESaIS3_EE13_M_deallocateEPS3_m
	.cfi_startproc
.Lfunc_begin80:
	.loc	17 172 0                # /usr/lib/gcc/x86_64-linux-gnu/4.8/../../../../include/c++/4.8/bits/stl_vector.h:172:0
# BB#0:                                 # %entry
	subq	$24, %rsp
.Ltmp622:
	.cfi_def_cfa_offset 32
	movq	%rdi, 16(%rsp)
	movq	%rsi, 8(%rsp)
	movq	%rdx, (%rsp)
	.loc	17 173 0 prologue_end   # /usr/lib/gcc/x86_64-linux-gnu/4.8/../../../../include/c++/4.8/bits/stl_vector.h:173:0
.Ltmp623:
	cmpq	$0, 8(%rsp)
	je	.LBB80_2
# BB#1:                                 # %if.then
	movq	16(%rsp), %rdi
	.loc	17 174 0                # /usr/lib/gcc/x86_64-linux-gnu/4.8/../../../../include/c++/4.8/bits/stl_vector.h:174:0
	movq	(%rsp), %rdx
	movq	8(%rsp), %rsi
	callq	_ZN9__gnu_cxx13new_allocatorISt6vectorI10location_tSaIS2_EEE10deallocateEPS4_m
.LBB80_2:                               # %if.end
	.loc	17 175 0                # /usr/lib/gcc/x86_64-linux-gnu/4.8/../../../../include/c++/4.8/bits/stl_vector.h:175:0
	addq	$24, %rsp
	ret
.Ltmp624:
.Ltmp625:
	.size	_ZNSt12_Vector_baseISt6vectorI10location_tSaIS1_EESaIS3_EE13_M_deallocateEPS3_m, .Ltmp625-_ZNSt12_Vector_baseISt6vectorI10location_tSaIS1_EESaIS3_EE13_M_deallocateEPS3_m
.Lfunc_end80:
	.cfi_endproc

	.section	.text._ZNSt12_Vector_baseISt6vectorI10location_tSaIS1_EESaIS3_EE12_Vector_implD1Ev,"axG",@progbits,_ZNSt12_Vector_baseISt6vectorI10location_tSaIS1_EESaIS3_EE12_Vector_implD1Ev,comdat
	.weak	_ZNSt12_Vector_baseISt6vectorI10location_tSaIS1_EESaIS3_EE12_Vector_implD1Ev
	.align	16, 0x90
	.type	_ZNSt12_Vector_baseISt6vectorI10location_tSaIS1_EESaIS3_EE12_Vector_implD1Ev,@function
_ZNSt12_Vector_baseISt6vectorI10location_tSaIS1_EESaIS3_EE12_Vector_implD1Ev: # @_ZNSt12_Vector_baseISt6vectorI10location_tSaIS1_EESaIS3_EE12_Vector_implD1Ev
	.cfi_startproc
.Lfunc_begin81:
	.loc	17 79 0                 # /usr/lib/gcc/x86_64-linux-gnu/4.8/../../../../include/c++/4.8/bits/stl_vector.h:79:0
# BB#0:                                 # %entry
	pushq	%rax
.Ltmp627:
	.cfi_def_cfa_offset 16
	movq	%rdi, (%rsp)
	.loc	17 79 0 prologue_end    # /usr/lib/gcc/x86_64-linux-gnu/4.8/../../../../include/c++/4.8/bits/stl_vector.h:79:0
.Ltmp628:
	callq	_ZNSt12_Vector_baseISt6vectorI10location_tSaIS1_EESaIS3_EE12_Vector_implD2Ev
	popq	%rax
	ret
.Ltmp629:
.Ltmp630:
	.size	_ZNSt12_Vector_baseISt6vectorI10location_tSaIS1_EESaIS3_EE12_Vector_implD1Ev, .Ltmp630-_ZNSt12_Vector_baseISt6vectorI10location_tSaIS1_EESaIS3_EE12_Vector_implD1Ev
.Lfunc_end81:
	.cfi_endproc

	.section	.text._ZNSt12_Vector_baseISt6vectorI10location_tSaIS1_EESaIS3_EE12_Vector_implD2Ev,"axG",@progbits,_ZNSt12_Vector_baseISt6vectorI10location_tSaIS1_EESaIS3_EE12_Vector_implD2Ev,comdat
	.weak	_ZNSt12_Vector_baseISt6vectorI10location_tSaIS1_EESaIS3_EE12_Vector_implD2Ev
	.align	16, 0x90
	.type	_ZNSt12_Vector_baseISt6vectorI10location_tSaIS1_EESaIS3_EE12_Vector_implD2Ev,@function
_ZNSt12_Vector_baseISt6vectorI10location_tSaIS1_EESaIS3_EE12_Vector_implD2Ev: # @_ZNSt12_Vector_baseISt6vectorI10location_tSaIS1_EESaIS3_EE12_Vector_implD2Ev
	.cfi_startproc
.Lfunc_begin82:
	.loc	17 79 0                 # /usr/lib/gcc/x86_64-linux-gnu/4.8/../../../../include/c++/4.8/bits/stl_vector.h:79:0
# BB#0:                                 # %entry
	pushq	%rax
.Ltmp632:
	.cfi_def_cfa_offset 16
	movq	%rdi, (%rsp)
	.loc	17 79 0 prologue_end    # /usr/lib/gcc/x86_64-linux-gnu/4.8/../../../../include/c++/4.8/bits/stl_vector.h:79:0
.Ltmp633:
	callq	_ZNSaISt6vectorI10location_tSaIS0_EEED2Ev
	popq	%rax
	ret
.Ltmp634:
.Ltmp635:
	.size	_ZNSt12_Vector_baseISt6vectorI10location_tSaIS1_EESaIS3_EE12_Vector_implD2Ev, .Ltmp635-_ZNSt12_Vector_baseISt6vectorI10location_tSaIS1_EESaIS3_EE12_Vector_implD2Ev
.Lfunc_end82:
	.cfi_endproc

	.section	.text._ZNSaISt6vectorI10location_tSaIS0_EEED2Ev,"axG",@progbits,_ZNSaISt6vectorI10location_tSaIS0_EEED2Ev,comdat
	.weak	_ZNSaISt6vectorI10location_tSaIS0_EEED2Ev
	.align	16, 0x90
	.type	_ZNSaISt6vectorI10location_tSaIS0_EEED2Ev,@function
_ZNSaISt6vectorI10location_tSaIS0_EEED2Ev: # @_ZNSaISt6vectorI10location_tSaIS0_EEED2Ev
	.cfi_startproc
.Lfunc_begin83:
	.loc	10 121 0                # /usr/lib/gcc/x86_64-linux-gnu/4.8/../../../../include/c++/4.8/bits/allocator.h:121:0
# BB#0:                                 # %entry
	pushq	%rax
.Ltmp637:
	.cfi_def_cfa_offset 16
	movq	%rdi, (%rsp)
	.loc	10 121 0 prologue_end   # /usr/lib/gcc/x86_64-linux-gnu/4.8/../../../../include/c++/4.8/bits/allocator.h:121:0
.Ltmp638:
	callq	_ZN9__gnu_cxx13new_allocatorISt6vectorI10location_tSaIS2_EEED2Ev
	popq	%rax
	ret
.Ltmp639:
.Ltmp640:
	.size	_ZNSaISt6vectorI10location_tSaIS0_EEED2Ev, .Ltmp640-_ZNSaISt6vectorI10location_tSaIS0_EEED2Ev
.Lfunc_end83:
	.cfi_endproc

	.section	.text._ZN9__gnu_cxx13new_allocatorISt6vectorI10location_tSaIS2_EEED2Ev,"axG",@progbits,_ZN9__gnu_cxx13new_allocatorISt6vectorI10location_tSaIS2_EEED2Ev,comdat
	.weak	_ZN9__gnu_cxx13new_allocatorISt6vectorI10location_tSaIS2_EEED2Ev
	.align	16, 0x90
	.type	_ZN9__gnu_cxx13new_allocatorISt6vectorI10location_tSaIS2_EEED2Ev,@function
_ZN9__gnu_cxx13new_allocatorISt6vectorI10location_tSaIS2_EEED2Ev: # @_ZN9__gnu_cxx13new_allocatorISt6vectorI10location_tSaIS2_EEED2Ev
	.cfi_startproc
.Lfunc_begin84:
	.loc	9 86 0                  # /usr/lib/gcc/x86_64-linux-gnu/4.8/../../../../include/c++/4.8/ext/new_allocator.h:86:0
# BB#0:                                 # %entry
	movq	%rdi, -8(%rsp)
	.loc	9 86 0 prologue_end     # /usr/lib/gcc/x86_64-linux-gnu/4.8/../../../../include/c++/4.8/ext/new_allocator.h:86:0
.Ltmp641:
	ret
.Ltmp642:
.Ltmp643:
	.size	_ZN9__gnu_cxx13new_allocatorISt6vectorI10location_tSaIS2_EEED2Ev, .Ltmp643-_ZN9__gnu_cxx13new_allocatorISt6vectorI10location_tSaIS2_EEED2Ev
.Lfunc_end84:
	.cfi_endproc

	.section	.text._ZN9__gnu_cxx13new_allocatorISt6vectorI10location_tSaIS2_EEE10deallocateEPS4_m,"axG",@progbits,_ZN9__gnu_cxx13new_allocatorISt6vectorI10location_tSaIS2_EEE10deallocateEPS4_m,comdat
	.weak	_ZN9__gnu_cxx13new_allocatorISt6vectorI10location_tSaIS2_EEE10deallocateEPS4_m
	.align	16, 0x90
	.type	_ZN9__gnu_cxx13new_allocatorISt6vectorI10location_tSaIS2_EEE10deallocateEPS4_m,@function
_ZN9__gnu_cxx13new_allocatorISt6vectorI10location_tSaIS2_EEE10deallocateEPS4_m: # @_ZN9__gnu_cxx13new_allocatorISt6vectorI10location_tSaIS2_EEE10deallocateEPS4_m
	.cfi_startproc
.Lfunc_begin85:
	.loc	9 110 0                 # /usr/lib/gcc/x86_64-linux-gnu/4.8/../../../../include/c++/4.8/ext/new_allocator.h:110:0
# BB#0:                                 # %entry
	subq	$24, %rsp
.Ltmp645:
	.cfi_def_cfa_offset 32
	movq	%rdi, 16(%rsp)
	movq	%rsi, 8(%rsp)
	movq	%rdx, (%rsp)
	.loc	9 110 0 prologue_end    # /usr/lib/gcc/x86_64-linux-gnu/4.8/../../../../include/c++/4.8/ext/new_allocator.h:110:0
.Ltmp646:
	movq	8(%rsp), %rdi
	callq	_ZdlPv
	addq	$24, %rsp
	ret
.Ltmp647:
.Ltmp648:
	.size	_ZN9__gnu_cxx13new_allocatorISt6vectorI10location_tSaIS2_EEE10deallocateEPS4_m, .Ltmp648-_ZN9__gnu_cxx13new_allocatorISt6vectorI10location_tSaIS2_EEE10deallocateEPS4_m
.Lfunc_end85:
	.cfi_endproc

	.section	.text._ZSt8_DestroyIPSt6vectorI10location_tSaIS1_EEEvT_S5_,"axG",@progbits,_ZSt8_DestroyIPSt6vectorI10location_tSaIS1_EEEvT_S5_,comdat
	.weak	_ZSt8_DestroyIPSt6vectorI10location_tSaIS1_EEEvT_S5_
	.align	16, 0x90
	.type	_ZSt8_DestroyIPSt6vectorI10location_tSaIS1_EEEvT_S5_,@function
_ZSt8_DestroyIPSt6vectorI10location_tSaIS1_EEEvT_S5_: # @_ZSt8_DestroyIPSt6vectorI10location_tSaIS1_EEEvT_S5_
	.cfi_startproc
.Lfunc_begin86:
	.loc	19 123 0                # /usr/lib/gcc/x86_64-linux-gnu/4.8/../../../../include/c++/4.8/bits/stl_construct.h:123:0
# BB#0:                                 # %entry
	subq	$24, %rsp
.Ltmp650:
	.cfi_def_cfa_offset 32
	movq	%rdi, 16(%rsp)
	movq	%rsi, 8(%rsp)
	.loc	19 126 0 prologue_end   # /usr/lib/gcc/x86_64-linux-gnu/4.8/../../../../include/c++/4.8/bits/stl_construct.h:126:0
.Ltmp651:
	movq	16(%rsp), %rdi
	callq	_ZNSt12_Destroy_auxILb0EE9__destroyIPSt6vectorI10location_tSaIS3_EEEEvT_S7_
	.loc	19 128 0                # /usr/lib/gcc/x86_64-linux-gnu/4.8/../../../../include/c++/4.8/bits/stl_construct.h:128:0
	addq	$24, %rsp
	ret
.Ltmp652:
.Ltmp653:
	.size	_ZSt8_DestroyIPSt6vectorI10location_tSaIS1_EEEvT_S5_, .Ltmp653-_ZSt8_DestroyIPSt6vectorI10location_tSaIS1_EEEvT_S5_
.Lfunc_end86:
	.cfi_endproc

	.section	.text._ZNSt12_Destroy_auxILb0EE9__destroyIPSt6vectorI10location_tSaIS3_EEEEvT_S7_,"axG",@progbits,_ZNSt12_Destroy_auxILb0EE9__destroyIPSt6vectorI10location_tSaIS3_EEEEvT_S7_,comdat
	.weak	_ZNSt12_Destroy_auxILb0EE9__destroyIPSt6vectorI10location_tSaIS3_EEEEvT_S7_
	.align	16, 0x90
	.type	_ZNSt12_Destroy_auxILb0EE9__destroyIPSt6vectorI10location_tSaIS3_EEEEvT_S7_,@function
_ZNSt12_Destroy_auxILb0EE9__destroyIPSt6vectorI10location_tSaIS3_EEEEvT_S7_: # @_ZNSt12_Destroy_auxILb0EE9__destroyIPSt6vectorI10location_tSaIS3_EEEEvT_S7_
	.cfi_startproc
.Lfunc_begin87:
	.loc	19 101 0                # /usr/lib/gcc/x86_64-linux-gnu/4.8/../../../../include/c++/4.8/bits/stl_construct.h:101:0
# BB#0:                                 # %entry
	subq	$24, %rsp
.Ltmp655:
	.cfi_def_cfa_offset 32
	movq	%rdi, 16(%rsp)
	movq	%rsi, 8(%rsp)
	jmp	.LBB87_1
	.align	16, 0x90
.LBB87_2:                               # %for.body
                                        #   in Loop: Header=BB87_1 Depth=1
	.loc	19 103 0 prologue_end   # /usr/lib/gcc/x86_64-linux-gnu/4.8/../../../../include/c++/4.8/bits/stl_construct.h:103:0
.Ltmp656:
	movq	16(%rsp), %rdi
	callq	_ZSt11__addressofISt6vectorI10location_tSaIS1_EEEPT_RS4_
	movq	%rax, %rdi
	callq	_ZSt8_DestroyISt6vectorI10location_tSaIS1_EEEvPT_
	.loc	19 102 0                # /usr/lib/gcc/x86_64-linux-gnu/4.8/../../../../include/c++/4.8/bits/stl_construct.h:102:0
	addq	$24, 16(%rsp)
.LBB87_1:                               # %for.cond
                                        # =>This Inner Loop Header: Depth=1
	movq	16(%rsp), %rax
	cmpq	8(%rsp), %rax
	jne	.LBB87_2
.Ltmp657:
# BB#3:                                 # %for.end
	.loc	19 104 0                # /usr/lib/gcc/x86_64-linux-gnu/4.8/../../../../include/c++/4.8/bits/stl_construct.h:104:0
	addq	$24, %rsp
	ret
.Ltmp658:
.Ltmp659:
	.size	_ZNSt12_Destroy_auxILb0EE9__destroyIPSt6vectorI10location_tSaIS3_EEEEvT_S7_, .Ltmp659-_ZNSt12_Destroy_auxILb0EE9__destroyIPSt6vectorI10location_tSaIS3_EEEEvT_S7_
.Lfunc_end87:
	.cfi_endproc

	.section	.text._ZSt8_DestroyISt6vectorI10location_tSaIS1_EEEvPT_,"axG",@progbits,_ZSt8_DestroyISt6vectorI10location_tSaIS1_EEEvPT_,comdat
	.weak	_ZSt8_DestroyISt6vectorI10location_tSaIS1_EEEvPT_
	.align	16, 0x90
	.type	_ZSt8_DestroyISt6vectorI10location_tSaIS1_EEEvPT_,@function
_ZSt8_DestroyISt6vectorI10location_tSaIS1_EEEvPT_: # @_ZSt8_DestroyISt6vectorI10location_tSaIS1_EEEvPT_
	.cfi_startproc
.Lfunc_begin88:
	.loc	19 93 0                 # /usr/lib/gcc/x86_64-linux-gnu/4.8/../../../../include/c++/4.8/bits/stl_construct.h:93:0
# BB#0:                                 # %entry
	pushq	%rax
.Ltmp661:
	.cfi_def_cfa_offset 16
	movq	%rdi, (%rsp)
	.loc	19 93 0 prologue_end    # /usr/lib/gcc/x86_64-linux-gnu/4.8/../../../../include/c++/4.8/bits/stl_construct.h:93:0
.Ltmp662:
	callq	_ZNSt6vectorI10location_tSaIS0_EED1Ev
	popq	%rax
	ret
.Ltmp663:
.Ltmp664:
	.size	_ZSt8_DestroyISt6vectorI10location_tSaIS1_EEEvPT_, .Ltmp664-_ZSt8_DestroyISt6vectorI10location_tSaIS1_EEEvPT_
.Lfunc_end88:
	.cfi_endproc

	.section	.text._ZSt11__addressofISt6vectorI10location_tSaIS1_EEEPT_RS4_,"axG",@progbits,_ZSt11__addressofISt6vectorI10location_tSaIS1_EEEPT_RS4_,comdat
	.weak	_ZSt11__addressofISt6vectorI10location_tSaIS1_EEEPT_RS4_
	.align	16, 0x90
	.type	_ZSt11__addressofISt6vectorI10location_tSaIS1_EEEPT_RS4_,@function
_ZSt11__addressofISt6vectorI10location_tSaIS1_EEEPT_RS4_: # @_ZSt11__addressofISt6vectorI10location_tSaIS1_EEEPT_RS4_
	.cfi_startproc
.Lfunc_begin89:
	.loc	32 48 0                 # /usr/lib/gcc/x86_64-linux-gnu/4.8/../../../../include/c++/4.8/bits/move.h:48:0
# BB#0:                                 # %entry
	movq	%rdi, -8(%rsp)
	.loc	32 49 0 prologue_end    # /usr/lib/gcc/x86_64-linux-gnu/4.8/../../../../include/c++/4.8/bits/move.h:49:0
.Ltmp665:
	movq	%rdi, %rax
	ret
.Ltmp666:
.Ltmp667:
	.size	_ZSt11__addressofISt6vectorI10location_tSaIS1_EEEPT_RS4_, .Ltmp667-_ZSt11__addressofISt6vectorI10location_tSaIS1_EEEPT_RS4_
.Lfunc_end89:
	.cfi_endproc

	.section	.text._ZNSt6vectorI10location_tSaIS0_EED1Ev,"axG",@progbits,_ZNSt6vectorI10location_tSaIS0_EED1Ev,comdat
	.weak	_ZNSt6vectorI10location_tSaIS0_EED1Ev
	.align	16, 0x90
	.type	_ZNSt6vectorI10location_tSaIS0_EED1Ev,@function
_ZNSt6vectorI10location_tSaIS0_EED1Ev:  # @_ZNSt6vectorI10location_tSaIS0_EED1Ev
	.cfi_startproc
.Lfunc_begin90:
	.loc	17 415 0                # /usr/lib/gcc/x86_64-linux-gnu/4.8/../../../../include/c++/4.8/bits/stl_vector.h:415:0
# BB#0:                                 # %entry
	pushq	%rax
.Ltmp669:
	.cfi_def_cfa_offset 16
	movq	%rdi, (%rsp)
	.loc	17 415 0 prologue_end   # /usr/lib/gcc/x86_64-linux-gnu/4.8/../../../../include/c++/4.8/bits/stl_vector.h:415:0
.Ltmp670:
	callq	_ZNSt6vectorI10location_tSaIS0_EED2Ev
	.loc	17 416 0                # /usr/lib/gcc/x86_64-linux-gnu/4.8/../../../../include/c++/4.8/bits/stl_vector.h:416:0
	popq	%rax
	ret
.Ltmp671:
.Ltmp672:
	.size	_ZNSt6vectorI10location_tSaIS0_EED1Ev, .Ltmp672-_ZNSt6vectorI10location_tSaIS0_EED1Ev
.Lfunc_end90:
	.cfi_endproc

	.section	.text._ZNSt6vectorI10location_tSaIS0_EED2Ev,"axG",@progbits,_ZNSt6vectorI10location_tSaIS0_EED2Ev,comdat
	.weak	_ZNSt6vectorI10location_tSaIS0_EED2Ev
	.align	16, 0x90
	.type	_ZNSt6vectorI10location_tSaIS0_EED2Ev,@function
_ZNSt6vectorI10location_tSaIS0_EED2Ev:  # @_ZNSt6vectorI10location_tSaIS0_EED2Ev
	.cfi_startproc
	.cfi_personality 3, __gxx_personality_v0
.Leh_func_begin91:
	.cfi_lsda 3, .Lexception91
.Lfunc_begin91:
	.loc	17 415 0                # /usr/lib/gcc/x86_64-linux-gnu/4.8/../../../../include/c++/4.8/bits/stl_vector.h:415:0
# BB#0:                                 # %entry
	pushq	%r15
.Ltmp685:
	.cfi_def_cfa_offset 16
	pushq	%r14
.Ltmp686:
	.cfi_def_cfa_offset 24
	pushq	%rbx
.Ltmp687:
	.cfi_def_cfa_offset 32
	subq	$32, %rsp
.Ltmp688:
	.cfi_def_cfa_offset 64
.Ltmp689:
	.cfi_offset %rbx, -32
.Ltmp690:
	.cfi_offset %r14, -24
.Ltmp691:
	.cfi_offset %r15, -16
	movq	%rdi, %rbx
	movq	%rbx, 24(%rsp)
	.loc	17 415 0 prologue_end   # /usr/lib/gcc/x86_64-linux-gnu/4.8/../../../../include/c++/4.8/bits/stl_vector.h:415:0
.Ltmp692:
	movq	(%rbx), %r14
	movq	8(%rbx), %r15
	.loc	17 416 0                # /usr/lib/gcc/x86_64-linux-gnu/4.8/../../../../include/c++/4.8/bits/stl_vector.h:416:0
.Ltmp673:
	callq	_ZNSt12_Vector_baseI10location_tSaIS0_EE19_M_get_Tp_allocatorEv
.Ltmp674:
# BB#1:                                 # %invoke.cont
.Ltmp675:
	movq	%r14, %rdi
	movq	%r15, %rsi
	movq	%rax, %rdx
	callq	_ZSt8_DestroyIP10location_tS0_EvT_S2_RSaIT0_E
.Ltmp676:
# BB#2:                                 # %invoke.cont3
	movq	%rbx, %rdi
	callq	_ZNSt12_Vector_baseI10location_tSaIS0_EED2Ev
	addq	$32, %rsp
	popq	%rbx
	popq	%r14
	popq	%r15
	ret
.LBB91_3:                               # %lpad
.Ltmp677:
	movq	%rax, 16(%rsp)
	movl	%edx, 12(%rsp)
.Ltmp678:
	movq	%rbx, %rdi
	callq	_ZNSt12_Vector_baseI10location_tSaIS0_EED2Ev
.Ltmp679:
# BB#4:                                 # %eh.resume
	movq	16(%rsp), %rdi
	callq	_Unwind_Resume
.LBB91_5:                               # %terminate.lpad
.Ltmp680:
	callq	_ZSt9terminatev
.Ltmp693:
.Ltmp694:
	.size	_ZNSt6vectorI10location_tSaIS0_EED2Ev, .Ltmp694-_ZNSt6vectorI10location_tSaIS0_EED2Ev
.Lfunc_end91:
	.cfi_endproc
.Leh_func_end91:
	.section	.gcc_except_table,"a",@progbits
	.align	4
GCC_except_table91:
.Lexception91:
	.byte	255                     # @LPStart Encoding = omit
	.byte	3                       # @TType Encoding = udata4
	.asciz	 "\274"                 # @TType base offset
	.byte	3                       # Call site Encoding = udata4
	.byte	52                      # Call site table length
.Lset142 = .Ltmp673-.Leh_func_begin91   # >> Call Site 1 <<
	.long	.Lset142
.Lset143 = .Ltmp676-.Ltmp673            #   Call between .Ltmp673 and .Ltmp676
	.long	.Lset143
.Lset144 = .Ltmp677-.Leh_func_begin91   #     jumps to .Ltmp677
	.long	.Lset144
	.byte	0                       #   On action: cleanup
.Lset145 = .Ltmp676-.Leh_func_begin91   # >> Call Site 2 <<
	.long	.Lset145
.Lset146 = .Ltmp678-.Ltmp676            #   Call between .Ltmp676 and .Ltmp678
	.long	.Lset146
	.long	0                       #     has no landing pad
	.byte	0                       #   On action: cleanup
.Lset147 = .Ltmp678-.Leh_func_begin91   # >> Call Site 3 <<
	.long	.Lset147
.Lset148 = .Ltmp679-.Ltmp678            #   Call between .Ltmp678 and .Ltmp679
	.long	.Lset148
.Lset149 = .Ltmp680-.Leh_func_begin91   #     jumps to .Ltmp680
	.long	.Lset149
	.byte	1                       #   On action: 1
.Lset150 = .Ltmp679-.Leh_func_begin91   # >> Call Site 4 <<
	.long	.Lset150
.Lset151 = .Leh_func_end91-.Ltmp679     #   Call between .Ltmp679 and .Leh_func_end91
	.long	.Lset151
	.long	0                       #     has no landing pad
	.byte	0                       #   On action: cleanup
	.byte	1                       # >> Action Record 1 <<
                                        #   Catch TypeInfo 1
	.byte	0                       #   No further actions
                                        # >> Catch TypeInfos <<
	.long	0                       # TypeInfo 1
	.align	4

	.section	.text._ZSt8_DestroyIP10location_tS0_EvT_S2_RSaIT0_E,"axG",@progbits,_ZSt8_DestroyIP10location_tS0_EvT_S2_RSaIT0_E,comdat
	.weak	_ZSt8_DestroyIP10location_tS0_EvT_S2_RSaIT0_E
	.align	16, 0x90
	.type	_ZSt8_DestroyIP10location_tS0_EvT_S2_RSaIT0_E,@function
_ZSt8_DestroyIP10location_tS0_EvT_S2_RSaIT0_E: # @_ZSt8_DestroyIP10location_tS0_EvT_S2_RSaIT0_E
	.cfi_startproc
.Lfunc_begin92:
	.loc	19 150 0                # /usr/lib/gcc/x86_64-linux-gnu/4.8/../../../../include/c++/4.8/bits/stl_construct.h:150:0
# BB#0:                                 # %entry
	subq	$24, %rsp
.Ltmp696:
	.cfi_def_cfa_offset 32
	movq	%rdi, 16(%rsp)
	movq	%rsi, 8(%rsp)
	movq	%rdx, (%rsp)
	.loc	19 151 0 prologue_end   # /usr/lib/gcc/x86_64-linux-gnu/4.8/../../../../include/c++/4.8/bits/stl_construct.h:151:0
.Ltmp697:
	movq	8(%rsp), %rsi
	movq	16(%rsp), %rdi
	callq	_ZSt8_DestroyIP10location_tEvT_S2_
	.loc	19 152 0                # /usr/lib/gcc/x86_64-linux-gnu/4.8/../../../../include/c++/4.8/bits/stl_construct.h:152:0
	addq	$24, %rsp
	ret
.Ltmp698:
.Ltmp699:
	.size	_ZSt8_DestroyIP10location_tS0_EvT_S2_RSaIT0_E, .Ltmp699-_ZSt8_DestroyIP10location_tS0_EvT_S2_RSaIT0_E
.Lfunc_end92:
	.cfi_endproc

	.section	.text._ZNSt12_Vector_baseI10location_tSaIS0_EE19_M_get_Tp_allocatorEv,"axG",@progbits,_ZNSt12_Vector_baseI10location_tSaIS0_EE19_M_get_Tp_allocatorEv,comdat
	.weak	_ZNSt12_Vector_baseI10location_tSaIS0_EE19_M_get_Tp_allocatorEv
	.align	16, 0x90
	.type	_ZNSt12_Vector_baseI10location_tSaIS0_EE19_M_get_Tp_allocatorEv,@function
_ZNSt12_Vector_baseI10location_tSaIS0_EE19_M_get_Tp_allocatorEv: # @_ZNSt12_Vector_baseI10location_tSaIS0_EE19_M_get_Tp_allocatorEv
	.cfi_startproc
.Lfunc_begin93:
	.loc	17 114 0                # /usr/lib/gcc/x86_64-linux-gnu/4.8/../../../../include/c++/4.8/bits/stl_vector.h:114:0
# BB#0:                                 # %entry
	movq	%rdi, -8(%rsp)
	.loc	17 114 0 prologue_end   # /usr/lib/gcc/x86_64-linux-gnu/4.8/../../../../include/c++/4.8/bits/stl_vector.h:114:0
.Ltmp700:
	movq	%rdi, %rax
	ret
.Ltmp701:
.Ltmp702:
	.size	_ZNSt12_Vector_baseI10location_tSaIS0_EE19_M_get_Tp_allocatorEv, .Ltmp702-_ZNSt12_Vector_baseI10location_tSaIS0_EE19_M_get_Tp_allocatorEv
.Lfunc_end93:
	.cfi_endproc

	.section	.text._ZNSt12_Vector_baseI10location_tSaIS0_EED2Ev,"axG",@progbits,_ZNSt12_Vector_baseI10location_tSaIS0_EED2Ev,comdat
	.weak	_ZNSt12_Vector_baseI10location_tSaIS0_EED2Ev
	.align	16, 0x90
	.type	_ZNSt12_Vector_baseI10location_tSaIS0_EED2Ev,@function
_ZNSt12_Vector_baseI10location_tSaIS0_EED2Ev: # @_ZNSt12_Vector_baseI10location_tSaIS0_EED2Ev
	.cfi_startproc
	.cfi_personality 3, __gxx_personality_v0
.Leh_func_begin94:
	.cfi_lsda 3, .Lexception94
.Lfunc_begin94:
	.loc	17 160 0                # /usr/lib/gcc/x86_64-linux-gnu/4.8/../../../../include/c++/4.8/bits/stl_vector.h:160:0
# BB#0:                                 # %entry
	pushq	%rbx
.Ltmp708:
	.cfi_def_cfa_offset 16
	subq	$32, %rsp
.Ltmp709:
	.cfi_def_cfa_offset 48
.Ltmp710:
	.cfi_offset %rbx, -16
	movq	%rdi, %rbx
	movq	%rbx, 24(%rsp)
	.loc	17 160 0 prologue_end   # /usr/lib/gcc/x86_64-linux-gnu/4.8/../../../../include/c++/4.8/bits/stl_vector.h:160:0
.Ltmp711:
	movq	(%rbx), %rsi
	movq	16(%rbx), %rdx
.Ltmp703:
	subq	%rsi, %rdx
	sarq	$3, %rdx
	callq	_ZNSt12_Vector_baseI10location_tSaIS0_EE13_M_deallocateEPS0_m
.Ltmp704:
# BB#1:                                 # %invoke.cont
	.loc	17 161 0                # /usr/lib/gcc/x86_64-linux-gnu/4.8/../../../../include/c++/4.8/bits/stl_vector.h:161:0
	movq	%rbx, %rdi
	callq	_ZNSt12_Vector_baseI10location_tSaIS0_EE12_Vector_implD1Ev
	addq	$32, %rsp
	popq	%rbx
	ret
.LBB94_2:                               # %eh.resume
.Ltmp705:
	.loc	17 160 0                # /usr/lib/gcc/x86_64-linux-gnu/4.8/../../../../include/c++/4.8/bits/stl_vector.h:160:0
	movq	%rax, 16(%rsp)
	movl	%edx, 12(%rsp)
	.loc	17 161 0                # /usr/lib/gcc/x86_64-linux-gnu/4.8/../../../../include/c++/4.8/bits/stl_vector.h:161:0
	movq	%rbx, %rdi
	callq	_ZNSt12_Vector_baseI10location_tSaIS0_EE12_Vector_implD1Ev
	movq	16(%rsp), %rdi
	callq	_Unwind_Resume
.Ltmp712:
.Ltmp713:
	.size	_ZNSt12_Vector_baseI10location_tSaIS0_EED2Ev, .Ltmp713-_ZNSt12_Vector_baseI10location_tSaIS0_EED2Ev
.Lfunc_end94:
	.cfi_endproc
.Leh_func_end94:
	.section	.gcc_except_table,"a",@progbits
	.align	4
GCC_except_table94:
.Lexception94:
	.byte	255                     # @LPStart Encoding = omit
	.byte	3                       # @TType Encoding = udata4
	.asciz	 "\234"                 # @TType base offset
	.byte	3                       # Call site Encoding = udata4
	.byte	26                      # Call site table length
.Lset152 = .Ltmp703-.Leh_func_begin94   # >> Call Site 1 <<
	.long	.Lset152
.Lset153 = .Ltmp704-.Ltmp703            #   Call between .Ltmp703 and .Ltmp704
	.long	.Lset153
.Lset154 = .Ltmp705-.Leh_func_begin94   #     jumps to .Ltmp705
	.long	.Lset154
	.byte	0                       #   On action: cleanup
.Lset155 = .Ltmp704-.Leh_func_begin94   # >> Call Site 2 <<
	.long	.Lset155
.Lset156 = .Leh_func_end94-.Ltmp704     #   Call between .Ltmp704 and .Leh_func_end94
	.long	.Lset156
	.long	0                       #     has no landing pad
	.byte	0                       #   On action: cleanup
	.align	4

	.section	.text._ZNSt12_Vector_baseI10location_tSaIS0_EE13_M_deallocateEPS0_m,"axG",@progbits,_ZNSt12_Vector_baseI10location_tSaIS0_EE13_M_deallocateEPS0_m,comdat
	.weak	_ZNSt12_Vector_baseI10location_tSaIS0_EE13_M_deallocateEPS0_m
	.align	16, 0x90
	.type	_ZNSt12_Vector_baseI10location_tSaIS0_EE13_M_deallocateEPS0_m,@function
_ZNSt12_Vector_baseI10location_tSaIS0_EE13_M_deallocateEPS0_m: # @_ZNSt12_Vector_baseI10location_tSaIS0_EE13_M_deallocateEPS0_m
	.cfi_startproc
.Lfunc_begin95:
	.loc	17 172 0                # /usr/lib/gcc/x86_64-linux-gnu/4.8/../../../../include/c++/4.8/bits/stl_vector.h:172:0
# BB#0:                                 # %entry
	subq	$24, %rsp
.Ltmp715:
	.cfi_def_cfa_offset 32
	movq	%rdi, 16(%rsp)
	movq	%rsi, 8(%rsp)
	movq	%rdx, (%rsp)
	.loc	17 173 0 prologue_end   # /usr/lib/gcc/x86_64-linux-gnu/4.8/../../../../include/c++/4.8/bits/stl_vector.h:173:0
.Ltmp716:
	cmpq	$0, 8(%rsp)
	je	.LBB95_2
# BB#1:                                 # %if.then
	movq	16(%rsp), %rdi
	.loc	17 174 0                # /usr/lib/gcc/x86_64-linux-gnu/4.8/../../../../include/c++/4.8/bits/stl_vector.h:174:0
	movq	(%rsp), %rdx
	movq	8(%rsp), %rsi
	callq	_ZN9__gnu_cxx13new_allocatorI10location_tE10deallocateEPS1_m
.LBB95_2:                               # %if.end
	.loc	17 175 0                # /usr/lib/gcc/x86_64-linux-gnu/4.8/../../../../include/c++/4.8/bits/stl_vector.h:175:0
	addq	$24, %rsp
	ret
.Ltmp717:
.Ltmp718:
	.size	_ZNSt12_Vector_baseI10location_tSaIS0_EE13_M_deallocateEPS0_m, .Ltmp718-_ZNSt12_Vector_baseI10location_tSaIS0_EE13_M_deallocateEPS0_m
.Lfunc_end95:
	.cfi_endproc

	.section	.text._ZNSt12_Vector_baseI10location_tSaIS0_EE12_Vector_implD1Ev,"axG",@progbits,_ZNSt12_Vector_baseI10location_tSaIS0_EE12_Vector_implD1Ev,comdat
	.weak	_ZNSt12_Vector_baseI10location_tSaIS0_EE12_Vector_implD1Ev
	.align	16, 0x90
	.type	_ZNSt12_Vector_baseI10location_tSaIS0_EE12_Vector_implD1Ev,@function
_ZNSt12_Vector_baseI10location_tSaIS0_EE12_Vector_implD1Ev: # @_ZNSt12_Vector_baseI10location_tSaIS0_EE12_Vector_implD1Ev
	.cfi_startproc
.Lfunc_begin96:
	.loc	17 79 0                 # /usr/lib/gcc/x86_64-linux-gnu/4.8/../../../../include/c++/4.8/bits/stl_vector.h:79:0
# BB#0:                                 # %entry
	pushq	%rax
.Ltmp720:
	.cfi_def_cfa_offset 16
	movq	%rdi, (%rsp)
	.loc	17 79 0 prologue_end    # /usr/lib/gcc/x86_64-linux-gnu/4.8/../../../../include/c++/4.8/bits/stl_vector.h:79:0
.Ltmp721:
	callq	_ZNSt12_Vector_baseI10location_tSaIS0_EE12_Vector_implD2Ev
	popq	%rax
	ret
.Ltmp722:
.Ltmp723:
	.size	_ZNSt12_Vector_baseI10location_tSaIS0_EE12_Vector_implD1Ev, .Ltmp723-_ZNSt12_Vector_baseI10location_tSaIS0_EE12_Vector_implD1Ev
.Lfunc_end96:
	.cfi_endproc

	.section	.text._ZNSt12_Vector_baseI10location_tSaIS0_EE12_Vector_implD2Ev,"axG",@progbits,_ZNSt12_Vector_baseI10location_tSaIS0_EE12_Vector_implD2Ev,comdat
	.weak	_ZNSt12_Vector_baseI10location_tSaIS0_EE12_Vector_implD2Ev
	.align	16, 0x90
	.type	_ZNSt12_Vector_baseI10location_tSaIS0_EE12_Vector_implD2Ev,@function
_ZNSt12_Vector_baseI10location_tSaIS0_EE12_Vector_implD2Ev: # @_ZNSt12_Vector_baseI10location_tSaIS0_EE12_Vector_implD2Ev
	.cfi_startproc
.Lfunc_begin97:
	.loc	17 79 0                 # /usr/lib/gcc/x86_64-linux-gnu/4.8/../../../../include/c++/4.8/bits/stl_vector.h:79:0
# BB#0:                                 # %entry
	pushq	%rax
.Ltmp725:
	.cfi_def_cfa_offset 16
	movq	%rdi, (%rsp)
	.loc	17 79 0 prologue_end    # /usr/lib/gcc/x86_64-linux-gnu/4.8/../../../../include/c++/4.8/bits/stl_vector.h:79:0
.Ltmp726:
	callq	_ZNSaI10location_tED2Ev
	popq	%rax
	ret
.Ltmp727:
.Ltmp728:
	.size	_ZNSt12_Vector_baseI10location_tSaIS0_EE12_Vector_implD2Ev, .Ltmp728-_ZNSt12_Vector_baseI10location_tSaIS0_EE12_Vector_implD2Ev
.Lfunc_end97:
	.cfi_endproc

	.section	.text._ZNSaI10location_tED2Ev,"axG",@progbits,_ZNSaI10location_tED2Ev,comdat
	.weak	_ZNSaI10location_tED2Ev
	.align	16, 0x90
	.type	_ZNSaI10location_tED2Ev,@function
_ZNSaI10location_tED2Ev:                # @_ZNSaI10location_tED2Ev
	.cfi_startproc
.Lfunc_begin98:
	.loc	10 121 0                # /usr/lib/gcc/x86_64-linux-gnu/4.8/../../../../include/c++/4.8/bits/allocator.h:121:0
# BB#0:                                 # %entry
	pushq	%rax
.Ltmp730:
	.cfi_def_cfa_offset 16
	movq	%rdi, (%rsp)
	.loc	10 121 0 prologue_end   # /usr/lib/gcc/x86_64-linux-gnu/4.8/../../../../include/c++/4.8/bits/allocator.h:121:0
.Ltmp731:
	callq	_ZN9__gnu_cxx13new_allocatorI10location_tED2Ev
	popq	%rax
	ret
.Ltmp732:
.Ltmp733:
	.size	_ZNSaI10location_tED2Ev, .Ltmp733-_ZNSaI10location_tED2Ev
.Lfunc_end98:
	.cfi_endproc

	.section	.text._ZN9__gnu_cxx13new_allocatorI10location_tED2Ev,"axG",@progbits,_ZN9__gnu_cxx13new_allocatorI10location_tED2Ev,comdat
	.weak	_ZN9__gnu_cxx13new_allocatorI10location_tED2Ev
	.align	16, 0x90
	.type	_ZN9__gnu_cxx13new_allocatorI10location_tED2Ev,@function
_ZN9__gnu_cxx13new_allocatorI10location_tED2Ev: # @_ZN9__gnu_cxx13new_allocatorI10location_tED2Ev
	.cfi_startproc
.Lfunc_begin99:
	.loc	9 86 0                  # /usr/lib/gcc/x86_64-linux-gnu/4.8/../../../../include/c++/4.8/ext/new_allocator.h:86:0
# BB#0:                                 # %entry
	movq	%rdi, -8(%rsp)
	.loc	9 86 0 prologue_end     # /usr/lib/gcc/x86_64-linux-gnu/4.8/../../../../include/c++/4.8/ext/new_allocator.h:86:0
.Ltmp734:
	ret
.Ltmp735:
.Ltmp736:
	.size	_ZN9__gnu_cxx13new_allocatorI10location_tED2Ev, .Ltmp736-_ZN9__gnu_cxx13new_allocatorI10location_tED2Ev
.Lfunc_end99:
	.cfi_endproc

	.section	.text._ZN9__gnu_cxx13new_allocatorI10location_tE10deallocateEPS1_m,"axG",@progbits,_ZN9__gnu_cxx13new_allocatorI10location_tE10deallocateEPS1_m,comdat
	.weak	_ZN9__gnu_cxx13new_allocatorI10location_tE10deallocateEPS1_m
	.align	16, 0x90
	.type	_ZN9__gnu_cxx13new_allocatorI10location_tE10deallocateEPS1_m,@function
_ZN9__gnu_cxx13new_allocatorI10location_tE10deallocateEPS1_m: # @_ZN9__gnu_cxx13new_allocatorI10location_tE10deallocateEPS1_m
	.cfi_startproc
.Lfunc_begin100:
	.loc	9 110 0                 # /usr/lib/gcc/x86_64-linux-gnu/4.8/../../../../include/c++/4.8/ext/new_allocator.h:110:0
# BB#0:                                 # %entry
	subq	$24, %rsp
.Ltmp738:
	.cfi_def_cfa_offset 32
	movq	%rdi, 16(%rsp)
	movq	%rsi, 8(%rsp)
	movq	%rdx, (%rsp)
	.loc	9 110 0 prologue_end    # /usr/lib/gcc/x86_64-linux-gnu/4.8/../../../../include/c++/4.8/ext/new_allocator.h:110:0
.Ltmp739:
	movq	8(%rsp), %rdi
	callq	_ZdlPv
	addq	$24, %rsp
	ret
.Ltmp740:
.Ltmp741:
	.size	_ZN9__gnu_cxx13new_allocatorI10location_tE10deallocateEPS1_m, .Ltmp741-_ZN9__gnu_cxx13new_allocatorI10location_tE10deallocateEPS1_m
.Lfunc_end100:
	.cfi_endproc

	.section	.text._ZSt8_DestroyIP10location_tEvT_S2_,"axG",@progbits,_ZSt8_DestroyIP10location_tEvT_S2_,comdat
	.weak	_ZSt8_DestroyIP10location_tEvT_S2_
	.align	16, 0x90
	.type	_ZSt8_DestroyIP10location_tEvT_S2_,@function
_ZSt8_DestroyIP10location_tEvT_S2_:     # @_ZSt8_DestroyIP10location_tEvT_S2_
	.cfi_startproc
.Lfunc_begin101:
	.loc	19 123 0                # /usr/lib/gcc/x86_64-linux-gnu/4.8/../../../../include/c++/4.8/bits/stl_construct.h:123:0
# BB#0:                                 # %entry
	subq	$24, %rsp
.Ltmp743:
	.cfi_def_cfa_offset 32
	movq	%rdi, 16(%rsp)
	movq	%rsi, 8(%rsp)
	.loc	19 126 0 prologue_end   # /usr/lib/gcc/x86_64-linux-gnu/4.8/../../../../include/c++/4.8/bits/stl_construct.h:126:0
.Ltmp744:
	movq	16(%rsp), %rdi
	callq	_ZNSt12_Destroy_auxILb1EE9__destroyIP10location_tEEvT_S4_
	.loc	19 128 0                # /usr/lib/gcc/x86_64-linux-gnu/4.8/../../../../include/c++/4.8/bits/stl_construct.h:128:0
	addq	$24, %rsp
	ret
.Ltmp745:
.Ltmp746:
	.size	_ZSt8_DestroyIP10location_tEvT_S2_, .Ltmp746-_ZSt8_DestroyIP10location_tEvT_S2_
.Lfunc_end101:
	.cfi_endproc

	.section	.text._ZNSt12_Destroy_auxILb1EE9__destroyIP10location_tEEvT_S4_,"axG",@progbits,_ZNSt12_Destroy_auxILb1EE9__destroyIP10location_tEEvT_S4_,comdat
	.weak	_ZNSt12_Destroy_auxILb1EE9__destroyIP10location_tEEvT_S4_
	.align	16, 0x90
	.type	_ZNSt12_Destroy_auxILb1EE9__destroyIP10location_tEEvT_S4_,@function
_ZNSt12_Destroy_auxILb1EE9__destroyIP10location_tEEvT_S4_: # @_ZNSt12_Destroy_auxILb1EE9__destroyIP10location_tEEvT_S4_
	.cfi_startproc
.Lfunc_begin102:
	.loc	19 112 0                # /usr/lib/gcc/x86_64-linux-gnu/4.8/../../../../include/c++/4.8/bits/stl_construct.h:112:0
# BB#0:                                 # %entry
	movq	%rdi, -8(%rsp)
	movq	%rsi, -16(%rsp)
	.loc	19 112 0 prologue_end   # /usr/lib/gcc/x86_64-linux-gnu/4.8/../../../../include/c++/4.8/bits/stl_construct.h:112:0
.Ltmp747:
	ret
.Ltmp748:
.Ltmp749:
	.size	_ZNSt12_Destroy_auxILb1EE9__destroyIP10location_tEEvT_S4_, .Ltmp749-_ZNSt12_Destroy_auxILb1EE9__destroyIP10location_tEEvT_S4_
.Lfunc_end102:
	.cfi_endproc

	.section	.text._ZNSt3mapISsP12netlist_elemSt4lessISsESaISt4pairIKSsS1_EEED2Ev,"axG",@progbits,_ZNSt3mapISsP12netlist_elemSt4lessISsESaISt4pairIKSsS1_EEED2Ev,comdat
	.weak	_ZNSt3mapISsP12netlist_elemSt4lessISsESaISt4pairIKSsS1_EEED2Ev
	.align	16, 0x90
	.type	_ZNSt3mapISsP12netlist_elemSt4lessISsESaISt4pairIKSsS1_EEED2Ev,@function
_ZNSt3mapISsP12netlist_elemSt4lessISsESaISt4pairIKSsS1_EEED2Ev: # @_ZNSt3mapISsP12netlist_elemSt4lessISsESaISt4pairIKSsS1_EEED2Ev
	.cfi_startproc
.Lfunc_begin103:
	.loc	31 96 0                 # /usr/lib/gcc/x86_64-linux-gnu/4.8/../../../../include/c++/4.8/bits/stl_map.h:96:0
# BB#0:                                 # %entry
	pushq	%rax
.Ltmp751:
	.cfi_def_cfa_offset 16
	movq	%rdi, (%rsp)
	.loc	31 96 0 prologue_end    # /usr/lib/gcc/x86_64-linux-gnu/4.8/../../../../include/c++/4.8/bits/stl_map.h:96:0
.Ltmp752:
	callq	_ZNSt8_Rb_treeISsSt4pairIKSsP12netlist_elemESt10_Select1stIS4_ESt4lessISsESaIS4_EED1Ev
	popq	%rax
	ret
.Ltmp753:
.Ltmp754:
	.size	_ZNSt3mapISsP12netlist_elemSt4lessISsESaISt4pairIKSsS1_EEED2Ev, .Ltmp754-_ZNSt3mapISsP12netlist_elemSt4lessISsESaISt4pairIKSsS1_EEED2Ev
.Lfunc_end103:
	.cfi_endproc

	.section	.text._ZNSt8_Rb_treeISsSt4pairIKSsP12netlist_elemESt10_Select1stIS4_ESt4lessISsESaIS4_EED1Ev,"axG",@progbits,_ZNSt8_Rb_treeISsSt4pairIKSsP12netlist_elemESt10_Select1stIS4_ESt4lessISsESaIS4_EED1Ev,comdat
	.weak	_ZNSt8_Rb_treeISsSt4pairIKSsP12netlist_elemESt10_Select1stIS4_ESt4lessISsESaIS4_EED1Ev
	.align	16, 0x90
	.type	_ZNSt8_Rb_treeISsSt4pairIKSsP12netlist_elemESt10_Select1stIS4_ESt4lessISsESaIS4_EED1Ev,@function
_ZNSt8_Rb_treeISsSt4pairIKSsP12netlist_elemESt10_Select1stIS4_ESt4lessISsESaIS4_EED1Ev: # @_ZNSt8_Rb_treeISsSt4pairIKSsP12netlist_elemESt10_Select1stIS4_ESt4lessISsESaIS4_EED1Ev
	.cfi_startproc
.Lfunc_begin104:
	.loc	28 671 0                # /usr/lib/gcc/x86_64-linux-gnu/4.8/../../../../include/c++/4.8/bits/stl_tree.h:671:0
# BB#0:                                 # %entry
	pushq	%rax
.Ltmp756:
	.cfi_def_cfa_offset 16
	movq	%rdi, (%rsp)
	.loc	28 671 0 prologue_end   # /usr/lib/gcc/x86_64-linux-gnu/4.8/../../../../include/c++/4.8/bits/stl_tree.h:671:0
.Ltmp757:
	callq	_ZNSt8_Rb_treeISsSt4pairIKSsP12netlist_elemESt10_Select1stIS4_ESt4lessISsESaIS4_EED2Ev
	popq	%rax
	ret
.Ltmp758:
.Ltmp759:
	.size	_ZNSt8_Rb_treeISsSt4pairIKSsP12netlist_elemESt10_Select1stIS4_ESt4lessISsESaIS4_EED1Ev, .Ltmp759-_ZNSt8_Rb_treeISsSt4pairIKSsP12netlist_elemESt10_Select1stIS4_ESt4lessISsESaIS4_EED1Ev
.Lfunc_end104:
	.cfi_endproc

	.section	.text._ZNSt8_Rb_treeISsSt4pairIKSsP12netlist_elemESt10_Select1stIS4_ESt4lessISsESaIS4_EED2Ev,"axG",@progbits,_ZNSt8_Rb_treeISsSt4pairIKSsP12netlist_elemESt10_Select1stIS4_ESt4lessISsESaIS4_EED2Ev,comdat
	.weak	_ZNSt8_Rb_treeISsSt4pairIKSsP12netlist_elemESt10_Select1stIS4_ESt4lessISsESaIS4_EED2Ev
	.align	16, 0x90
	.type	_ZNSt8_Rb_treeISsSt4pairIKSsP12netlist_elemESt10_Select1stIS4_ESt4lessISsESaIS4_EED2Ev,@function
_ZNSt8_Rb_treeISsSt4pairIKSsP12netlist_elemESt10_Select1stIS4_ESt4lessISsESaIS4_EED2Ev: # @_ZNSt8_Rb_treeISsSt4pairIKSsP12netlist_elemESt10_Select1stIS4_ESt4lessISsESaIS4_EED2Ev
	.cfi_startproc
	.cfi_personality 3, __gxx_personality_v0
.Leh_func_begin105:
	.cfi_lsda 3, .Lexception105
.Lfunc_begin105:
	.loc	28 671 0                # /usr/lib/gcc/x86_64-linux-gnu/4.8/../../../../include/c++/4.8/bits/stl_tree.h:671:0
# BB#0:                                 # %entry
	pushq	%rbx
.Ltmp767:
	.cfi_def_cfa_offset 16
	subq	$32, %rsp
.Ltmp768:
	.cfi_def_cfa_offset 48
.Ltmp769:
	.cfi_offset %rbx, -16
	movq	%rdi, %rbx
	movq	%rbx, 24(%rsp)
	.loc	28 671 0 prologue_end   # /usr/lib/gcc/x86_64-linux-gnu/4.8/../../../../include/c++/4.8/bits/stl_tree.h:671:0
.Ltmp770:
.Ltmp760:
	callq	_ZNSt8_Rb_treeISsSt4pairIKSsP12netlist_elemESt10_Select1stIS4_ESt4lessISsESaIS4_EE8_M_beginEv
.Ltmp761:
# BB#1:                                 # %invoke.cont
.Ltmp762:
	movq	%rbx, %rdi
	movq	%rax, %rsi
	callq	_ZNSt8_Rb_treeISsSt4pairIKSsP12netlist_elemESt10_Select1stIS4_ESt4lessISsESaIS4_EE8_M_eraseEPSt13_Rb_tree_nodeIS4_E
.Ltmp763:
# BB#2:                                 # %invoke.cont2
	movq	%rbx, %rdi
	callq	_ZNSt8_Rb_treeISsSt4pairIKSsP12netlist_elemESt10_Select1stIS4_ESt4lessISsESaIS4_EE13_Rb_tree_implIS8_Lb0EED1Ev
	addq	$32, %rsp
	popq	%rbx
	ret
.LBB105_3:                              # %eh.resume
.Ltmp764:
	movq	%rax, 16(%rsp)
	movl	%edx, 12(%rsp)
	movq	%rbx, %rdi
	callq	_ZNSt8_Rb_treeISsSt4pairIKSsP12netlist_elemESt10_Select1stIS4_ESt4lessISsESaIS4_EE13_Rb_tree_implIS8_Lb0EED1Ev
	movq	16(%rsp), %rdi
	callq	_Unwind_Resume
.Ltmp771:
.Ltmp772:
	.size	_ZNSt8_Rb_treeISsSt4pairIKSsP12netlist_elemESt10_Select1stIS4_ESt4lessISsESaIS4_EED2Ev, .Ltmp772-_ZNSt8_Rb_treeISsSt4pairIKSsP12netlist_elemESt10_Select1stIS4_ESt4lessISsESaIS4_EED2Ev
.Lfunc_end105:
	.cfi_endproc
.Leh_func_end105:
	.section	.gcc_except_table,"a",@progbits
	.align	4
GCC_except_table105:
.Lexception105:
	.byte	255                     # @LPStart Encoding = omit
	.byte	3                       # @TType Encoding = udata4
	.asciz	 "\234"                 # @TType base offset
	.byte	3                       # Call site Encoding = udata4
	.byte	26                      # Call site table length
.Lset157 = .Ltmp760-.Leh_func_begin105  # >> Call Site 1 <<
	.long	.Lset157
.Lset158 = .Ltmp763-.Ltmp760            #   Call between .Ltmp760 and .Ltmp763
	.long	.Lset158
.Lset159 = .Ltmp764-.Leh_func_begin105  #     jumps to .Ltmp764
	.long	.Lset159
	.byte	0                       #   On action: cleanup
.Lset160 = .Ltmp763-.Leh_func_begin105  # >> Call Site 2 <<
	.long	.Lset160
.Lset161 = .Leh_func_end105-.Ltmp763    #   Call between .Ltmp763 and .Leh_func_end105
	.long	.Lset161
	.long	0                       #     has no landing pad
	.byte	0                       #   On action: cleanup
	.align	4

	.section	.text._ZNSt8_Rb_treeISsSt4pairIKSsP12netlist_elemESt10_Select1stIS4_ESt4lessISsESaIS4_EE8_M_eraseEPSt13_Rb_tree_nodeIS4_E,"axG",@progbits,_ZNSt8_Rb_treeISsSt4pairIKSsP12netlist_elemESt10_Select1stIS4_ESt4lessISsESaIS4_EE8_M_eraseEPSt13_Rb_tree_nodeIS4_E,comdat
	.weak	_ZNSt8_Rb_treeISsSt4pairIKSsP12netlist_elemESt10_Select1stIS4_ESt4lessISsESaIS4_EE8_M_eraseEPSt13_Rb_tree_nodeIS4_E
	.align	16, 0x90
	.type	_ZNSt8_Rb_treeISsSt4pairIKSsP12netlist_elemESt10_Select1stIS4_ESt4lessISsESaIS4_EE8_M_eraseEPSt13_Rb_tree_nodeIS4_E,@function
_ZNSt8_Rb_treeISsSt4pairIKSsP12netlist_elemESt10_Select1stIS4_ESt4lessISsESaIS4_EE8_M_eraseEPSt13_Rb_tree_nodeIS4_E: # @_ZNSt8_Rb_treeISsSt4pairIKSsP12netlist_elemESt10_Select1stIS4_ESt4lessISsESaIS4_EE8_M_eraseEPSt13_Rb_tree_nodeIS4_E
	.cfi_startproc
.Lfunc_begin106:
	.loc	28 1121 0               # /usr/lib/gcc/x86_64-linux-gnu/4.8/../../../../include/c++/4.8/bits/stl_tree.h:1121:0
# BB#0:                                 # %entry
	pushq	%rbx
.Ltmp775:
	.cfi_def_cfa_offset 16
	subq	$32, %rsp
.Ltmp776:
	.cfi_def_cfa_offset 48
.Ltmp777:
	.cfi_offset %rbx, -16
	movq	%rdi, 24(%rsp)
	movq	%rsi, 16(%rsp)
	movq	24(%rsp), %rbx
	jmp	.LBB106_1
	.align	16, 0x90
.LBB106_2:                              # %while.body
                                        #   in Loop: Header=BB106_1 Depth=1
	.loc	28 1125 0 prologue_end  # /usr/lib/gcc/x86_64-linux-gnu/4.8/../../../../include/c++/4.8/bits/stl_tree.h:1125:0
.Ltmp778:
	movq	16(%rsp), %rdi
	callq	_ZNSt8_Rb_treeISsSt4pairIKSsP12netlist_elemESt10_Select1stIS4_ESt4lessISsESaIS4_EE8_S_rightEPSt18_Rb_tree_node_base
	movq	%rbx, %rdi
	movq	%rax, %rsi
	callq	_ZNSt8_Rb_treeISsSt4pairIKSsP12netlist_elemESt10_Select1stIS4_ESt4lessISsESaIS4_EE8_M_eraseEPSt13_Rb_tree_nodeIS4_E
	.loc	28 1126 0               # /usr/lib/gcc/x86_64-linux-gnu/4.8/../../../../include/c++/4.8/bits/stl_tree.h:1126:0
	movq	16(%rsp), %rdi
.Ltmp779:
	#DEBUG_VALUE: __y <- [%rsp+$8]+$0
	callq	_ZNSt8_Rb_treeISsSt4pairIKSsP12netlist_elemESt10_Select1stIS4_ESt4lessISsESaIS4_EE7_S_leftEPSt18_Rb_tree_node_base
	movq	%rax, 8(%rsp)
	.loc	28 1127 0               # /usr/lib/gcc/x86_64-linux-gnu/4.8/../../../../include/c++/4.8/bits/stl_tree.h:1127:0
	movq	16(%rsp), %rsi
	movq	%rbx, %rdi
	callq	_ZNSt8_Rb_treeISsSt4pairIKSsP12netlist_elemESt10_Select1stIS4_ESt4lessISsESaIS4_EE15_M_destroy_nodeEPSt13_Rb_tree_nodeIS4_E
	.loc	28 1128 0               # /usr/lib/gcc/x86_64-linux-gnu/4.8/../../../../include/c++/4.8/bits/stl_tree.h:1128:0
	movq	8(%rsp), %rax
	movq	%rax, 16(%rsp)
.Ltmp780:
.LBB106_1:                              # %while.cond
                                        # =>This Inner Loop Header: Depth=1
	.loc	28 1123 0               # /usr/lib/gcc/x86_64-linux-gnu/4.8/../../../../include/c++/4.8/bits/stl_tree.h:1123:0
	cmpq	$0, 16(%rsp)
	jne	.LBB106_2
# BB#3:                                 # %while.end
	.loc	28 1130 0               # /usr/lib/gcc/x86_64-linux-gnu/4.8/../../../../include/c++/4.8/bits/stl_tree.h:1130:0
	addq	$32, %rsp
	popq	%rbx
	ret
.Ltmp781:
.Ltmp782:
	.size	_ZNSt8_Rb_treeISsSt4pairIKSsP12netlist_elemESt10_Select1stIS4_ESt4lessISsESaIS4_EE8_M_eraseEPSt13_Rb_tree_nodeIS4_E, .Ltmp782-_ZNSt8_Rb_treeISsSt4pairIKSsP12netlist_elemESt10_Select1stIS4_ESt4lessISsESaIS4_EE8_M_eraseEPSt13_Rb_tree_nodeIS4_E
.Lfunc_end106:
	.cfi_endproc

	.section	.text._ZNSt8_Rb_treeISsSt4pairIKSsP12netlist_elemESt10_Select1stIS4_ESt4lessISsESaIS4_EE8_M_beginEv,"axG",@progbits,_ZNSt8_Rb_treeISsSt4pairIKSsP12netlist_elemESt10_Select1stIS4_ESt4lessISsESaIS4_EE8_M_beginEv,comdat
	.weak	_ZNSt8_Rb_treeISsSt4pairIKSsP12netlist_elemESt10_Select1stIS4_ESt4lessISsESaIS4_EE8_M_beginEv
	.align	16, 0x90
	.type	_ZNSt8_Rb_treeISsSt4pairIKSsP12netlist_elemESt10_Select1stIS4_ESt4lessISsESaIS4_EE8_M_beginEv,@function
_ZNSt8_Rb_treeISsSt4pairIKSsP12netlist_elemESt10_Select1stIS4_ESt4lessISsESaIS4_EE8_M_beginEv: # @_ZNSt8_Rb_treeISsSt4pairIKSsP12netlist_elemESt10_Select1stIS4_ESt4lessISsESaIS4_EE8_M_beginEv
	.cfi_startproc
.Lfunc_begin107:
	.loc	28 502 0                # /usr/lib/gcc/x86_64-linux-gnu/4.8/../../../../include/c++/4.8/bits/stl_tree.h:502:0
# BB#0:                                 # %entry
	movq	%rdi, -8(%rsp)
	.loc	28 502 0 prologue_end   # /usr/lib/gcc/x86_64-linux-gnu/4.8/../../../../include/c++/4.8/bits/stl_tree.h:502:0
.Ltmp783:
	movq	16(%rdi), %rax
	ret
.Ltmp784:
.Ltmp785:
	.size	_ZNSt8_Rb_treeISsSt4pairIKSsP12netlist_elemESt10_Select1stIS4_ESt4lessISsESaIS4_EE8_M_beginEv, .Ltmp785-_ZNSt8_Rb_treeISsSt4pairIKSsP12netlist_elemESt10_Select1stIS4_ESt4lessISsESaIS4_EE8_M_beginEv
.Lfunc_end107:
	.cfi_endproc

	.section	.text._ZNSt8_Rb_treeISsSt4pairIKSsP12netlist_elemESt10_Select1stIS4_ESt4lessISsESaIS4_EE13_Rb_tree_implIS8_Lb0EED1Ev,"axG",@progbits,_ZNSt8_Rb_treeISsSt4pairIKSsP12netlist_elemESt10_Select1stIS4_ESt4lessISsESaIS4_EE13_Rb_tree_implIS8_Lb0EED1Ev,comdat
	.weak	_ZNSt8_Rb_treeISsSt4pairIKSsP12netlist_elemESt10_Select1stIS4_ESt4lessISsESaIS4_EE13_Rb_tree_implIS8_Lb0EED1Ev
	.align	16, 0x90
	.type	_ZNSt8_Rb_treeISsSt4pairIKSsP12netlist_elemESt10_Select1stIS4_ESt4lessISsESaIS4_EE13_Rb_tree_implIS8_Lb0EED1Ev,@function
_ZNSt8_Rb_treeISsSt4pairIKSsP12netlist_elemESt10_Select1stIS4_ESt4lessISsESaIS4_EE13_Rb_tree_implIS8_Lb0EED1Ev: # @_ZNSt8_Rb_treeISsSt4pairIKSsP12netlist_elemESt10_Select1stIS4_ESt4lessISsESaIS4_EE13_Rb_tree_implIS8_Lb0EED1Ev
	.cfi_startproc
.Lfunc_begin108:
	.loc	28 439 0                # /usr/lib/gcc/x86_64-linux-gnu/4.8/../../../../include/c++/4.8/bits/stl_tree.h:439:0
# BB#0:                                 # %entry
	pushq	%rax
.Ltmp787:
	.cfi_def_cfa_offset 16
	movq	%rdi, (%rsp)
	.loc	28 439 0 prologue_end   # /usr/lib/gcc/x86_64-linux-gnu/4.8/../../../../include/c++/4.8/bits/stl_tree.h:439:0
.Ltmp788:
	callq	_ZNSt8_Rb_treeISsSt4pairIKSsP12netlist_elemESt10_Select1stIS4_ESt4lessISsESaIS4_EE13_Rb_tree_implIS8_Lb0EED2Ev
	popq	%rax
	ret
.Ltmp789:
.Ltmp790:
	.size	_ZNSt8_Rb_treeISsSt4pairIKSsP12netlist_elemESt10_Select1stIS4_ESt4lessISsESaIS4_EE13_Rb_tree_implIS8_Lb0EED1Ev, .Ltmp790-_ZNSt8_Rb_treeISsSt4pairIKSsP12netlist_elemESt10_Select1stIS4_ESt4lessISsESaIS4_EE13_Rb_tree_implIS8_Lb0EED1Ev
.Lfunc_end108:
	.cfi_endproc

	.section	.text._ZNSt8_Rb_treeISsSt4pairIKSsP12netlist_elemESt10_Select1stIS4_ESt4lessISsESaIS4_EE13_Rb_tree_implIS8_Lb0EED2Ev,"axG",@progbits,_ZNSt8_Rb_treeISsSt4pairIKSsP12netlist_elemESt10_Select1stIS4_ESt4lessISsESaIS4_EE13_Rb_tree_implIS8_Lb0EED2Ev,comdat
	.weak	_ZNSt8_Rb_treeISsSt4pairIKSsP12netlist_elemESt10_Select1stIS4_ESt4lessISsESaIS4_EE13_Rb_tree_implIS8_Lb0EED2Ev
	.align	16, 0x90
	.type	_ZNSt8_Rb_treeISsSt4pairIKSsP12netlist_elemESt10_Select1stIS4_ESt4lessISsESaIS4_EE13_Rb_tree_implIS8_Lb0EED2Ev,@function
_ZNSt8_Rb_treeISsSt4pairIKSsP12netlist_elemESt10_Select1stIS4_ESt4lessISsESaIS4_EE13_Rb_tree_implIS8_Lb0EED2Ev: # @_ZNSt8_Rb_treeISsSt4pairIKSsP12netlist_elemESt10_Select1stIS4_ESt4lessISsESaIS4_EE13_Rb_tree_implIS8_Lb0EED2Ev
	.cfi_startproc
.Lfunc_begin109:
	.loc	28 439 0                # /usr/lib/gcc/x86_64-linux-gnu/4.8/../../../../include/c++/4.8/bits/stl_tree.h:439:0
# BB#0:                                 # %entry
	pushq	%rax
.Ltmp792:
	.cfi_def_cfa_offset 16
	movq	%rdi, (%rsp)
	.loc	28 439 0 prologue_end   # /usr/lib/gcc/x86_64-linux-gnu/4.8/../../../../include/c++/4.8/bits/stl_tree.h:439:0
.Ltmp793:
	callq	_ZNSaISt13_Rb_tree_nodeISt4pairIKSsP12netlist_elemEEED2Ev
	popq	%rax
	ret
.Ltmp794:
.Ltmp795:
	.size	_ZNSt8_Rb_treeISsSt4pairIKSsP12netlist_elemESt10_Select1stIS4_ESt4lessISsESaIS4_EE13_Rb_tree_implIS8_Lb0EED2Ev, .Ltmp795-_ZNSt8_Rb_treeISsSt4pairIKSsP12netlist_elemESt10_Select1stIS4_ESt4lessISsESaIS4_EE13_Rb_tree_implIS8_Lb0EED2Ev
.Lfunc_end109:
	.cfi_endproc

	.section	.text._ZNSaISt13_Rb_tree_nodeISt4pairIKSsP12netlist_elemEEED2Ev,"axG",@progbits,_ZNSaISt13_Rb_tree_nodeISt4pairIKSsP12netlist_elemEEED2Ev,comdat
	.weak	_ZNSaISt13_Rb_tree_nodeISt4pairIKSsP12netlist_elemEEED2Ev
	.align	16, 0x90
	.type	_ZNSaISt13_Rb_tree_nodeISt4pairIKSsP12netlist_elemEEED2Ev,@function
_ZNSaISt13_Rb_tree_nodeISt4pairIKSsP12netlist_elemEEED2Ev: # @_ZNSaISt13_Rb_tree_nodeISt4pairIKSsP12netlist_elemEEED2Ev
	.cfi_startproc
.Lfunc_begin110:
	.loc	10 121 0                # /usr/lib/gcc/x86_64-linux-gnu/4.8/../../../../include/c++/4.8/bits/allocator.h:121:0
# BB#0:                                 # %entry
	pushq	%rax
.Ltmp797:
	.cfi_def_cfa_offset 16
	movq	%rdi, (%rsp)
	.loc	10 121 0 prologue_end   # /usr/lib/gcc/x86_64-linux-gnu/4.8/../../../../include/c++/4.8/bits/allocator.h:121:0
.Ltmp798:
	callq	_ZN9__gnu_cxx13new_allocatorISt13_Rb_tree_nodeISt4pairIKSsP12netlist_elemEEED2Ev
	popq	%rax
	ret
.Ltmp799:
.Ltmp800:
	.size	_ZNSaISt13_Rb_tree_nodeISt4pairIKSsP12netlist_elemEEED2Ev, .Ltmp800-_ZNSaISt13_Rb_tree_nodeISt4pairIKSsP12netlist_elemEEED2Ev
.Lfunc_end110:
	.cfi_endproc

	.section	.text._ZN9__gnu_cxx13new_allocatorISt13_Rb_tree_nodeISt4pairIKSsP12netlist_elemEEED2Ev,"axG",@progbits,_ZN9__gnu_cxx13new_allocatorISt13_Rb_tree_nodeISt4pairIKSsP12netlist_elemEEED2Ev,comdat
	.weak	_ZN9__gnu_cxx13new_allocatorISt13_Rb_tree_nodeISt4pairIKSsP12netlist_elemEEED2Ev
	.align	16, 0x90
	.type	_ZN9__gnu_cxx13new_allocatorISt13_Rb_tree_nodeISt4pairIKSsP12netlist_elemEEED2Ev,@function
_ZN9__gnu_cxx13new_allocatorISt13_Rb_tree_nodeISt4pairIKSsP12netlist_elemEEED2Ev: # @_ZN9__gnu_cxx13new_allocatorISt13_Rb_tree_nodeISt4pairIKSsP12netlist_elemEEED2Ev
	.cfi_startproc
.Lfunc_begin111:
	.loc	9 86 0                  # /usr/lib/gcc/x86_64-linux-gnu/4.8/../../../../include/c++/4.8/ext/new_allocator.h:86:0
# BB#0:                                 # %entry
	movq	%rdi, -8(%rsp)
	.loc	9 86 0 prologue_end     # /usr/lib/gcc/x86_64-linux-gnu/4.8/../../../../include/c++/4.8/ext/new_allocator.h:86:0
.Ltmp801:
	ret
.Ltmp802:
.Ltmp803:
	.size	_ZN9__gnu_cxx13new_allocatorISt13_Rb_tree_nodeISt4pairIKSsP12netlist_elemEEED2Ev, .Ltmp803-_ZN9__gnu_cxx13new_allocatorISt13_Rb_tree_nodeISt4pairIKSsP12netlist_elemEEED2Ev
.Lfunc_end111:
	.cfi_endproc

	.section	.text._ZNSt8_Rb_treeISsSt4pairIKSsP12netlist_elemESt10_Select1stIS4_ESt4lessISsESaIS4_EE8_S_rightEPSt18_Rb_tree_node_base,"axG",@progbits,_ZNSt8_Rb_treeISsSt4pairIKSsP12netlist_elemESt10_Select1stIS4_ESt4lessISsESaIS4_EE8_S_rightEPSt18_Rb_tree_node_base,comdat
	.weak	_ZNSt8_Rb_treeISsSt4pairIKSsP12netlist_elemESt10_Select1stIS4_ESt4lessISsESaIS4_EE8_S_rightEPSt18_Rb_tree_node_base
	.align	16, 0x90
	.type	_ZNSt8_Rb_treeISsSt4pairIKSsP12netlist_elemESt10_Select1stIS4_ESt4lessISsESaIS4_EE8_S_rightEPSt18_Rb_tree_node_base,@function
_ZNSt8_Rb_treeISsSt4pairIKSsP12netlist_elemESt10_Select1stIS4_ESt4lessISsESaIS4_EE8_S_rightEPSt18_Rb_tree_node_base: # @_ZNSt8_Rb_treeISsSt4pairIKSsP12netlist_elemESt10_Select1stIS4_ESt4lessISsESaIS4_EE8_S_rightEPSt18_Rb_tree_node_base
	.cfi_startproc
.Lfunc_begin112:
	.loc	28 537 0                # /usr/lib/gcc/x86_64-linux-gnu/4.8/../../../../include/c++/4.8/bits/stl_tree.h:537:0
# BB#0:                                 # %entry
	movq	%rdi, -8(%rsp)
	.loc	28 537 0 prologue_end   # /usr/lib/gcc/x86_64-linux-gnu/4.8/../../../../include/c++/4.8/bits/stl_tree.h:537:0
.Ltmp804:
	movq	24(%rdi), %rax
	ret
.Ltmp805:
.Ltmp806:
	.size	_ZNSt8_Rb_treeISsSt4pairIKSsP12netlist_elemESt10_Select1stIS4_ESt4lessISsESaIS4_EE8_S_rightEPSt18_Rb_tree_node_base, .Ltmp806-_ZNSt8_Rb_treeISsSt4pairIKSsP12netlist_elemESt10_Select1stIS4_ESt4lessISsESaIS4_EE8_S_rightEPSt18_Rb_tree_node_base
.Lfunc_end112:
	.cfi_endproc

	.section	.text._ZNSt8_Rb_treeISsSt4pairIKSsP12netlist_elemESt10_Select1stIS4_ESt4lessISsESaIS4_EE7_S_leftEPSt18_Rb_tree_node_base,"axG",@progbits,_ZNSt8_Rb_treeISsSt4pairIKSsP12netlist_elemESt10_Select1stIS4_ESt4lessISsESaIS4_EE7_S_leftEPSt18_Rb_tree_node_base,comdat
	.weak	_ZNSt8_Rb_treeISsSt4pairIKSsP12netlist_elemESt10_Select1stIS4_ESt4lessISsESaIS4_EE7_S_leftEPSt18_Rb_tree_node_base
	.align	16, 0x90
	.type	_ZNSt8_Rb_treeISsSt4pairIKSsP12netlist_elemESt10_Select1stIS4_ESt4lessISsESaIS4_EE7_S_leftEPSt18_Rb_tree_node_base,@function
_ZNSt8_Rb_treeISsSt4pairIKSsP12netlist_elemESt10_Select1stIS4_ESt4lessISsESaIS4_EE7_S_leftEPSt18_Rb_tree_node_base: # @_ZNSt8_Rb_treeISsSt4pairIKSsP12netlist_elemESt10_Select1stIS4_ESt4lessISsESaIS4_EE7_S_leftEPSt18_Rb_tree_node_base
	.cfi_startproc
.Lfunc_begin113:
	.loc	28 529 0                # /usr/lib/gcc/x86_64-linux-gnu/4.8/../../../../include/c++/4.8/bits/stl_tree.h:529:0
# BB#0:                                 # %entry
	movq	%rdi, -8(%rsp)
	.loc	28 529 0 prologue_end   # /usr/lib/gcc/x86_64-linux-gnu/4.8/../../../../include/c++/4.8/bits/stl_tree.h:529:0
.Ltmp807:
	movq	16(%rdi), %rax
	ret
.Ltmp808:
.Ltmp809:
	.size	_ZNSt8_Rb_treeISsSt4pairIKSsP12netlist_elemESt10_Select1stIS4_ESt4lessISsESaIS4_EE7_S_leftEPSt18_Rb_tree_node_base, .Ltmp809-_ZNSt8_Rb_treeISsSt4pairIKSsP12netlist_elemESt10_Select1stIS4_ESt4lessISsESaIS4_EE7_S_leftEPSt18_Rb_tree_node_base
.Lfunc_end113:
	.cfi_endproc

	.section	.text._ZNSt8_Rb_treeISsSt4pairIKSsP12netlist_elemESt10_Select1stIS4_ESt4lessISsESaIS4_EE15_M_destroy_nodeEPSt13_Rb_tree_nodeIS4_E,"axG",@progbits,_ZNSt8_Rb_treeISsSt4pairIKSsP12netlist_elemESt10_Select1stIS4_ESt4lessISsESaIS4_EE15_M_destroy_nodeEPSt13_Rb_tree_nodeIS4_E,comdat
	.weak	_ZNSt8_Rb_treeISsSt4pairIKSsP12netlist_elemESt10_Select1stIS4_ESt4lessISsESaIS4_EE15_M_destroy_nodeEPSt13_Rb_tree_nodeIS4_E
	.align	16, 0x90
	.type	_ZNSt8_Rb_treeISsSt4pairIKSsP12netlist_elemESt10_Select1stIS4_ESt4lessISsESaIS4_EE15_M_destroy_nodeEPSt13_Rb_tree_nodeIS4_E,@function
_ZNSt8_Rb_treeISsSt4pairIKSsP12netlist_elemESt10_Select1stIS4_ESt4lessISsESaIS4_EE15_M_destroy_nodeEPSt13_Rb_tree_nodeIS4_E: # @_ZNSt8_Rb_treeISsSt4pairIKSsP12netlist_elemESt10_Select1stIS4_ESt4lessISsESaIS4_EE15_M_destroy_nodeEPSt13_Rb_tree_nodeIS4_E
	.cfi_startproc
	.cfi_personality 3, __gxx_personality_v0
.Leh_func_begin114:
	.cfi_lsda 3, .Lexception114
.Lfunc_begin114:
	.loc	28 394 0                # /usr/lib/gcc/x86_64-linux-gnu/4.8/../../../../include/c++/4.8/bits/stl_tree.h:394:0
# BB#0:                                 # %entry
	pushq	%rbx
.Ltmp817:
	.cfi_def_cfa_offset 16
	subq	$48, %rsp
.Ltmp818:
	.cfi_def_cfa_offset 64
.Ltmp819:
	.cfi_offset %rbx, -16
	movq	%rdi, 40(%rsp)
	movq	%rsi, 32(%rsp)
	movq	40(%rsp), %rbx
	leaq	24(%rsp), %rdi
	.loc	28 395 0 prologue_end   # /usr/lib/gcc/x86_64-linux-gnu/4.8/../../../../include/c++/4.8/bits/stl_tree.h:395:0
.Ltmp820:
	movq	%rbx, %rsi
	callq	_ZNKSt8_Rb_treeISsSt4pairIKSsP12netlist_elemESt10_Select1stIS4_ESt4lessISsESaIS4_EE13get_allocatorEv
	movq	32(%rsp), %rdi
.Ltmp810:
	addq	$32, %rdi
	callq	_ZSt11__addressofISt4pairIKSsP12netlist_elemEEPT_RS5_
.Ltmp811:
# BB#1:                                 # %invoke.cont
.Ltmp812:
	leaq	24(%rsp), %rdi
	movq	%rax, %rsi
	callq	_ZN9__gnu_cxx13new_allocatorISt4pairIKSsP12netlist_elemEE7destroyEPS5_
.Ltmp813:
# BB#2:                                 # %invoke.cont2
	leaq	24(%rsp), %rdi
	callq	_ZNSaISt4pairIKSsP12netlist_elemEED1Ev
	.loc	28 396 0                # /usr/lib/gcc/x86_64-linux-gnu/4.8/../../../../include/c++/4.8/bits/stl_tree.h:396:0
	movq	32(%rsp), %rsi
	movq	%rbx, %rdi
	callq	_ZNSt8_Rb_treeISsSt4pairIKSsP12netlist_elemESt10_Select1stIS4_ESt4lessISsESaIS4_EE11_M_put_nodeEPSt13_Rb_tree_nodeIS4_E
	.loc	28 397 0                # /usr/lib/gcc/x86_64-linux-gnu/4.8/../../../../include/c++/4.8/bits/stl_tree.h:397:0
	addq	$48, %rsp
	popq	%rbx
	ret
.LBB114_3:                              # %eh.resume
.Ltmp814:
	.loc	28 395 0                # /usr/lib/gcc/x86_64-linux-gnu/4.8/../../../../include/c++/4.8/bits/stl_tree.h:395:0
	movq	%rax, 16(%rsp)
	movl	%edx, 12(%rsp)
	leaq	24(%rsp), %rdi
	callq	_ZNSaISt4pairIKSsP12netlist_elemEED1Ev
	movq	16(%rsp), %rdi
	callq	_Unwind_Resume
.Ltmp821:
.Ltmp822:
	.size	_ZNSt8_Rb_treeISsSt4pairIKSsP12netlist_elemESt10_Select1stIS4_ESt4lessISsESaIS4_EE15_M_destroy_nodeEPSt13_Rb_tree_nodeIS4_E, .Ltmp822-_ZNSt8_Rb_treeISsSt4pairIKSsP12netlist_elemESt10_Select1stIS4_ESt4lessISsESaIS4_EE15_M_destroy_nodeEPSt13_Rb_tree_nodeIS4_E
.Lfunc_end114:
	.cfi_endproc
.Leh_func_end114:
	.section	.gcc_except_table,"a",@progbits
	.align	4
GCC_except_table114:
.Lexception114:
	.byte	255                     # @LPStart Encoding = omit
	.byte	3                       # @TType Encoding = udata4
	.byte	41                      # @TType base offset
	.byte	3                       # Call site Encoding = udata4
	.byte	39                      # Call site table length
.Lset162 = .Leh_func_begin114-.Leh_func_begin114 # >> Call Site 1 <<
	.long	.Lset162
.Lset163 = .Ltmp810-.Leh_func_begin114  #   Call between .Leh_func_begin114 and .Ltmp810
	.long	.Lset163
	.long	0                       #     has no landing pad
	.byte	0                       #   On action: cleanup
.Lset164 = .Ltmp810-.Leh_func_begin114  # >> Call Site 2 <<
	.long	.Lset164
.Lset165 = .Ltmp813-.Ltmp810            #   Call between .Ltmp810 and .Ltmp813
	.long	.Lset165
.Lset166 = .Ltmp814-.Leh_func_begin114  #     jumps to .Ltmp814
	.long	.Lset166
	.byte	0                       #   On action: cleanup
.Lset167 = .Ltmp813-.Leh_func_begin114  # >> Call Site 3 <<
	.long	.Lset167
.Lset168 = .Leh_func_end114-.Ltmp813    #   Call between .Ltmp813 and .Leh_func_end114
	.long	.Lset168
	.long	0                       #     has no landing pad
	.byte	0                       #   On action: cleanup
	.align	4

	.section	.text._ZNKSt8_Rb_treeISsSt4pairIKSsP12netlist_elemESt10_Select1stIS4_ESt4lessISsESaIS4_EE13get_allocatorEv,"axG",@progbits,_ZNKSt8_Rb_treeISsSt4pairIKSsP12netlist_elemESt10_Select1stIS4_ESt4lessISsESaIS4_EE13get_allocatorEv,comdat
	.weak	_ZNKSt8_Rb_treeISsSt4pairIKSsP12netlist_elemESt10_Select1stIS4_ESt4lessISsESaIS4_EE13get_allocatorEv
	.align	16, 0x90
	.type	_ZNKSt8_Rb_treeISsSt4pairIKSsP12netlist_elemESt10_Select1stIS4_ESt4lessISsESaIS4_EE13get_allocatorEv,@function
_ZNKSt8_Rb_treeISsSt4pairIKSsP12netlist_elemESt10_Select1stIS4_ESt4lessISsESaIS4_EE13get_allocatorEv: # @_ZNKSt8_Rb_treeISsSt4pairIKSsP12netlist_elemESt10_Select1stIS4_ESt4lessISsESaIS4_EE13get_allocatorEv
	.cfi_startproc
.Lfunc_begin115:
	.loc	28 365 0                # /usr/lib/gcc/x86_64-linux-gnu/4.8/../../../../include/c++/4.8/bits/stl_tree.h:365:0
# BB#0:                                 # %entry
	pushq	%rbx
.Ltmp825:
	.cfi_def_cfa_offset 16
	subq	$16, %rsp
.Ltmp826:
	.cfi_def_cfa_offset 32
.Ltmp827:
	.cfi_offset %rbx, -16
	movq	%rdi, %rbx
	movq	%rsi, 8(%rsp)
	.loc	28 365 0 prologue_end   # /usr/lib/gcc/x86_64-linux-gnu/4.8/../../../../include/c++/4.8/bits/stl_tree.h:365:0
.Ltmp828:
	movq	%rsi, %rdi
	callq	_ZNKSt8_Rb_treeISsSt4pairIKSsP12netlist_elemESt10_Select1stIS4_ESt4lessISsESaIS4_EE21_M_get_Node_allocatorEv
	movq	%rbx, %rdi
	movq	%rax, %rsi
	callq	_ZNSaISt4pairIKSsP12netlist_elemEEC1ISt13_Rb_tree_nodeIS3_EEERKSaIT_E
	movq	%rbx, %rax
	addq	$16, %rsp
	popq	%rbx
	ret
.Ltmp829:
.Ltmp830:
	.size	_ZNKSt8_Rb_treeISsSt4pairIKSsP12netlist_elemESt10_Select1stIS4_ESt4lessISsESaIS4_EE13get_allocatorEv, .Ltmp830-_ZNKSt8_Rb_treeISsSt4pairIKSsP12netlist_elemESt10_Select1stIS4_ESt4lessISsESaIS4_EE13get_allocatorEv
.Lfunc_end115:
	.cfi_endproc

	.section	.text._ZN9__gnu_cxx13new_allocatorISt4pairIKSsP12netlist_elemEE7destroyEPS5_,"axG",@progbits,_ZN9__gnu_cxx13new_allocatorISt4pairIKSsP12netlist_elemEE7destroyEPS5_,comdat
	.weak	_ZN9__gnu_cxx13new_allocatorISt4pairIKSsP12netlist_elemEE7destroyEPS5_
	.align	16, 0x90
	.type	_ZN9__gnu_cxx13new_allocatorISt4pairIKSsP12netlist_elemEE7destroyEPS5_,@function
_ZN9__gnu_cxx13new_allocatorISt4pairIKSsP12netlist_elemEE7destroyEPS5_: # @_ZN9__gnu_cxx13new_allocatorISt4pairIKSsP12netlist_elemEE7destroyEPS5_
	.cfi_startproc
.Lfunc_begin116:
	.loc	9 133 0                 # /usr/lib/gcc/x86_64-linux-gnu/4.8/../../../../include/c++/4.8/ext/new_allocator.h:133:0
# BB#0:                                 # %entry
	subq	$24, %rsp
.Ltmp832:
	.cfi_def_cfa_offset 32
	movq	%rdi, 16(%rsp)
	movq	%rsi, 8(%rsp)
	.loc	9 133 0 prologue_end    # /usr/lib/gcc/x86_64-linux-gnu/4.8/../../../../include/c++/4.8/ext/new_allocator.h:133:0
.Ltmp833:
	movq	%rsi, %rdi
	callq	_ZNSt4pairIKSsP12netlist_elemED1Ev
	addq	$24, %rsp
	ret
.Ltmp834:
.Ltmp835:
	.size	_ZN9__gnu_cxx13new_allocatorISt4pairIKSsP12netlist_elemEE7destroyEPS5_, .Ltmp835-_ZN9__gnu_cxx13new_allocatorISt4pairIKSsP12netlist_elemEE7destroyEPS5_
.Lfunc_end116:
	.cfi_endproc

	.section	.text._ZSt11__addressofISt4pairIKSsP12netlist_elemEEPT_RS5_,"axG",@progbits,_ZSt11__addressofISt4pairIKSsP12netlist_elemEEPT_RS5_,comdat
	.weak	_ZSt11__addressofISt4pairIKSsP12netlist_elemEEPT_RS5_
	.align	16, 0x90
	.type	_ZSt11__addressofISt4pairIKSsP12netlist_elemEEPT_RS5_,@function
_ZSt11__addressofISt4pairIKSsP12netlist_elemEEPT_RS5_: # @_ZSt11__addressofISt4pairIKSsP12netlist_elemEEPT_RS5_
	.cfi_startproc
.Lfunc_begin117:
	.loc	32 48 0                 # /usr/lib/gcc/x86_64-linux-gnu/4.8/../../../../include/c++/4.8/bits/move.h:48:0
# BB#0:                                 # %entry
	movq	%rdi, -8(%rsp)
	.loc	32 49 0 prologue_end    # /usr/lib/gcc/x86_64-linux-gnu/4.8/../../../../include/c++/4.8/bits/move.h:49:0
.Ltmp836:
	movq	%rdi, %rax
	ret
.Ltmp837:
.Ltmp838:
	.size	_ZSt11__addressofISt4pairIKSsP12netlist_elemEEPT_RS5_, .Ltmp838-_ZSt11__addressofISt4pairIKSsP12netlist_elemEEPT_RS5_
.Lfunc_end117:
	.cfi_endproc

	.section	.text._ZNSaISt4pairIKSsP12netlist_elemEED1Ev,"axG",@progbits,_ZNSaISt4pairIKSsP12netlist_elemEED1Ev,comdat
	.weak	_ZNSaISt4pairIKSsP12netlist_elemEED1Ev
	.align	16, 0x90
	.type	_ZNSaISt4pairIKSsP12netlist_elemEED1Ev,@function
_ZNSaISt4pairIKSsP12netlist_elemEED1Ev: # @_ZNSaISt4pairIKSsP12netlist_elemEED1Ev
	.cfi_startproc
.Lfunc_begin118:
	.loc	10 121 0                # /usr/lib/gcc/x86_64-linux-gnu/4.8/../../../../include/c++/4.8/bits/allocator.h:121:0
# BB#0:                                 # %entry
	pushq	%rax
.Ltmp840:
	.cfi_def_cfa_offset 16
	movq	%rdi, (%rsp)
	.loc	10 121 0 prologue_end   # /usr/lib/gcc/x86_64-linux-gnu/4.8/../../../../include/c++/4.8/bits/allocator.h:121:0
.Ltmp841:
	callq	_ZNSaISt4pairIKSsP12netlist_elemEED2Ev
	popq	%rax
	ret
.Ltmp842:
.Ltmp843:
	.size	_ZNSaISt4pairIKSsP12netlist_elemEED1Ev, .Ltmp843-_ZNSaISt4pairIKSsP12netlist_elemEED1Ev
.Lfunc_end118:
	.cfi_endproc

	.section	.text._ZNSt8_Rb_treeISsSt4pairIKSsP12netlist_elemESt10_Select1stIS4_ESt4lessISsESaIS4_EE11_M_put_nodeEPSt13_Rb_tree_nodeIS4_E,"axG",@progbits,_ZNSt8_Rb_treeISsSt4pairIKSsP12netlist_elemESt10_Select1stIS4_ESt4lessISsESaIS4_EE11_M_put_nodeEPSt13_Rb_tree_nodeIS4_E,comdat
	.weak	_ZNSt8_Rb_treeISsSt4pairIKSsP12netlist_elemESt10_Select1stIS4_ESt4lessISsESaIS4_EE11_M_put_nodeEPSt13_Rb_tree_nodeIS4_E
	.align	16, 0x90
	.type	_ZNSt8_Rb_treeISsSt4pairIKSsP12netlist_elemESt10_Select1stIS4_ESt4lessISsESaIS4_EE11_M_put_nodeEPSt13_Rb_tree_nodeIS4_E,@function
_ZNSt8_Rb_treeISsSt4pairIKSsP12netlist_elemESt10_Select1stIS4_ESt4lessISsESaIS4_EE11_M_put_nodeEPSt13_Rb_tree_nodeIS4_E: # @_ZNSt8_Rb_treeISsSt4pairIKSsP12netlist_elemESt10_Select1stIS4_ESt4lessISsESaIS4_EE11_M_put_nodeEPSt13_Rb_tree_nodeIS4_E
	.cfi_startproc
.Lfunc_begin119:
	.loc	28 374 0                # /usr/lib/gcc/x86_64-linux-gnu/4.8/../../../../include/c++/4.8/bits/stl_tree.h:374:0
# BB#0:                                 # %entry
	subq	$24, %rsp
.Ltmp845:
	.cfi_def_cfa_offset 32
	movq	%rdi, 16(%rsp)
	movq	%rsi, 8(%rsp)
	movq	16(%rsp), %rdi
	movl	$1, %edx
	.loc	28 374 0 prologue_end   # /usr/lib/gcc/x86_64-linux-gnu/4.8/../../../../include/c++/4.8/bits/stl_tree.h:374:0
.Ltmp846:
	callq	_ZN9__gnu_cxx13new_allocatorISt13_Rb_tree_nodeISt4pairIKSsP12netlist_elemEEE10deallocateEPS7_m
	addq	$24, %rsp
	ret
.Ltmp847:
.Ltmp848:
	.size	_ZNSt8_Rb_treeISsSt4pairIKSsP12netlist_elemESt10_Select1stIS4_ESt4lessISsESaIS4_EE11_M_put_nodeEPSt13_Rb_tree_nodeIS4_E, .Ltmp848-_ZNSt8_Rb_treeISsSt4pairIKSsP12netlist_elemESt10_Select1stIS4_ESt4lessISsESaIS4_EE11_M_put_nodeEPSt13_Rb_tree_nodeIS4_E
.Lfunc_end119:
	.cfi_endproc

	.section	.text._ZN9__gnu_cxx13new_allocatorISt13_Rb_tree_nodeISt4pairIKSsP12netlist_elemEEE10deallocateEPS7_m,"axG",@progbits,_ZN9__gnu_cxx13new_allocatorISt13_Rb_tree_nodeISt4pairIKSsP12netlist_elemEEE10deallocateEPS7_m,comdat
	.weak	_ZN9__gnu_cxx13new_allocatorISt13_Rb_tree_nodeISt4pairIKSsP12netlist_elemEEE10deallocateEPS7_m
	.align	16, 0x90
	.type	_ZN9__gnu_cxx13new_allocatorISt13_Rb_tree_nodeISt4pairIKSsP12netlist_elemEEE10deallocateEPS7_m,@function
_ZN9__gnu_cxx13new_allocatorISt13_Rb_tree_nodeISt4pairIKSsP12netlist_elemEEE10deallocateEPS7_m: # @_ZN9__gnu_cxx13new_allocatorISt13_Rb_tree_nodeISt4pairIKSsP12netlist_elemEEE10deallocateEPS7_m
	.cfi_startproc
.Lfunc_begin120:
	.loc	9 110 0                 # /usr/lib/gcc/x86_64-linux-gnu/4.8/../../../../include/c++/4.8/ext/new_allocator.h:110:0
# BB#0:                                 # %entry
	subq	$24, %rsp
.Ltmp850:
	.cfi_def_cfa_offset 32
	movq	%rdi, 16(%rsp)
	movq	%rsi, 8(%rsp)
	movq	%rdx, (%rsp)
	.loc	9 110 0 prologue_end    # /usr/lib/gcc/x86_64-linux-gnu/4.8/../../../../include/c++/4.8/ext/new_allocator.h:110:0
.Ltmp851:
	movq	8(%rsp), %rdi
	callq	_ZdlPv
	addq	$24, %rsp
	ret
.Ltmp852:
.Ltmp853:
	.size	_ZN9__gnu_cxx13new_allocatorISt13_Rb_tree_nodeISt4pairIKSsP12netlist_elemEEE10deallocateEPS7_m, .Ltmp853-_ZN9__gnu_cxx13new_allocatorISt13_Rb_tree_nodeISt4pairIKSsP12netlist_elemEEE10deallocateEPS7_m
.Lfunc_end120:
	.cfi_endproc

	.section	.text._ZNSaISt4pairIKSsP12netlist_elemEED2Ev,"axG",@progbits,_ZNSaISt4pairIKSsP12netlist_elemEED2Ev,comdat
	.weak	_ZNSaISt4pairIKSsP12netlist_elemEED2Ev
	.align	16, 0x90
	.type	_ZNSaISt4pairIKSsP12netlist_elemEED2Ev,@function
_ZNSaISt4pairIKSsP12netlist_elemEED2Ev: # @_ZNSaISt4pairIKSsP12netlist_elemEED2Ev
	.cfi_startproc
.Lfunc_begin121:
	.loc	10 121 0                # /usr/lib/gcc/x86_64-linux-gnu/4.8/../../../../include/c++/4.8/bits/allocator.h:121:0
# BB#0:                                 # %entry
	pushq	%rax
.Ltmp855:
	.cfi_def_cfa_offset 16
	movq	%rdi, (%rsp)
	.loc	10 121 0 prologue_end   # /usr/lib/gcc/x86_64-linux-gnu/4.8/../../../../include/c++/4.8/bits/allocator.h:121:0
.Ltmp856:
	callq	_ZN9__gnu_cxx13new_allocatorISt4pairIKSsP12netlist_elemEED2Ev
	popq	%rax
	ret
.Ltmp857:
.Ltmp858:
	.size	_ZNSaISt4pairIKSsP12netlist_elemEED2Ev, .Ltmp858-_ZNSaISt4pairIKSsP12netlist_elemEED2Ev
.Lfunc_end121:
	.cfi_endproc

	.section	.text._ZN9__gnu_cxx13new_allocatorISt4pairIKSsP12netlist_elemEED2Ev,"axG",@progbits,_ZN9__gnu_cxx13new_allocatorISt4pairIKSsP12netlist_elemEED2Ev,comdat
	.weak	_ZN9__gnu_cxx13new_allocatorISt4pairIKSsP12netlist_elemEED2Ev
	.align	16, 0x90
	.type	_ZN9__gnu_cxx13new_allocatorISt4pairIKSsP12netlist_elemEED2Ev,@function
_ZN9__gnu_cxx13new_allocatorISt4pairIKSsP12netlist_elemEED2Ev: # @_ZN9__gnu_cxx13new_allocatorISt4pairIKSsP12netlist_elemEED2Ev
	.cfi_startproc
.Lfunc_begin122:
	.loc	9 86 0                  # /usr/lib/gcc/x86_64-linux-gnu/4.8/../../../../include/c++/4.8/ext/new_allocator.h:86:0
# BB#0:                                 # %entry
	movq	%rdi, -8(%rsp)
	.loc	9 86 0 prologue_end     # /usr/lib/gcc/x86_64-linux-gnu/4.8/../../../../include/c++/4.8/ext/new_allocator.h:86:0
.Ltmp859:
	ret
.Ltmp860:
.Ltmp861:
	.size	_ZN9__gnu_cxx13new_allocatorISt4pairIKSsP12netlist_elemEED2Ev, .Ltmp861-_ZN9__gnu_cxx13new_allocatorISt4pairIKSsP12netlist_elemEED2Ev
.Lfunc_end122:
	.cfi_endproc

	.section	.text._ZNSt4pairIKSsP12netlist_elemED1Ev,"axG",@progbits,_ZNSt4pairIKSsP12netlist_elemED1Ev,comdat
	.weak	_ZNSt4pairIKSsP12netlist_elemED1Ev
	.align	16, 0x90
	.type	_ZNSt4pairIKSsP12netlist_elemED1Ev,@function
_ZNSt4pairIKSsP12netlist_elemED1Ev:     # @_ZNSt4pairIKSsP12netlist_elemED1Ev
	.cfi_startproc
.Lfunc_begin123:
	.loc	29 96 0                 # /usr/lib/gcc/x86_64-linux-gnu/4.8/../../../../include/c++/4.8/bits/stl_pair.h:96:0
# BB#0:                                 # %entry
	pushq	%rax
.Ltmp863:
	.cfi_def_cfa_offset 16
	movq	%rdi, (%rsp)
	.loc	29 96 0 prologue_end    # /usr/lib/gcc/x86_64-linux-gnu/4.8/../../../../include/c++/4.8/bits/stl_pair.h:96:0
.Ltmp864:
	callq	_ZNSt4pairIKSsP12netlist_elemED2Ev
	popq	%rax
	ret
.Ltmp865:
.Ltmp866:
	.size	_ZNSt4pairIKSsP12netlist_elemED1Ev, .Ltmp866-_ZNSt4pairIKSsP12netlist_elemED1Ev
.Lfunc_end123:
	.cfi_endproc

	.section	.text._ZNSt4pairIKSsP12netlist_elemED2Ev,"axG",@progbits,_ZNSt4pairIKSsP12netlist_elemED2Ev,comdat
	.weak	_ZNSt4pairIKSsP12netlist_elemED2Ev
	.align	16, 0x90
	.type	_ZNSt4pairIKSsP12netlist_elemED2Ev,@function
_ZNSt4pairIKSsP12netlist_elemED2Ev:     # @_ZNSt4pairIKSsP12netlist_elemED2Ev
	.cfi_startproc
.Lfunc_begin124:
	.loc	29 96 0                 # /usr/lib/gcc/x86_64-linux-gnu/4.8/../../../../include/c++/4.8/bits/stl_pair.h:96:0
# BB#0:                                 # %entry
	pushq	%rax
.Ltmp868:
	.cfi_def_cfa_offset 16
	movq	%rdi, (%rsp)
	.loc	29 96 0 prologue_end    # /usr/lib/gcc/x86_64-linux-gnu/4.8/../../../../include/c++/4.8/bits/stl_pair.h:96:0
.Ltmp869:
	callq	_ZNSsD1Ev
	popq	%rax
	ret
.Ltmp870:
.Ltmp871:
	.size	_ZNSt4pairIKSsP12netlist_elemED2Ev, .Ltmp871-_ZNSt4pairIKSsP12netlist_elemED2Ev
.Lfunc_end124:
	.cfi_endproc

	.section	.text._ZNSaISt4pairIKSsP12netlist_elemEEC1ISt13_Rb_tree_nodeIS3_EEERKSaIT_E,"axG",@progbits,_ZNSaISt4pairIKSsP12netlist_elemEEC1ISt13_Rb_tree_nodeIS3_EEERKSaIT_E,comdat
	.weak	_ZNSaISt4pairIKSsP12netlist_elemEEC1ISt13_Rb_tree_nodeIS3_EEERKSaIT_E
	.align	16, 0x90
	.type	_ZNSaISt4pairIKSsP12netlist_elemEEC1ISt13_Rb_tree_nodeIS3_EEERKSaIT_E,@function
_ZNSaISt4pairIKSsP12netlist_elemEEC1ISt13_Rb_tree_nodeIS3_EEERKSaIT_E: # @_ZNSaISt4pairIKSsP12netlist_elemEEC1ISt13_Rb_tree_nodeIS3_EEERKSaIT_E
	.cfi_startproc
.Lfunc_begin125:
	.loc	10 119 0                # /usr/lib/gcc/x86_64-linux-gnu/4.8/../../../../include/c++/4.8/bits/allocator.h:119:0
# BB#0:                                 # %entry
	subq	$24, %rsp
.Ltmp873:
	.cfi_def_cfa_offset 32
	movq	%rdi, 16(%rsp)
	movq	%rsi, 8(%rsp)
	movq	16(%rsp), %rdi
	.loc	10 119 0 prologue_end   # /usr/lib/gcc/x86_64-linux-gnu/4.8/../../../../include/c++/4.8/bits/allocator.h:119:0
.Ltmp874:
	callq	_ZNSaISt4pairIKSsP12netlist_elemEEC2ISt13_Rb_tree_nodeIS3_EEERKSaIT_E
	addq	$24, %rsp
	ret
.Ltmp875:
.Ltmp876:
	.size	_ZNSaISt4pairIKSsP12netlist_elemEEC1ISt13_Rb_tree_nodeIS3_EEERKSaIT_E, .Ltmp876-_ZNSaISt4pairIKSsP12netlist_elemEEC1ISt13_Rb_tree_nodeIS3_EEERKSaIT_E
.Lfunc_end125:
	.cfi_endproc

	.section	.text._ZNKSt8_Rb_treeISsSt4pairIKSsP12netlist_elemESt10_Select1stIS4_ESt4lessISsESaIS4_EE21_M_get_Node_allocatorEv,"axG",@progbits,_ZNKSt8_Rb_treeISsSt4pairIKSsP12netlist_elemESt10_Select1stIS4_ESt4lessISsESaIS4_EE21_M_get_Node_allocatorEv,comdat
	.weak	_ZNKSt8_Rb_treeISsSt4pairIKSsP12netlist_elemESt10_Select1stIS4_ESt4lessISsESaIS4_EE21_M_get_Node_allocatorEv
	.align	16, 0x90
	.type	_ZNKSt8_Rb_treeISsSt4pairIKSsP12netlist_elemESt10_Select1stIS4_ESt4lessISsESaIS4_EE21_M_get_Node_allocatorEv,@function
_ZNKSt8_Rb_treeISsSt4pairIKSsP12netlist_elemESt10_Select1stIS4_ESt4lessISsESaIS4_EE21_M_get_Node_allocatorEv: # @_ZNKSt8_Rb_treeISsSt4pairIKSsP12netlist_elemESt10_Select1stIS4_ESt4lessISsESaIS4_EE21_M_get_Node_allocatorEv
	.cfi_startproc
.Lfunc_begin126:
	.loc	28 361 0                # /usr/lib/gcc/x86_64-linux-gnu/4.8/../../../../include/c++/4.8/bits/stl_tree.h:361:0
# BB#0:                                 # %entry
	movq	%rdi, -8(%rsp)
	.loc	28 361 0 prologue_end   # /usr/lib/gcc/x86_64-linux-gnu/4.8/../../../../include/c++/4.8/bits/stl_tree.h:361:0
.Ltmp877:
	movq	%rdi, %rax
	ret
.Ltmp878:
.Ltmp879:
	.size	_ZNKSt8_Rb_treeISsSt4pairIKSsP12netlist_elemESt10_Select1stIS4_ESt4lessISsESaIS4_EE21_M_get_Node_allocatorEv, .Ltmp879-_ZNKSt8_Rb_treeISsSt4pairIKSsP12netlist_elemESt10_Select1stIS4_ESt4lessISsESaIS4_EE21_M_get_Node_allocatorEv
.Lfunc_end126:
	.cfi_endproc

	.section	.text._ZNSaISt4pairIKSsP12netlist_elemEEC2ISt13_Rb_tree_nodeIS3_EEERKSaIT_E,"axG",@progbits,_ZNSaISt4pairIKSsP12netlist_elemEEC2ISt13_Rb_tree_nodeIS3_EEERKSaIT_E,comdat
	.weak	_ZNSaISt4pairIKSsP12netlist_elemEEC2ISt13_Rb_tree_nodeIS3_EEERKSaIT_E
	.align	16, 0x90
	.type	_ZNSaISt4pairIKSsP12netlist_elemEEC2ISt13_Rb_tree_nodeIS3_EEERKSaIT_E,@function
_ZNSaISt4pairIKSsP12netlist_elemEEC2ISt13_Rb_tree_nodeIS3_EEERKSaIT_E: # @_ZNSaISt4pairIKSsP12netlist_elemEEC2ISt13_Rb_tree_nodeIS3_EEERKSaIT_E
	.cfi_startproc
.Lfunc_begin127:
	.loc	10 119 0                # /usr/lib/gcc/x86_64-linux-gnu/4.8/../../../../include/c++/4.8/bits/allocator.h:119:0
# BB#0:                                 # %entry
	subq	$24, %rsp
.Ltmp881:
	.cfi_def_cfa_offset 32
	movq	%rdi, 16(%rsp)
	movq	%rsi, 8(%rsp)
	movq	16(%rsp), %rdi
	.loc	10 119 0 prologue_end   # /usr/lib/gcc/x86_64-linux-gnu/4.8/../../../../include/c++/4.8/bits/allocator.h:119:0
.Ltmp882:
	callq	_ZN9__gnu_cxx13new_allocatorISt4pairIKSsP12netlist_elemEEC2Ev
	.loc	10 119 0                # /usr/lib/gcc/x86_64-linux-gnu/4.8/../../../../include/c++/4.8/bits/allocator.h:119:0
.Ltmp883:
	addq	$24, %rsp
	ret
.Ltmp884:
.Ltmp885:
	.size	_ZNSaISt4pairIKSsP12netlist_elemEEC2ISt13_Rb_tree_nodeIS3_EEERKSaIT_E, .Ltmp885-_ZNSaISt4pairIKSsP12netlist_elemEEC2ISt13_Rb_tree_nodeIS3_EEERKSaIT_E
.Lfunc_end127:
	.cfi_endproc

	.section	.text._ZN9__gnu_cxx13new_allocatorISt4pairIKSsP12netlist_elemEEC2Ev,"axG",@progbits,_ZN9__gnu_cxx13new_allocatorISt4pairIKSsP12netlist_elemEEC2Ev,comdat
	.weak	_ZN9__gnu_cxx13new_allocatorISt4pairIKSsP12netlist_elemEEC2Ev
	.align	16, 0x90
	.type	_ZN9__gnu_cxx13new_allocatorISt4pairIKSsP12netlist_elemEEC2Ev,@function
_ZN9__gnu_cxx13new_allocatorISt4pairIKSsP12netlist_elemEEC2Ev: # @_ZN9__gnu_cxx13new_allocatorISt4pairIKSsP12netlist_elemEEC2Ev
	.cfi_startproc
.Lfunc_begin128:
	.loc	9 79 0                  # /usr/lib/gcc/x86_64-linux-gnu/4.8/../../../../include/c++/4.8/ext/new_allocator.h:79:0
# BB#0:                                 # %entry
	movq	%rdi, -8(%rsp)
	.loc	9 79 0 prologue_end     # /usr/lib/gcc/x86_64-linux-gnu/4.8/../../../../include/c++/4.8/ext/new_allocator.h:79:0
.Ltmp886:
	ret
.Ltmp887:
.Ltmp888:
	.size	_ZN9__gnu_cxx13new_allocatorISt4pairIKSsP12netlist_elemEEC2Ev, .Ltmp888-_ZN9__gnu_cxx13new_allocatorISt4pairIKSsP12netlist_elemEEC2Ev
.Lfunc_end128:
	.cfi_endproc

	.section	.text._ZN15annealer_threadD2Ev,"axG",@progbits,_ZN15annealer_threadD2Ev,comdat
	.weak	_ZN15annealer_threadD2Ev
	.align	16, 0x90
	.type	_ZN15annealer_threadD2Ev,@function
_ZN15annealer_threadD2Ev:               # @_ZN15annealer_threadD2Ev
	.cfi_startproc
.Lfunc_begin129:
	.loc	33 73 0                 # src/annealer_thread.h:73:0
# BB#0:                                 # %entry
	pushq	%rax
.Ltmp890:
	.cfi_def_cfa_offset 16
	movq	%rdi, (%rsp)
	.loc	33 75 0 prologue_end    # src/annealer_thread.h:75:0
.Ltmp891:
	addq	$24, %rdi
	callq	pthread_barrier_destroy
	.loc	33 77 0                 # src/annealer_thread.h:77:0
	popq	%rax
	ret
.Ltmp892:
.Ltmp893:
	.size	_ZN15annealer_threadD2Ev, .Ltmp893-_ZN15annealer_threadD2Ev
.Lfunc_end129:
	.cfi_endproc

	.section	.text._ZN15annealer_threadC2EP7netlistiiii,"axG",@progbits,_ZN15annealer_threadC2EP7netlistiiii,comdat
	.weak	_ZN15annealer_threadC2EP7netlistiiii
	.align	16, 0x90
	.type	_ZN15annealer_threadC2EP7netlistiiii,@function
_ZN15annealer_threadC2EP7netlistiiii:   # @_ZN15annealer_threadC2EP7netlistiiii
	.cfi_startproc
.Lfunc_begin130:
	.loc	33 66 0                 # src/annealer_thread.h:66:0
# BB#0:                                 # %entry
	subq	$40, %rsp
.Ltmp895:
	.cfi_def_cfa_offset 48
	movq	%rdi, 32(%rsp)
	movq	%rsi, 24(%rsp)
	movl	%edx, 20(%rsp)
	movl	%ecx, 16(%rsp)
	movl	%r8d, 12(%rsp)
	movl	%r9d, 8(%rsp)
	.loc	33 66 0 prologue_end    # src/annealer_thread.h:66:0
.Ltmp896:
	movq	24(%rsp), %rax
	movq	32(%rsp), %rdi
	movq	%rax, (%rdi)
	movb	$1, 8(%rdi)
	movl	16(%rsp), %eax
	cltd
	idivl	20(%rsp)
	movl	%eax, 12(%rdi)
	movl	12(%rsp), %eax
	movl	%eax, 16(%rdi)
	movl	8(%rsp), %eax
	movl	%eax, 20(%rdi)
	addq	$24, %rdi
	.loc	33 69 0                 # src/annealer_thread.h:69:0
.Ltmp897:
	movl	20(%rsp), %edx
	xorl	%esi, %esi
	callq	pthread_barrier_init
	.loc	33 71 0                 # src/annealer_thread.h:71:0
	addq	$40, %rsp
	ret
.Ltmp898:
.Ltmp899:
	.size	_ZN15annealer_threadC2EP7netlistiiii, .Ltmp899-_ZN15annealer_threadC2EP7netlistiiii
.Lfunc_end130:
	.cfi_endproc

	.section	.text.startup,"ax",@progbits
	.align	16, 0x90
	.type	_GLOBAL__I_a,@function
_GLOBAL__I_a:                           # @_GLOBAL__I_a
	.cfi_startproc
.Lfunc_begin131:
	.loc	1 71 0                  # src/main.cpp:71:0
# BB#0:                                 # %entry
	.loc	1 71 0 prologue_end     # src/main.cpp:71:0
	pushq	%rax
.Ltmp901:
	.cfi_def_cfa_offset 16
	callq	__cxx_global_var_init
	popq	%rax
	ret
.Ltmp902:
.Ltmp903:
	.size	_GLOBAL__I_a, .Ltmp903-_GLOBAL__I_a
.Lfunc_end131:
	.cfi_endproc

	.type	_ZStL8__ioinit,@object  # @_ZStL8__ioinit
	.lcomm	_ZStL8__ioinit,1
	.type	.L.str,@object          # @.str
	.section	.rodata.str1.1,"aMS",@progbits,1
.L.str:
	.asciz	 "PARSEC Benchmark Suite"
	.size	.L.str, 23

	.type	.L.str1,@object         # @.str1
.L.str1:
	.asciz	 "Usage: "
	.size	.L.str1, 8

	.type	.L.str2,@object         # @.str2
.L.str2:
	.asciz	 " NTHREADS NSWAPS TEMP NETLIST [NSTEPS]"
	.size	.L.str2, 39

	.type	.L.str3,@object         # @.str3
.L.str3:
	.asciz	 "Threadcount: "
	.size	.L.str3, 14

	.type	.L.str4,@object         # @.str4
.L.str4:
	.asciz	 " swaps per temperature step"
	.size	.L.str4, 28

	.type	.L.str5,@object         # @.str5
.L.str5:
	.asciz	 "start temperature: "
	.size	.L.str5, 20

	.type	.L.str6,@object         # @.str6
.L.str6:
	.asciz	 "netlist filename: "
	.size	.L.str6, 19

	.type	.L.str7,@object         # @.str7
.L.str7:
	.asciz	 "number of temperature steps: "
	.size	.L.str7, 30

	.type	.L.str8,@object         # @.str8
.L.str8:
	.asciz	 "Final routing is: "
	.size	.L.str8, 19

	.section	.ctors,"aw",@progbits
	.align	8
	.quad	_GLOBAL__I_a
	.text
.Ltext_end:
	.data
.Ldata_end:
	.text
.Lsection_end1: