	.file	"<stdin>"
	.file	1 "src/netlist_elem.cpp"
	.file	2 "/usr/lib/gcc/x86_64-linux-gnu/4.8/../../../../include/c++/4.8/bits/basic_string.h"
	.file	3 "/usr/lib/gcc/x86_64-linux-gnu/4.8/../../../../include/c++/4.8/bits/c++config.h"
	.file	4 "/usr/lib/gcc/x86_64-linux-gnu/4.8/../../../../include/c++/4.8/ext/new_allocator.h"
	.file	5 "/usr/lib/gcc/x86_64-linux-gnu/4.8/../../../../include/c++/4.8/bits/allocator.h"
	.file	6 "/usr/lib/gcc/x86_64-linux-gnu/4.8/../../../../include/c++/4.8/bits/memoryfwd.h"
	.file	7 "/usr/lib/gcc/x86_64-linux-gnu/4.8/../../../../include/c++/4.8/bits/stl_iterator.h"
	.file	8 "/usr/lib/gcc/x86_64-linux-gnu/4.8/../../../../include/c++/4.8/bits/basic_string.tcc"
	.file	9 "/usr/lib/gcc/x86_64-linux-gnu/4.8/../../../../include/c++/4.8/bits/stringfwd.h"
	.file	10 "/usr/lib/gcc/x86_64-linux-gnu/4.8/../../../../include/c++/4.8/bits/char_traits.h"
	.file	11 "src/location_t.h"
	.file	12 "src/AtomicPtr.h"
	.file	13 "src/netlist_elem.h"
	.file	14 "/usr/lib/gcc/x86_64-linux-gnu/4.8/../../../../include/c++/4.8/bits/stl_vector.h"
	.file	15 "/usr/lib/gcc/x86_64-linux-gnu/4.8/../../../../include/c++/4.8/ext/alloc_traits.h"
	.file	16 "src/atomic/amd64/atomic.h"
	.file	17 "/usr/lib/gcc/x86_64-linux-gnu/4.8/../../../../include/c++/4.8/bits/stl_construct.h"
	.text
.Ltext_begin:
	.data
	.text
	.globl	_ZN12netlist_elemC2Ev
	.align	16, 0x90
	.type	_ZN12netlist_elemC2Ev,@function
_ZN12netlist_elemC2Ev:                  # @_ZN12netlist_elemC2Ev
	.cfi_startproc
	.cfi_personality 3, __gxx_personality_v0
.Leh_func_begin0:
	.cfi_lsda 3, .Lexception0
.Lfunc_begin0:
	.loc	1 42 0                  # src/netlist_elem.cpp:42:0
# BB#0:                                 # %entry
	pushq	%r15
.Ltmp20:
	.cfi_def_cfa_offset 16
	pushq	%r14
.Ltmp21:
	.cfi_def_cfa_offset 24
	pushq	%rbx
.Ltmp22:
	.cfi_def_cfa_offset 32
	subq	$32, %rsp
.Ltmp23:
	.cfi_def_cfa_offset 64
.Ltmp24:
	.cfi_offset %rbx, -32
.Ltmp25:
	.cfi_offset %r14, -24
.Ltmp26:
	.cfi_offset %r15, -16
	movq	%rdi, %rbx
	movq	%rbx, 24(%rsp)
	.loc	1 42 0 prologue_end     # src/netlist_elem.cpp:42:0
.Ltmp27:
	callq	_ZNSsC1Ev
	leaq	8(%rbx), %r14
.Ltmp0:
	movq	%r14, %rdi
	callq	_ZNSt6vectorIP12netlist_elemSaIS1_EEC1Ev
.Ltmp1:
# BB#1:                                 # %invoke.cont
	leaq	32(%rbx), %r15
.Ltmp3:
	movq	%r15, %rdi
	callq	_ZNSt6vectorIP12netlist_elemSaIS1_EEC1Ev
.Ltmp4:
# BB#2:                                 # %invoke.cont3
.Ltmp6:
	leaq	56(%rbx), %rdi
	xorl	%esi, %esi
	callq	_ZN7threads9AtomicPtrI10location_tEC1EPS1_
.Ltmp7:
# BB#3:                                 # %invoke.cont5
	.loc	1 43 0                  # src/netlist_elem.cpp:43:0
.Ltmp28:
	addq	$32, %rsp
	popq	%rbx
	popq	%r14
	popq	%r15
	ret
.Ltmp29:
.LBB0_4:                                # %lpad
.Ltmp2:
	.loc	1 42 0                  # src/netlist_elem.cpp:42:0
	movq	%rax, 16(%rsp)
	movl	%edx, 12(%rsp)
	jmp	.LBB0_8
.LBB0_5:                                # %lpad2
.Ltmp5:
	movq	%rax, 16(%rsp)
	movl	%edx, 12(%rsp)
	jmp	.LBB0_7
.LBB0_6:                                # %lpad4
.Ltmp8:
	movq	%rax, 16(%rsp)
	movl	%edx, 12(%rsp)
	.loc	1 43 0                  # src/netlist_elem.cpp:43:0
.Ltmp30:
.Ltmp9:
	movq	%r15, %rdi
	callq	_ZNSt6vectorIP12netlist_elemSaIS1_EED1Ev
.Ltmp10:
.LBB0_7:                                # %ehcleanup
.Ltmp11:
	movq	%r14, %rdi
	callq	_ZNSt6vectorIP12netlist_elemSaIS1_EED1Ev
.Ltmp12:
.LBB0_8:                                # %ehcleanup8
.Ltmp13:
	movq	%rbx, %rdi
	callq	_ZNSsD1Ev
.Ltmp14:
# BB#9:                                 # %eh.resume
	movq	16(%rsp), %rdi
	callq	_Unwind_Resume
.LBB0_10:                               # %terminate.lpad
.Ltmp15:
	callq	_ZSt9terminatev
.Ltmp31:
.Ltmp32:
	.size	_ZN12netlist_elemC2Ev, .Ltmp32-_ZN12netlist_elemC2Ev
.Lfunc_end0:
	.cfi_endproc
.Leh_func_end0:
	.section	.gcc_except_table,"a",@progbits
	.align	4
GCC_except_table0:
.Lexception0:
	.byte	255                     # @LPStart Encoding = omit
	.byte	3                       # @TType Encoding = udata4
	.asciz	 "\326\200\200"         # @TType base offset
	.byte	3                       # Call site Encoding = udata4
	.byte	78                      # Call site table length
.Lset0 = .Leh_func_begin0-.Leh_func_begin0 # >> Call Site 1 <<
	.long	.Lset0
.Lset1 = .Ltmp0-.Leh_func_begin0        #   Call between .Leh_func_begin0 and .Ltmp0
	.long	.Lset1
	.long	0                       #     has no landing pad
	.byte	0                       #   On action: cleanup
.Lset2 = .Ltmp0-.Leh_func_begin0        # >> Call Site 2 <<
	.long	.Lset2
.Lset3 = .Ltmp1-.Ltmp0                  #   Call between .Ltmp0 and .Ltmp1
	.long	.Lset3
.Lset4 = .Ltmp2-.Leh_func_begin0        #     jumps to .Ltmp2
	.long	.Lset4
	.byte	0                       #   On action: cleanup
.Lset5 = .Ltmp3-.Leh_func_begin0        # >> Call Site 3 <<
	.long	.Lset5
.Lset6 = .Ltmp4-.Ltmp3                  #   Call between .Ltmp3 and .Ltmp4
	.long	.Lset6
.Lset7 = .Ltmp5-.Leh_func_begin0        #     jumps to .Ltmp5
	.long	.Lset7
	.byte	0                       #   On action: cleanup
.Lset8 = .Ltmp6-.Leh_func_begin0        # >> Call Site 4 <<
	.long	.Lset8
.Lset9 = .Ltmp7-.Ltmp6                  #   Call between .Ltmp6 and .Ltmp7
	.long	.Lset9
.Lset10 = .Ltmp8-.Leh_func_begin0       #     jumps to .Ltmp8
	.long	.Lset10
	.byte	0                       #   On action: cleanup
.Lset11 = .Ltmp9-.Leh_func_begin0       # >> Call Site 5 <<
	.long	.Lset11
.Lset12 = .Ltmp14-.Ltmp9                #   Call between .Ltmp9 and .Ltmp14
	.long	.Lset12
.Lset13 = .Ltmp15-.Leh_func_begin0      #     jumps to .Ltmp15
	.long	.Lset13
	.byte	1                       #   On action: 1
.Lset14 = .Ltmp14-.Leh_func_begin0      # >> Call Site 6 <<
	.long	.Lset14
.Lset15 = .Leh_func_end0-.Ltmp14        #   Call between .Ltmp14 and .Leh_func_end0
	.long	.Lset15
	.long	0                       #     has no landing pad
	.byte	0                       #   On action: cleanup
	.byte	1                       # >> Action Record 1 <<
                                        #   Catch TypeInfo 1
	.byte	0                       #   No further actions
                                        # >> Catch TypeInfos <<
	.long	0                       # TypeInfo 1
	.align	4

	.section	.text._ZNSt6vectorIP12netlist_elemSaIS1_EEC1Ev,"axG",@progbits,_ZNSt6vectorIP12netlist_elemSaIS1_EEC1Ev,comdat
	.weak	_ZNSt6vectorIP12netlist_elemSaIS1_EEC1Ev
	.align	16, 0x90
	.type	_ZNSt6vectorIP12netlist_elemSaIS1_EEC1Ev,@function
_ZNSt6vectorIP12netlist_elemSaIS1_EEC1Ev: # @_ZNSt6vectorIP12netlist_elemSaIS1_EEC1Ev
	.cfi_startproc
.Lfunc_begin1:
	.loc	14 249 0                # /usr/lib/gcc/x86_64-linux-gnu/4.8/../../../../include/c++/4.8/bits/stl_vector.h:249:0
# BB#0:                                 # %entry
	pushq	%rax
.Ltmp34:
	.cfi_def_cfa_offset 16
	movq	%rdi, (%rsp)
	.loc	14 249 0 prologue_end   # /usr/lib/gcc/x86_64-linux-gnu/4.8/../../../../include/c++/4.8/bits/stl_vector.h:249:0
.Ltmp35:
	callq	_ZNSt6vectorIP12netlist_elemSaIS1_EEC2Ev
	popq	%rax
	ret
.Ltmp36:
.Ltmp37:
	.size	_ZNSt6vectorIP12netlist_elemSaIS1_EEC1Ev, .Ltmp37-_ZNSt6vectorIP12netlist_elemSaIS1_EEC1Ev
.Lfunc_end1:
	.cfi_endproc

	.section	.text._ZN7threads9AtomicPtrI10location_tEC1EPS1_,"axG",@progbits,_ZN7threads9AtomicPtrI10location_tEC1EPS1_,comdat
	.weak	_ZN7threads9AtomicPtrI10location_tEC1EPS1_
	.align	16, 0x90
	.type	_ZN7threads9AtomicPtrI10location_tEC1EPS1_,@function
_ZN7threads9AtomicPtrI10location_tEC1EPS1_: # @_ZN7threads9AtomicPtrI10location_tEC1EPS1_
	.cfi_startproc
.Lfunc_begin2:
	.loc	12 148 0                # src/AtomicPtr.h:148:0
# BB#0:                                 # %entry
	subq	$24, %rsp
.Ltmp39:
	.cfi_def_cfa_offset 32
	movq	%rdi, 16(%rsp)
	movq	%rsi, 8(%rsp)
	movq	16(%rsp), %rdi
	.loc	12 151 0 prologue_end   # src/AtomicPtr.h:151:0
.Ltmp40:
	callq	_ZN7threads9AtomicPtrI10location_tEC2EPS1_
	addq	$24, %rsp
	ret
.Ltmp41:
.Ltmp42:
	.size	_ZN7threads9AtomicPtrI10location_tEC1EPS1_, .Ltmp42-_ZN7threads9AtomicPtrI10location_tEC1EPS1_
.Lfunc_end2:
	.cfi_endproc

	.section	.text._ZNSt6vectorIP12netlist_elemSaIS1_EED1Ev,"axG",@progbits,_ZNSt6vectorIP12netlist_elemSaIS1_EED1Ev,comdat
	.weak	_ZNSt6vectorIP12netlist_elemSaIS1_EED1Ev
	.align	16, 0x90
	.type	_ZNSt6vectorIP12netlist_elemSaIS1_EED1Ev,@function
_ZNSt6vectorIP12netlist_elemSaIS1_EED1Ev: # @_ZNSt6vectorIP12netlist_elemSaIS1_EED1Ev
	.cfi_startproc
.Lfunc_begin3:
	.loc	14 415 0                # /usr/lib/gcc/x86_64-linux-gnu/4.8/../../../../include/c++/4.8/bits/stl_vector.h:415:0
# BB#0:                                 # %entry
	pushq	%rax
.Ltmp44:
	.cfi_def_cfa_offset 16
	movq	%rdi, (%rsp)
	.loc	14 415 0 prologue_end   # /usr/lib/gcc/x86_64-linux-gnu/4.8/../../../../include/c++/4.8/bits/stl_vector.h:415:0
.Ltmp45:
	callq	_ZNSt6vectorIP12netlist_elemSaIS1_EED2Ev
	.loc	14 416 0                # /usr/lib/gcc/x86_64-linux-gnu/4.8/../../../../include/c++/4.8/bits/stl_vector.h:416:0
	popq	%rax
	ret
.Ltmp46:
.Ltmp47:
	.size	_ZNSt6vectorIP12netlist_elemSaIS1_EED1Ev, .Ltmp47-_ZNSt6vectorIP12netlist_elemSaIS1_EED1Ev
.Lfunc_end3:
	.cfi_endproc

	.section	.rodata.cst16,"aM",@progbits,16
	.align	16
.LCPI4_0:
	.quad	9223372036854775807     # double nan
	.quad	9223372036854775807     # double nan
	.text
	.globl	_ZN12netlist_elem22routing_cost_given_locE10location_t
	.align	16, 0x90
	.type	_ZN12netlist_elem22routing_cost_given_locE10location_t,@function
_ZN12netlist_elem22routing_cost_given_locE10location_t: # @_ZN12netlist_elem22routing_cost_given_locE10location_t
	.cfi_startproc
.Lfunc_begin4:
	.loc	1 52 0                  # src/netlist_elem.cpp:52:0
# BB#0:                                 # %entry
	pushq	%r15
.Ltmp52:
	.cfi_def_cfa_offset 16
	pushq	%r14
.Ltmp53:
	.cfi_def_cfa_offset 24
	pushq	%rbx
.Ltmp54:
	.cfi_def_cfa_offset 32
	subq	$80, %rsp
.Ltmp55:
	.cfi_def_cfa_offset 112
.Ltmp56:
	.cfi_offset %rbx, -32
.Ltmp57:
	.cfi_offset %r14, -24
.Ltmp58:
	.cfi_offset %r15, -16
	movq	%rdi, 72(%rsp)
	movq	%rsi, 64(%rsp)
	movq	72(%rsp), %r14
	.loc	1 53 0 prologue_end     # src/netlist_elem.cpp:53:0
.Ltmp59:
	movq	$0, 56(%rsp)
	.loc	1 54 0                  # src/netlist_elem.cpp:54:0
	movq	$0, 48(%rsp)
	.loc	1 56 0                  # src/netlist_elem.cpp:56:0
.Ltmp60:
	movl	$0, 44(%rsp)
	leaq	8(%r14), %r15
	jmp	.LBB4_1
	.align	16, 0x90
.LBB4_2:                                # %for.inc
                                        #   in Loop: Header=BB4_1 Depth=1
.Ltmp61:
	#DEBUG_VALUE: fanin_loc <- [%rsp+$32]+$0
	.loc	1 57 0                  # src/netlist_elem.cpp:57:0
	movslq	44(%rsp), %rsi
	movq	%r15, %rdi
	callq	_ZNSt6vectorIP12netlist_elemSaIS1_EEixEm
	movq	(%rax), %rdi
	addq	$56, %rdi
	callq	_ZNK7threads9AtomicPtrI10location_tE3GetEv
	movq	%rax, 32(%rsp)
	.loc	1 58 0                  # src/netlist_elem.cpp:58:0
	movl	64(%rsp), %ecx
	subl	(%rax), %ecx
	vcvtsi2sd	%ecx, %xmm0, %xmm0
	.loc	1 59 0                  # src/netlist_elem.cpp:59:0
	vmovsd	.LCPI4_0(%rip), %xmm2
	.loc	1 58 0                  # src/netlist_elem.cpp:58:0
	vandpd	%xmm2, %xmm0, %xmm0
	vaddsd	56(%rsp), %xmm0, %xmm0
	vmovsd	%xmm0, 56(%rsp)
	.loc	1 59 0                  # src/netlist_elem.cpp:59:0
	movq	32(%rsp), %rax
	movl	68(%rsp), %ecx
	subl	4(%rax), %ecx
	vcvtsi2sd	%ecx, %xmm0, %xmm1
	vandpd	%xmm2, %xmm1, %xmm1
	vaddsd	%xmm1, %xmm0, %xmm0
	vmovsd	%xmm0, 56(%rsp)
.Ltmp62:
	.loc	1 56 0                  # src/netlist_elem.cpp:56:0
	incl	44(%rsp)
.LBB4_1:                                # %for.cond
                                        # =>This Inner Loop Header: Depth=1
	movslq	44(%rsp), %rbx
	movq	%r15, %rdi
	callq	_ZNKSt6vectorIP12netlist_elemSaIS1_EE4sizeEv
	cmpq	%rax, %rbx
	jb	.LBB4_2
.Ltmp63:
# BB#3:                                 # %for.end
	#DEBUG_VALUE: i <- [%rsp+$28]+$0
	.loc	1 62 0                  # src/netlist_elem.cpp:62:0
	movl	$0, 28(%rsp)
	addq	$32, %r14
	jmp	.LBB4_4
	.align	16, 0x90
.LBB4_5:                                # %for.inc37
                                        #   in Loop: Header=BB4_4 Depth=1
.Ltmp64:
	#DEBUG_VALUE: fanout_loc <- [%rsp+$16]+$0
	.loc	1 63 0                  # src/netlist_elem.cpp:63:0
	movslq	28(%rsp), %rsi
	movq	%r14, %rdi
	callq	_ZNSt6vectorIP12netlist_elemSaIS1_EEixEm
	movq	(%rax), %rdi
	addq	$56, %rdi
	callq	_ZNK7threads9AtomicPtrI10location_tE3GetEv
	movq	%rax, 16(%rsp)
	.loc	1 64 0                  # src/netlist_elem.cpp:64:0
	movl	64(%rsp), %ecx
	subl	(%rax), %ecx
	vcvtsi2sd	%ecx, %xmm0, %xmm0
.Ltmp65:
	.loc	1 59 0                  # src/netlist_elem.cpp:59:0
	vmovsd	.LCPI4_0(%rip), %xmm2
.Ltmp66:
	.loc	1 64 0                  # src/netlist_elem.cpp:64:0
	vandpd	%xmm2, %xmm0, %xmm0
	vaddsd	48(%rsp), %xmm0, %xmm0
	vmovsd	%xmm0, 48(%rsp)
	.loc	1 65 0                  # src/netlist_elem.cpp:65:0
	movq	16(%rsp), %rax
	movl	68(%rsp), %ecx
	subl	4(%rax), %ecx
	vcvtsi2sd	%ecx, %xmm0, %xmm1
	vandpd	%xmm2, %xmm1, %xmm1
	vaddsd	%xmm1, %xmm0, %xmm0
	vmovsd	%xmm0, 48(%rsp)
.Ltmp67:
	.loc	1 62 0                  # src/netlist_elem.cpp:62:0
	incl	28(%rsp)
.LBB4_4:                                # %for.cond15
                                        # =>This Inner Loop Header: Depth=1
	movslq	28(%rsp), %rbx
	movq	%r14, %rdi
	callq	_ZNKSt6vectorIP12netlist_elemSaIS1_EE4sizeEv
	cmpq	%rax, %rbx
	jb	.LBB4_5
.Ltmp68:
# BB#6:                                 # %for.end39
	#DEBUG_VALUE: total_cost <- [%rsp+$8]+$0
	.loc	1 68 0                  # src/netlist_elem.cpp:68:0
	vmovsd	56(%rsp), %xmm0
	vaddsd	48(%rsp), %xmm0, %xmm0
	vmovsd	%xmm0, 8(%rsp)
	.loc	1 69 0                  # src/netlist_elem.cpp:69:0
	addq	$80, %rsp
	popq	%rbx
	popq	%r14
	popq	%r15
	ret
.Ltmp69:
.Ltmp70:
	.size	_ZN12netlist_elem22routing_cost_given_locE10location_t, .Ltmp70-_ZN12netlist_elem22routing_cost_given_locE10location_t
.Lfunc_end4:
	.cfi_endproc

	.section	.text._ZNKSt6vectorIP12netlist_elemSaIS1_EE4sizeEv,"axG",@progbits,_ZNKSt6vectorIP12netlist_elemSaIS1_EE4sizeEv,comdat
	.weak	_ZNKSt6vectorIP12netlist_elemSaIS1_EE4sizeEv
	.align	16, 0x90
	.type	_ZNKSt6vectorIP12netlist_elemSaIS1_EE4sizeEv,@function
_ZNKSt6vectorIP12netlist_elemSaIS1_EE4sizeEv: # @_ZNKSt6vectorIP12netlist_elemSaIS1_EE4sizeEv
	.cfi_startproc
.Lfunc_begin5:
	.loc	14 646 0                # /usr/lib/gcc/x86_64-linux-gnu/4.8/../../../../include/c++/4.8/bits/stl_vector.h:646:0
# BB#0:                                 # %entry
	movq	%rdi, -8(%rsp)
	.loc	14 646 0 prologue_end   # /usr/lib/gcc/x86_64-linux-gnu/4.8/../../../../include/c++/4.8/bits/stl_vector.h:646:0
.Ltmp71:
	movq	8(%rdi), %rax
	subq	(%rdi), %rax
	sarq	$3, %rax
	ret
.Ltmp72:
.Ltmp73:
	.size	_ZNKSt6vectorIP12netlist_elemSaIS1_EE4sizeEv, .Ltmp73-_ZNKSt6vectorIP12netlist_elemSaIS1_EE4sizeEv
.Lfunc_end5:
	.cfi_endproc

	.section	.text._ZNSt6vectorIP12netlist_elemSaIS1_EEixEm,"axG",@progbits,_ZNSt6vectorIP12netlist_elemSaIS1_EEixEm,comdat
	.weak	_ZNSt6vectorIP12netlist_elemSaIS1_EEixEm
	.align	16, 0x90
	.type	_ZNSt6vectorIP12netlist_elemSaIS1_EEixEm,@function
_ZNSt6vectorIP12netlist_elemSaIS1_EEixEm: # @_ZNSt6vectorIP12netlist_elemSaIS1_EEixEm
	.cfi_startproc
.Lfunc_begin6:
	.loc	14 771 0                # /usr/lib/gcc/x86_64-linux-gnu/4.8/../../../../include/c++/4.8/bits/stl_vector.h:771:0
# BB#0:                                 # %entry
	movq	%rdi, -8(%rsp)
	movq	%rsi, -16(%rsp)
	.loc	14 771 0 prologue_end   # /usr/lib/gcc/x86_64-linux-gnu/4.8/../../../../include/c++/4.8/bits/stl_vector.h:771:0
.Ltmp74:
	leaq	(,%rsi,8), %rax
	movq	-8(%rsp), %rcx
	addq	(%rcx), %rax
	ret
.Ltmp75:
.Ltmp76:
	.size	_ZNSt6vectorIP12netlist_elemSaIS1_EEixEm, .Ltmp76-_ZNSt6vectorIP12netlist_elemSaIS1_EEixEm
.Lfunc_end6:
	.cfi_endproc

	.section	.text._ZNK7threads9AtomicPtrI10location_tE3GetEv,"axG",@progbits,_ZNK7threads9AtomicPtrI10location_tE3GetEv,comdat
	.weak	_ZNK7threads9AtomicPtrI10location_tE3GetEv
	.align	16, 0x90
	.type	_ZNK7threads9AtomicPtrI10location_tE3GetEv,@function
_ZNK7threads9AtomicPtrI10location_tE3GetEv: # @_ZNK7threads9AtomicPtrI10location_tE3GetEv
	.cfi_startproc
.Lfunc_begin7:
	.loc	12 175 0                # src/AtomicPtr.h:175:0
# BB#0:                                 # %entry
	pushq	%rbx
.Ltmp79:
	.cfi_def_cfa_offset 16
	subq	$16, %rsp
.Ltmp80:
	.cfi_def_cfa_offset 32
.Ltmp81:
	.cfi_offset %rbx, -16
	movq	%rdi, %rbx
	movq	%rbx, 8(%rsp)
	.align	16, 0x90
.LBB7_1:                                # %do.cond
                                        # =>This Inner Loop Header: Depth=1
	.loc	12 179 0 prologue_end   # src/AtomicPtr.h:179:0
.Ltmp82:
	movq	%rbx, %rdi
	callq	_ZL20atomic_load_acq_longPVm
	movq	%rax, (%rsp)
	cmpq	_ZN7threads9AtomicPtrI10location_tE11ATOMIC_NULLE(%rip), %rax
	.loc	12 180 0                # src/AtomicPtr.h:180:0
	je	.LBB7_1
.Ltmp83:
# BB#2:                                 # %do.end
	.loc	12 182 0                # src/AtomicPtr.h:182:0
	movq	(%rsp), %rax
	addq	$16, %rsp
	popq	%rbx
	ret
.Ltmp84:
.Ltmp85:
	.size	_ZNK7threads9AtomicPtrI10location_tE3GetEv, .Ltmp85-_ZNK7threads9AtomicPtrI10location_tE3GetEv
.Lfunc_end7:
	.cfi_endproc

	.section	.rodata.cst16,"aM",@progbits,16
	.align	16
.LCPI8_0:
	.quad	9223372036854775807     # double nan
	.quad	9223372036854775807     # double nan
	.text
	.globl	_ZN12netlist_elem9swap_costEP10location_tS1_
	.align	16, 0x90
	.type	_ZN12netlist_elem9swap_costEP10location_tS1_,@function
_ZN12netlist_elem9swap_costEP10location_tS1_: # @_ZN12netlist_elem9swap_costEP10location_tS1_
	.cfi_startproc
.Lfunc_begin8:
	.loc	1 76 0                  # src/netlist_elem.cpp:76:0
# BB#0:                                 # %entry
	pushq	%r15
.Ltmp90:
	.cfi_def_cfa_offset 16
	pushq	%r14
.Ltmp91:
	.cfi_def_cfa_offset 24
	pushq	%rbx
.Ltmp92:
	.cfi_def_cfa_offset 32
	subq	$80, %rsp
.Ltmp93:
	.cfi_def_cfa_offset 112
.Ltmp94:
	.cfi_offset %rbx, -32
.Ltmp95:
	.cfi_offset %r14, -24
.Ltmp96:
	.cfi_offset %r15, -16
	movq	%rdi, 72(%rsp)
	movq	%rsi, 64(%rsp)
	movq	%rdx, 56(%rsp)
	movq	72(%rsp), %r14
	.loc	1 77 0 prologue_end     # src/netlist_elem.cpp:77:0
.Ltmp97:
	movq	$0, 48(%rsp)
	.loc	1 78 0                  # src/netlist_elem.cpp:78:0
	movq	$0, 40(%rsp)
	.loc	1 80 0                  # src/netlist_elem.cpp:80:0
.Ltmp98:
	movl	$0, 36(%rsp)
	leaq	8(%r14), %r15
	jmp	.LBB8_1
	.align	16, 0x90
.LBB8_2:                                # %for.inc
                                        #   in Loop: Header=BB8_1 Depth=1
.Ltmp99:
	#DEBUG_VALUE: fanin_loc <- [%rsp+$24]+$0
	.loc	1 81 0                  # src/netlist_elem.cpp:81:0
	movslq	36(%rsp), %rsi
	movq	%r15, %rdi
	callq	_ZNSt6vectorIP12netlist_elemSaIS1_EEixEm
	movq	(%rax), %rdi
	addq	$56, %rdi
	callq	_ZNK7threads9AtomicPtrI10location_tE3GetEv
	movq	%rax, 24(%rsp)
	.loc	1 82 0                  # src/netlist_elem.cpp:82:0
	movq	64(%rsp), %rcx
	movl	(%rcx), %ecx
	subl	(%rax), %ecx
	vcvtsi2sd	%ecx, %xmm0, %xmm0
	.loc	1 86 0                  # src/netlist_elem.cpp:86:0
	vmovsd	.LCPI8_0(%rip), %xmm2
	.loc	1 82 0                  # src/netlist_elem.cpp:82:0
	vandpd	%xmm2, %xmm0, %xmm0
	vaddsd	48(%rsp), %xmm0, %xmm0
	vmovsd	%xmm0, 48(%rsp)
	.loc	1 83 0                  # src/netlist_elem.cpp:83:0
	movq	64(%rsp), %rax
	movl	4(%rax), %eax
	movq	24(%rsp), %rcx
	subl	4(%rcx), %eax
	vcvtsi2sd	%eax, %xmm0, %xmm1
	vandpd	%xmm2, %xmm1, %xmm1
	vaddsd	%xmm1, %xmm0, %xmm0
	vmovsd	%xmm0, 48(%rsp)
	.loc	1 85 0                  # src/netlist_elem.cpp:85:0
	movq	56(%rsp), %rax
	movl	(%rax), %eax
	movq	24(%rsp), %rcx
	subl	(%rcx), %eax
	vcvtsi2sd	%eax, %xmm0, %xmm0
	vandpd	%xmm2, %xmm0, %xmm0
	vaddsd	40(%rsp), %xmm0, %xmm0
	vmovsd	%xmm0, 40(%rsp)
	.loc	1 86 0                  # src/netlist_elem.cpp:86:0
	movq	56(%rsp), %rax
	movl	4(%rax), %eax
	movq	24(%rsp), %rcx
	subl	4(%rcx), %eax
	vcvtsi2sd	%eax, %xmm0, %xmm1
	vandpd	%xmm2, %xmm1, %xmm1
	vaddsd	%xmm1, %xmm0, %xmm0
	vmovsd	%xmm0, 40(%rsp)
.Ltmp100:
	.loc	1 80 0                  # src/netlist_elem.cpp:80:0
	incl	36(%rsp)
.LBB8_1:                                # %for.cond
                                        # =>This Inner Loop Header: Depth=1
	movslq	36(%rsp), %rbx
	movq	%r15, %rdi
	callq	_ZNKSt6vectorIP12netlist_elemSaIS1_EE4sizeEv
	cmpq	%rax, %rbx
	jb	.LBB8_2
.Ltmp101:
# BB#3:                                 # %for.end
	#DEBUG_VALUE: i <- [%rsp+$20]+$0
	.loc	1 89 0                  # src/netlist_elem.cpp:89:0
	movl	$0, 20(%rsp)
	addq	$32, %r14
	jmp	.LBB8_4
	.align	16, 0x90
.LBB8_5:                                # %for.inc61
                                        #   in Loop: Header=BB8_4 Depth=1
.Ltmp102:
	#DEBUG_VALUE: fanout_loc <- [%rsp+$8]+$0
	.loc	1 90 0                  # src/netlist_elem.cpp:90:0
	movslq	20(%rsp), %rsi
	movq	%r14, %rdi
	callq	_ZNSt6vectorIP12netlist_elemSaIS1_EEixEm
	movq	(%rax), %rdi
	addq	$56, %rdi
	callq	_ZNK7threads9AtomicPtrI10location_tE3GetEv
	movq	%rax, 8(%rsp)
	.loc	1 91 0                  # src/netlist_elem.cpp:91:0
	movq	64(%rsp), %rcx
	movl	(%rcx), %ecx
	subl	(%rax), %ecx
	vcvtsi2sd	%ecx, %xmm0, %xmm0
.Ltmp103:
	.loc	1 86 0                  # src/netlist_elem.cpp:86:0
	vmovsd	.LCPI8_0(%rip), %xmm2
.Ltmp104:
	.loc	1 91 0                  # src/netlist_elem.cpp:91:0
	vandpd	%xmm2, %xmm0, %xmm0
	vaddsd	48(%rsp), %xmm0, %xmm0
	vmovsd	%xmm0, 48(%rsp)
	.loc	1 92 0                  # src/netlist_elem.cpp:92:0
	movq	64(%rsp), %rax
	movl	4(%rax), %eax
	movq	8(%rsp), %rcx
	subl	4(%rcx), %eax
	vcvtsi2sd	%eax, %xmm0, %xmm1
	vandpd	%xmm2, %xmm1, %xmm1
	vaddsd	%xmm1, %xmm0, %xmm0
	vmovsd	%xmm0, 48(%rsp)
	.loc	1 94 0                  # src/netlist_elem.cpp:94:0
	movq	56(%rsp), %rax
	movl	(%rax), %eax
	movq	8(%rsp), %rcx
	subl	(%rcx), %eax
	vcvtsi2sd	%eax, %xmm0, %xmm0
	vandpd	%xmm2, %xmm0, %xmm0
	vaddsd	40(%rsp), %xmm0, %xmm0
	vmovsd	%xmm0, 40(%rsp)
	.loc	1 95 0                  # src/netlist_elem.cpp:95:0
	movq	56(%rsp), %rax
	movl	4(%rax), %eax
	movq	8(%rsp), %rcx
	subl	4(%rcx), %eax
	vcvtsi2sd	%eax, %xmm0, %xmm1
	vandpd	%xmm2, %xmm1, %xmm1
	vaddsd	%xmm1, %xmm0, %xmm0
	vmovsd	%xmm0, 40(%rsp)
.Ltmp105:
	.loc	1 89 0                  # src/netlist_elem.cpp:89:0
	incl	20(%rsp)
.LBB8_4:                                # %for.cond27
                                        # =>This Inner Loop Header: Depth=1
	movslq	20(%rsp), %rbx
	movq	%r14, %rdi
	callq	_ZNKSt6vectorIP12netlist_elemSaIS1_EE4sizeEv
	cmpq	%rax, %rbx
	jb	.LBB8_5
.Ltmp106:
# BB#6:                                 # %for.end63
	.loc	1 98 0                  # src/netlist_elem.cpp:98:0
	vmovsd	40(%rsp), %xmm0
	vsubsd	48(%rsp), %xmm0, %xmm0
	addq	$80, %rsp
	popq	%rbx
	popq	%r14
	popq	%r15
	ret
.Ltmp107:
.Ltmp108:
	.size	_ZN12netlist_elem9swap_costEP10location_tS1_, .Ltmp108-_ZN12netlist_elem9swap_costEP10location_tS1_
.Lfunc_end8:
	.cfi_endproc

	.align	16, 0x90
	.type	_ZL20atomic_load_acq_longPVm,@function
_ZL20atomic_load_acq_longPVm:           # @_ZL20atomic_load_acq_longPVm
	.cfi_startproc
.Lfunc_begin9:
	.loc	16 215 0                # src/atomic/amd64/atomic.h:215:0
# BB#0:                                 # %entry
	movq	%rdi, -8(%rsp)
	.loc	16 215 0 prologue_end   # src/atomic/amd64/atomic.h:215:0
.Ltmp109:
	#APP
	lock ;cmpxchgq %rax,(%rdi)
	#NO_APP
	movq	%rax, -16(%rsp)
	ret
.Ltmp110:
.Ltmp111:
	.size	_ZL20atomic_load_acq_longPVm, .Ltmp111-_ZL20atomic_load_acq_longPVm
.Lfunc_end9:
	.cfi_endproc

	.section	.text._ZNSt6vectorIP12netlist_elemSaIS1_EED2Ev,"axG",@progbits,_ZNSt6vectorIP12netlist_elemSaIS1_EED2Ev,comdat
	.weak	_ZNSt6vectorIP12netlist_elemSaIS1_EED2Ev
	.align	16, 0x90
	.type	_ZNSt6vectorIP12netlist_elemSaIS1_EED2Ev,@function
_ZNSt6vectorIP12netlist_elemSaIS1_EED2Ev: # @_ZNSt6vectorIP12netlist_elemSaIS1_EED2Ev
	.cfi_startproc
	.cfi_personality 3, __gxx_personality_v0
.Leh_func_begin10:
	.cfi_lsda 3, .Lexception10
.Lfunc_begin10:
	.loc	14 415 0                # /usr/lib/gcc/x86_64-linux-gnu/4.8/../../../../include/c++/4.8/bits/stl_vector.h:415:0
# BB#0:                                 # %entry
	pushq	%r15
.Ltmp124:
	.cfi_def_cfa_offset 16
	pushq	%r14
.Ltmp125:
	.cfi_def_cfa_offset 24
	pushq	%rbx
.Ltmp126:
	.cfi_def_cfa_offset 32
	subq	$32, %rsp
.Ltmp127:
	.cfi_def_cfa_offset 64
.Ltmp128:
	.cfi_offset %rbx, -32
.Ltmp129:
	.cfi_offset %r14, -24
.Ltmp130:
	.cfi_offset %r15, -16
	movq	%rdi, %rbx
	movq	%rbx, 24(%rsp)
	.loc	14 415 0 prologue_end   # /usr/lib/gcc/x86_64-linux-gnu/4.8/../../../../include/c++/4.8/bits/stl_vector.h:415:0
.Ltmp131:
	movq	(%rbx), %r14
	movq	8(%rbx), %r15
	.loc	14 416 0                # /usr/lib/gcc/x86_64-linux-gnu/4.8/../../../../include/c++/4.8/bits/stl_vector.h:416:0
.Ltmp112:
	callq	_ZNSt12_Vector_baseIP12netlist_elemSaIS1_EE19_M_get_Tp_allocatorEv
.Ltmp113:
# BB#1:                                 # %invoke.cont
.Ltmp114:
	movq	%r14, %rdi
	movq	%r15, %rsi
	movq	%rax, %rdx
	callq	_ZSt8_DestroyIPP12netlist_elemS1_EvT_S3_RSaIT0_E
.Ltmp115:
# BB#2:                                 # %invoke.cont3
	movq	%rbx, %rdi
	callq	_ZNSt12_Vector_baseIP12netlist_elemSaIS1_EED2Ev
	addq	$32, %rsp
	popq	%rbx
	popq	%r14
	popq	%r15
	ret
.LBB10_3:                               # %lpad
.Ltmp116:
	movq	%rax, 16(%rsp)
	movl	%edx, 12(%rsp)
.Ltmp117:
	movq	%rbx, %rdi
	callq	_ZNSt12_Vector_baseIP12netlist_elemSaIS1_EED2Ev
.Ltmp118:
# BB#4:                                 # %eh.resume
	movq	16(%rsp), %rdi
	callq	_Unwind_Resume
.LBB10_5:                               # %terminate.lpad
.Ltmp119:
	callq	_ZSt9terminatev
.Ltmp132:
.Ltmp133:
	.size	_ZNSt6vectorIP12netlist_elemSaIS1_EED2Ev, .Ltmp133-_ZNSt6vectorIP12netlist_elemSaIS1_EED2Ev
.Lfunc_end10:
	.cfi_endproc
.Leh_func_end10:
	.section	.gcc_except_table,"a",@progbits
	.align	4
GCC_except_table10:
.Lexception10:
	.byte	255                     # @LPStart Encoding = omit
	.byte	3                       # @TType Encoding = udata4
	.asciz	 "\274"                 # @TType base offset
	.byte	3                       # Call site Encoding = udata4
	.byte	52                      # Call site table length
.Lset16 = .Ltmp112-.Leh_func_begin10    # >> Call Site 1 <<
	.long	.Lset16
.Lset17 = .Ltmp115-.Ltmp112             #   Call between .Ltmp112 and .Ltmp115
	.long	.Lset17
.Lset18 = .Ltmp116-.Leh_func_begin10    #     jumps to .Ltmp116
	.long	.Lset18
	.byte	0                       #   On action: cleanup
.Lset19 = .Ltmp115-.Leh_func_begin10    # >> Call Site 2 <<
	.long	.Lset19
.Lset20 = .Ltmp117-.Ltmp115             #   Call between .Ltmp115 and .Ltmp117
	.long	.Lset20
	.long	0                       #     has no landing pad
	.byte	0                       #   On action: cleanup
.Lset21 = .Ltmp117-.Leh_func_begin10    # >> Call Site 3 <<
	.long	.Lset21
.Lset22 = .Ltmp118-.Ltmp117             #   Call between .Ltmp117 and .Ltmp118
	.long	.Lset22
.Lset23 = .Ltmp119-.Leh_func_begin10    #     jumps to .Ltmp119
	.long	.Lset23
	.byte	1                       #   On action: 1
.Lset24 = .Ltmp118-.Leh_func_begin10    # >> Call Site 4 <<
	.long	.Lset24
.Lset25 = .Leh_func_end10-.Ltmp118      #   Call between .Ltmp118 and .Leh_func_end10
	.long	.Lset25
	.long	0                       #     has no landing pad
	.byte	0                       #   On action: cleanup
	.byte	1                       # >> Action Record 1 <<
                                        #   Catch TypeInfo 1
	.byte	0                       #   No further actions
                                        # >> Catch TypeInfos <<
	.long	0                       # TypeInfo 1
	.align	4

	.section	.text._ZSt8_DestroyIPP12netlist_elemS1_EvT_S3_RSaIT0_E,"axG",@progbits,_ZSt8_DestroyIPP12netlist_elemS1_EvT_S3_RSaIT0_E,comdat
	.weak	_ZSt8_DestroyIPP12netlist_elemS1_EvT_S3_RSaIT0_E
	.align	16, 0x90
	.type	_ZSt8_DestroyIPP12netlist_elemS1_EvT_S3_RSaIT0_E,@function
_ZSt8_DestroyIPP12netlist_elemS1_EvT_S3_RSaIT0_E: # @_ZSt8_DestroyIPP12netlist_elemS1_EvT_S3_RSaIT0_E
	.cfi_startproc
.Lfunc_begin11:
	.loc	17 150 0                # /usr/lib/gcc/x86_64-linux-gnu/4.8/../../../../include/c++/4.8/bits/stl_construct.h:150:0
# BB#0:                                 # %entry
	subq	$24, %rsp
.Ltmp135:
	.cfi_def_cfa_offset 32
	movq	%rdi, 16(%rsp)
	movq	%rsi, 8(%rsp)
	movq	%rdx, (%rsp)
	.loc	17 151 0 prologue_end   # /usr/lib/gcc/x86_64-linux-gnu/4.8/../../../../include/c++/4.8/bits/stl_construct.h:151:0
.Ltmp136:
	movq	8(%rsp), %rsi
	movq	16(%rsp), %rdi
	callq	_ZSt8_DestroyIPP12netlist_elemEvT_S3_
	.loc	17 152 0                # /usr/lib/gcc/x86_64-linux-gnu/4.8/../../../../include/c++/4.8/bits/stl_construct.h:152:0
	addq	$24, %rsp
	ret
.Ltmp137:
.Ltmp138:
	.size	_ZSt8_DestroyIPP12netlist_elemS1_EvT_S3_RSaIT0_E, .Ltmp138-_ZSt8_DestroyIPP12netlist_elemS1_EvT_S3_RSaIT0_E
.Lfunc_end11:
	.cfi_endproc

	.section	.text._ZNSt12_Vector_baseIP12netlist_elemSaIS1_EE19_M_get_Tp_allocatorEv,"axG",@progbits,_ZNSt12_Vector_baseIP12netlist_elemSaIS1_EE19_M_get_Tp_allocatorEv,comdat
	.weak	_ZNSt12_Vector_baseIP12netlist_elemSaIS1_EE19_M_get_Tp_allocatorEv
	.align	16, 0x90
	.type	_ZNSt12_Vector_baseIP12netlist_elemSaIS1_EE19_M_get_Tp_allocatorEv,@function
_ZNSt12_Vector_baseIP12netlist_elemSaIS1_EE19_M_get_Tp_allocatorEv: # @_ZNSt12_Vector_baseIP12netlist_elemSaIS1_EE19_M_get_Tp_allocatorEv
	.cfi_startproc
.Lfunc_begin12:
	.loc	14 114 0                # /usr/lib/gcc/x86_64-linux-gnu/4.8/../../../../include/c++/4.8/bits/stl_vector.h:114:0
# BB#0:                                 # %entry
	movq	%rdi, -8(%rsp)
	.loc	14 114 0 prologue_end   # /usr/lib/gcc/x86_64-linux-gnu/4.8/../../../../include/c++/4.8/bits/stl_vector.h:114:0
.Ltmp139:
	movq	%rdi, %rax
	ret
.Ltmp140:
.Ltmp141:
	.size	_ZNSt12_Vector_baseIP12netlist_elemSaIS1_EE19_M_get_Tp_allocatorEv, .Ltmp141-_ZNSt12_Vector_baseIP12netlist_elemSaIS1_EE19_M_get_Tp_allocatorEv
.Lfunc_end12:
	.cfi_endproc

	.section	.text._ZNSt12_Vector_baseIP12netlist_elemSaIS1_EED2Ev,"axG",@progbits,_ZNSt12_Vector_baseIP12netlist_elemSaIS1_EED2Ev,comdat
	.weak	_ZNSt12_Vector_baseIP12netlist_elemSaIS1_EED2Ev
	.align	16, 0x90
	.type	_ZNSt12_Vector_baseIP12netlist_elemSaIS1_EED2Ev,@function
_ZNSt12_Vector_baseIP12netlist_elemSaIS1_EED2Ev: # @_ZNSt12_Vector_baseIP12netlist_elemSaIS1_EED2Ev
	.cfi_startproc
	.cfi_personality 3, __gxx_personality_v0
.Leh_func_begin13:
	.cfi_lsda 3, .Lexception13
.Lfunc_begin13:
	.loc	14 160 0                # /usr/lib/gcc/x86_64-linux-gnu/4.8/../../../../include/c++/4.8/bits/stl_vector.h:160:0
# BB#0:                                 # %entry
	pushq	%rbx
.Ltmp147:
	.cfi_def_cfa_offset 16
	subq	$32, %rsp
.Ltmp148:
	.cfi_def_cfa_offset 48
.Ltmp149:
	.cfi_offset %rbx, -16
	movq	%rdi, %rbx
	movq	%rbx, 24(%rsp)
	.loc	14 160 0 prologue_end   # /usr/lib/gcc/x86_64-linux-gnu/4.8/../../../../include/c++/4.8/bits/stl_vector.h:160:0
.Ltmp150:
	movq	(%rbx), %rsi
	movq	16(%rbx), %rdx
.Ltmp142:
	subq	%rsi, %rdx
	sarq	$3, %rdx
	callq	_ZNSt12_Vector_baseIP12netlist_elemSaIS1_EE13_M_deallocateEPS1_m
.Ltmp143:
# BB#1:                                 # %invoke.cont
	.loc	14 161 0                # /usr/lib/gcc/x86_64-linux-gnu/4.8/../../../../include/c++/4.8/bits/stl_vector.h:161:0
	movq	%rbx, %rdi
	callq	_ZNSt12_Vector_baseIP12netlist_elemSaIS1_EE12_Vector_implD1Ev
	addq	$32, %rsp
	popq	%rbx
	ret
.LBB13_2:                               # %eh.resume
.Ltmp144:
	.loc	14 160 0                # /usr/lib/gcc/x86_64-linux-gnu/4.8/../../../../include/c++/4.8/bits/stl_vector.h:160:0
	movq	%rax, 16(%rsp)
	movl	%edx, 12(%rsp)
	.loc	14 161 0                # /usr/lib/gcc/x86_64-linux-gnu/4.8/../../../../include/c++/4.8/bits/stl_vector.h:161:0
	movq	%rbx, %rdi
	callq	_ZNSt12_Vector_baseIP12netlist_elemSaIS1_EE12_Vector_implD1Ev
	movq	16(%rsp), %rdi
	callq	_Unwind_Resume
.Ltmp151:
.Ltmp152:
	.size	_ZNSt12_Vector_baseIP12netlist_elemSaIS1_EED2Ev, .Ltmp152-_ZNSt12_Vector_baseIP12netlist_elemSaIS1_EED2Ev
.Lfunc_end13:
	.cfi_endproc
.Leh_func_end13:
	.section	.gcc_except_table,"a",@progbits
	.align	4
GCC_except_table13:
.Lexception13:
	.byte	255                     # @LPStart Encoding = omit
	.byte	3                       # @TType Encoding = udata4
	.asciz	 "\234"                 # @TType base offset
	.byte	3                       # Call site Encoding = udata4
	.byte	26                      # Call site table length
.Lset26 = .Ltmp142-.Leh_func_begin13    # >> Call Site 1 <<
	.long	.Lset26
.Lset27 = .Ltmp143-.Ltmp142             #   Call between .Ltmp142 and .Ltmp143
	.long	.Lset27
.Lset28 = .Ltmp144-.Leh_func_begin13    #     jumps to .Ltmp144
	.long	.Lset28
	.byte	0                       #   On action: cleanup
.Lset29 = .Ltmp143-.Leh_func_begin13    # >> Call Site 2 <<
	.long	.Lset29
.Lset30 = .Leh_func_end13-.Ltmp143      #   Call between .Ltmp143 and .Leh_func_end13
	.long	.Lset30
	.long	0                       #     has no landing pad
	.byte	0                       #   On action: cleanup
	.align	4

	.section	.text._ZNSt12_Vector_baseIP12netlist_elemSaIS1_EE13_M_deallocateEPS1_m,"axG",@progbits,_ZNSt12_Vector_baseIP12netlist_elemSaIS1_EE13_M_deallocateEPS1_m,comdat
	.weak	_ZNSt12_Vector_baseIP12netlist_elemSaIS1_EE13_M_deallocateEPS1_m
	.align	16, 0x90
	.type	_ZNSt12_Vector_baseIP12netlist_elemSaIS1_EE13_M_deallocateEPS1_m,@function
_ZNSt12_Vector_baseIP12netlist_elemSaIS1_EE13_M_deallocateEPS1_m: # @_ZNSt12_Vector_baseIP12netlist_elemSaIS1_EE13_M_deallocateEPS1_m
	.cfi_startproc
.Lfunc_begin14:
	.loc	14 172 0                # /usr/lib/gcc/x86_64-linux-gnu/4.8/../../../../include/c++/4.8/bits/stl_vector.h:172:0
# BB#0:                                 # %entry
	subq	$24, %rsp
.Ltmp154:
	.cfi_def_cfa_offset 32
	movq	%rdi, 16(%rsp)
	movq	%rsi, 8(%rsp)
	movq	%rdx, (%rsp)
	.loc	14 173 0 prologue_end   # /usr/lib/gcc/x86_64-linux-gnu/4.8/../../../../include/c++/4.8/bits/stl_vector.h:173:0
.Ltmp155:
	cmpq	$0, 8(%rsp)
	je	.LBB14_2
# BB#1:                                 # %if.then
	movq	16(%rsp), %rdi
	.loc	14 174 0                # /usr/lib/gcc/x86_64-linux-gnu/4.8/../../../../include/c++/4.8/bits/stl_vector.h:174:0
	movq	(%rsp), %rdx
	movq	8(%rsp), %rsi
	callq	_ZN9__gnu_cxx13new_allocatorIP12netlist_elemE10deallocateEPS2_m
.LBB14_2:                               # %if.end
	.loc	14 175 0                # /usr/lib/gcc/x86_64-linux-gnu/4.8/../../../../include/c++/4.8/bits/stl_vector.h:175:0
	addq	$24, %rsp
	ret
.Ltmp156:
.Ltmp157:
	.size	_ZNSt12_Vector_baseIP12netlist_elemSaIS1_EE13_M_deallocateEPS1_m, .Ltmp157-_ZNSt12_Vector_baseIP12netlist_elemSaIS1_EE13_M_deallocateEPS1_m
.Lfunc_end14:
	.cfi_endproc

	.section	.text._ZNSt12_Vector_baseIP12netlist_elemSaIS1_EE12_Vector_implD1Ev,"axG",@progbits,_ZNSt12_Vector_baseIP12netlist_elemSaIS1_EE12_Vector_implD1Ev,comdat
	.weak	_ZNSt12_Vector_baseIP12netlist_elemSaIS1_EE12_Vector_implD1Ev
	.align	16, 0x90
	.type	_ZNSt12_Vector_baseIP12netlist_elemSaIS1_EE12_Vector_implD1Ev,@function
_ZNSt12_Vector_baseIP12netlist_elemSaIS1_EE12_Vector_implD1Ev: # @_ZNSt12_Vector_baseIP12netlist_elemSaIS1_EE12_Vector_implD1Ev
	.cfi_startproc
.Lfunc_begin15:
	.loc	14 79 0                 # /usr/lib/gcc/x86_64-linux-gnu/4.8/../../../../include/c++/4.8/bits/stl_vector.h:79:0
# BB#0:                                 # %entry
	pushq	%rax
.Ltmp159:
	.cfi_def_cfa_offset 16
	movq	%rdi, (%rsp)
	.loc	14 79 0 prologue_end    # /usr/lib/gcc/x86_64-linux-gnu/4.8/../../../../include/c++/4.8/bits/stl_vector.h:79:0
.Ltmp160:
	callq	_ZNSt12_Vector_baseIP12netlist_elemSaIS1_EE12_Vector_implD2Ev
	popq	%rax
	ret
.Ltmp161:
.Ltmp162:
	.size	_ZNSt12_Vector_baseIP12netlist_elemSaIS1_EE12_Vector_implD1Ev, .Ltmp162-_ZNSt12_Vector_baseIP12netlist_elemSaIS1_EE12_Vector_implD1Ev
.Lfunc_end15:
	.cfi_endproc

	.section	.text._ZNSt12_Vector_baseIP12netlist_elemSaIS1_EE12_Vector_implD2Ev,"axG",@progbits,_ZNSt12_Vector_baseIP12netlist_elemSaIS1_EE12_Vector_implD2Ev,comdat
	.weak	_ZNSt12_Vector_baseIP12netlist_elemSaIS1_EE12_Vector_implD2Ev
	.align	16, 0x90
	.type	_ZNSt12_Vector_baseIP12netlist_elemSaIS1_EE12_Vector_implD2Ev,@function
_ZNSt12_Vector_baseIP12netlist_elemSaIS1_EE12_Vector_implD2Ev: # @_ZNSt12_Vector_baseIP12netlist_elemSaIS1_EE12_Vector_implD2Ev
	.cfi_startproc
.Lfunc_begin16:
	.loc	14 79 0                 # /usr/lib/gcc/x86_64-linux-gnu/4.8/../../../../include/c++/4.8/bits/stl_vector.h:79:0
# BB#0:                                 # %entry
	pushq	%rax
.Ltmp164:
	.cfi_def_cfa_offset 16
	movq	%rdi, (%rsp)
	.loc	14 79 0 prologue_end    # /usr/lib/gcc/x86_64-linux-gnu/4.8/../../../../include/c++/4.8/bits/stl_vector.h:79:0
.Ltmp165:
	callq	_ZNSaIP12netlist_elemED2Ev
	popq	%rax
	ret
.Ltmp166:
.Ltmp167:
	.size	_ZNSt12_Vector_baseIP12netlist_elemSaIS1_EE12_Vector_implD2Ev, .Ltmp167-_ZNSt12_Vector_baseIP12netlist_elemSaIS1_EE12_Vector_implD2Ev
.Lfunc_end16:
	.cfi_endproc

	.section	.text._ZNSaIP12netlist_elemED2Ev,"axG",@progbits,_ZNSaIP12netlist_elemED2Ev,comdat
	.weak	_ZNSaIP12netlist_elemED2Ev
	.align	16, 0x90
	.type	_ZNSaIP12netlist_elemED2Ev,@function
_ZNSaIP12netlist_elemED2Ev:             # @_ZNSaIP12netlist_elemED2Ev
	.cfi_startproc
.Lfunc_begin17:
	.loc	5 121 0                 # /usr/lib/gcc/x86_64-linux-gnu/4.8/../../../../include/c++/4.8/bits/allocator.h:121:0
# BB#0:                                 # %entry
	pushq	%rax
.Ltmp169:
	.cfi_def_cfa_offset 16
	movq	%rdi, (%rsp)
	.loc	5 121 0 prologue_end    # /usr/lib/gcc/x86_64-linux-gnu/4.8/../../../../include/c++/4.8/bits/allocator.h:121:0
.Ltmp170:
	callq	_ZN9__gnu_cxx13new_allocatorIP12netlist_elemED2Ev
	popq	%rax
	ret
.Ltmp171:
.Ltmp172:
	.size	_ZNSaIP12netlist_elemED2Ev, .Ltmp172-_ZNSaIP12netlist_elemED2Ev
.Lfunc_end17:
	.cfi_endproc

	.section	.text._ZN9__gnu_cxx13new_allocatorIP12netlist_elemED2Ev,"axG",@progbits,_ZN9__gnu_cxx13new_allocatorIP12netlist_elemED2Ev,comdat
	.weak	_ZN9__gnu_cxx13new_allocatorIP12netlist_elemED2Ev
	.align	16, 0x90
	.type	_ZN9__gnu_cxx13new_allocatorIP12netlist_elemED2Ev,@function
_ZN9__gnu_cxx13new_allocatorIP12netlist_elemED2Ev: # @_ZN9__gnu_cxx13new_allocatorIP12netlist_elemED2Ev
	.cfi_startproc
.Lfunc_begin18:
	.loc	4 86 0                  # /usr/lib/gcc/x86_64-linux-gnu/4.8/../../../../include/c++/4.8/ext/new_allocator.h:86:0
# BB#0:                                 # %entry
	movq	%rdi, -8(%rsp)
	.loc	4 86 0 prologue_end     # /usr/lib/gcc/x86_64-linux-gnu/4.8/../../../../include/c++/4.8/ext/new_allocator.h:86:0
.Ltmp173:
	ret
.Ltmp174:
.Ltmp175:
	.size	_ZN9__gnu_cxx13new_allocatorIP12netlist_elemED2Ev, .Ltmp175-_ZN9__gnu_cxx13new_allocatorIP12netlist_elemED2Ev
.Lfunc_end18:
	.cfi_endproc

	.section	.text._ZN9__gnu_cxx13new_allocatorIP12netlist_elemE10deallocateEPS2_m,"axG",@progbits,_ZN9__gnu_cxx13new_allocatorIP12netlist_elemE10deallocateEPS2_m,comdat
	.weak	_ZN9__gnu_cxx13new_allocatorIP12netlist_elemE10deallocateEPS2_m
	.align	16, 0x90
	.type	_ZN9__gnu_cxx13new_allocatorIP12netlist_elemE10deallocateEPS2_m,@function
_ZN9__gnu_cxx13new_allocatorIP12netlist_elemE10deallocateEPS2_m: # @_ZN9__gnu_cxx13new_allocatorIP12netlist_elemE10deallocateEPS2_m
	.cfi_startproc
.Lfunc_begin19:
	.loc	4 110 0                 # /usr/lib/gcc/x86_64-linux-gnu/4.8/../../../../include/c++/4.8/ext/new_allocator.h:110:0
# BB#0:                                 # %entry
	subq	$24, %rsp
.Ltmp177:
	.cfi_def_cfa_offset 32
	movq	%rdi, 16(%rsp)
	movq	%rsi, 8(%rsp)
	movq	%rdx, (%rsp)
	.loc	4 110 0 prologue_end    # /usr/lib/gcc/x86_64-linux-gnu/4.8/../../../../include/c++/4.8/ext/new_allocator.h:110:0
.Ltmp178:
	movq	8(%rsp), %rdi
	callq	_ZdlPv
	addq	$24, %rsp
	ret
.Ltmp179:
.Ltmp180:
	.size	_ZN9__gnu_cxx13new_allocatorIP12netlist_elemE10deallocateEPS2_m, .Ltmp180-_ZN9__gnu_cxx13new_allocatorIP12netlist_elemE10deallocateEPS2_m
.Lfunc_end19:
	.cfi_endproc

	.section	.text._ZSt8_DestroyIPP12netlist_elemEvT_S3_,"axG",@progbits,_ZSt8_DestroyIPP12netlist_elemEvT_S3_,comdat
	.weak	_ZSt8_DestroyIPP12netlist_elemEvT_S3_
	.align	16, 0x90
	.type	_ZSt8_DestroyIPP12netlist_elemEvT_S3_,@function
_ZSt8_DestroyIPP12netlist_elemEvT_S3_:  # @_ZSt8_DestroyIPP12netlist_elemEvT_S3_
	.cfi_startproc
.Lfunc_begin20:
	.loc	17 123 0                # /usr/lib/gcc/x86_64-linux-gnu/4.8/../../../../include/c++/4.8/bits/stl_construct.h:123:0
# BB#0:                                 # %entry
	subq	$24, %rsp
.Ltmp182:
	.cfi_def_cfa_offset 32
	movq	%rdi, 16(%rsp)
	movq	%rsi, 8(%rsp)
	.loc	17 126 0 prologue_end   # /usr/lib/gcc/x86_64-linux-gnu/4.8/../../../../include/c++/4.8/bits/stl_construct.h:126:0
.Ltmp183:
	movq	16(%rsp), %rdi
	callq	_ZNSt12_Destroy_auxILb1EE9__destroyIPP12netlist_elemEEvT_S5_
	.loc	17 128 0                # /usr/lib/gcc/x86_64-linux-gnu/4.8/../../../../include/c++/4.8/bits/stl_construct.h:128:0
	addq	$24, %rsp
	ret
.Ltmp184:
.Ltmp185:
	.size	_ZSt8_DestroyIPP12netlist_elemEvT_S3_, .Ltmp185-_ZSt8_DestroyIPP12netlist_elemEvT_S3_
.Lfunc_end20:
	.cfi_endproc

	.section	.text._ZNSt12_Destroy_auxILb1EE9__destroyIPP12netlist_elemEEvT_S5_,"axG",@progbits,_ZNSt12_Destroy_auxILb1EE9__destroyIPP12netlist_elemEEvT_S5_,comdat
	.weak	_ZNSt12_Destroy_auxILb1EE9__destroyIPP12netlist_elemEEvT_S5_
	.align	16, 0x90
	.type	_ZNSt12_Destroy_auxILb1EE9__destroyIPP12netlist_elemEEvT_S5_,@function
_ZNSt12_Destroy_auxILb1EE9__destroyIPP12netlist_elemEEvT_S5_: # @_ZNSt12_Destroy_auxILb1EE9__destroyIPP12netlist_elemEEvT_S5_
	.cfi_startproc
.Lfunc_begin21:
	.loc	17 112 0                # /usr/lib/gcc/x86_64-linux-gnu/4.8/../../../../include/c++/4.8/bits/stl_construct.h:112:0
# BB#0:                                 # %entry
	movq	%rdi, -8(%rsp)
	movq	%rsi, -16(%rsp)
	.loc	17 112 0 prologue_end   # /usr/lib/gcc/x86_64-linux-gnu/4.8/../../../../include/c++/4.8/bits/stl_construct.h:112:0
.Ltmp186:
	ret
.Ltmp187:
.Ltmp188:
	.size	_ZNSt12_Destroy_auxILb1EE9__destroyIPP12netlist_elemEEvT_S5_, .Ltmp188-_ZNSt12_Destroy_auxILb1EE9__destroyIPP12netlist_elemEEvT_S5_
.Lfunc_end21:
	.cfi_endproc

	.section	.text._ZNSt6vectorIP12netlist_elemSaIS1_EEC2Ev,"axG",@progbits,_ZNSt6vectorIP12netlist_elemSaIS1_EEC2Ev,comdat
	.weak	_ZNSt6vectorIP12netlist_elemSaIS1_EEC2Ev
	.align	16, 0x90
	.type	_ZNSt6vectorIP12netlist_elemSaIS1_EEC2Ev,@function
_ZNSt6vectorIP12netlist_elemSaIS1_EEC2Ev: # @_ZNSt6vectorIP12netlist_elemSaIS1_EEC2Ev
	.cfi_startproc
.Lfunc_begin22:
	.loc	14 249 0                # /usr/lib/gcc/x86_64-linux-gnu/4.8/../../../../include/c++/4.8/bits/stl_vector.h:249:0
# BB#0:                                 # %entry
	pushq	%rax
.Ltmp190:
	.cfi_def_cfa_offset 16
	movq	%rdi, (%rsp)
	.loc	14 249 0 prologue_end   # /usr/lib/gcc/x86_64-linux-gnu/4.8/../../../../include/c++/4.8/bits/stl_vector.h:249:0
.Ltmp191:
	callq	_ZNSt12_Vector_baseIP12netlist_elemSaIS1_EEC2Ev
	.loc	14 249 0                # /usr/lib/gcc/x86_64-linux-gnu/4.8/../../../../include/c++/4.8/bits/stl_vector.h:249:0
.Ltmp192:
	popq	%rax
	ret
.Ltmp193:
.Ltmp194:
	.size	_ZNSt6vectorIP12netlist_elemSaIS1_EEC2Ev, .Ltmp194-_ZNSt6vectorIP12netlist_elemSaIS1_EEC2Ev
.Lfunc_end22:
	.cfi_endproc

	.section	.text._ZNSt12_Vector_baseIP12netlist_elemSaIS1_EEC2Ev,"axG",@progbits,_ZNSt12_Vector_baseIP12netlist_elemSaIS1_EEC2Ev,comdat
	.weak	_ZNSt12_Vector_baseIP12netlist_elemSaIS1_EEC2Ev
	.align	16, 0x90
	.type	_ZNSt12_Vector_baseIP12netlist_elemSaIS1_EEC2Ev,@function
_ZNSt12_Vector_baseIP12netlist_elemSaIS1_EEC2Ev: # @_ZNSt12_Vector_baseIP12netlist_elemSaIS1_EEC2Ev
	.cfi_startproc
.Lfunc_begin23:
	.loc	14 125 0                # /usr/lib/gcc/x86_64-linux-gnu/4.8/../../../../include/c++/4.8/bits/stl_vector.h:125:0
# BB#0:                                 # %entry
	pushq	%rax
.Ltmp196:
	.cfi_def_cfa_offset 16
	movq	%rdi, (%rsp)
	.loc	14 125 0 prologue_end   # /usr/lib/gcc/x86_64-linux-gnu/4.8/../../../../include/c++/4.8/bits/stl_vector.h:125:0
.Ltmp197:
	callq	_ZNSt12_Vector_baseIP12netlist_elemSaIS1_EE12_Vector_implC1Ev
	.loc	14 125 0                # /usr/lib/gcc/x86_64-linux-gnu/4.8/../../../../include/c++/4.8/bits/stl_vector.h:125:0
.Ltmp198:
	popq	%rax
	ret
.Ltmp199:
.Ltmp200:
	.size	_ZNSt12_Vector_baseIP12netlist_elemSaIS1_EEC2Ev, .Ltmp200-_ZNSt12_Vector_baseIP12netlist_elemSaIS1_EEC2Ev
.Lfunc_end23:
	.cfi_endproc

	.section	.text._ZNSt12_Vector_baseIP12netlist_elemSaIS1_EE12_Vector_implC1Ev,"axG",@progbits,_ZNSt12_Vector_baseIP12netlist_elemSaIS1_EE12_Vector_implC1Ev,comdat
	.weak	_ZNSt12_Vector_baseIP12netlist_elemSaIS1_EE12_Vector_implC1Ev
	.align	16, 0x90
	.type	_ZNSt12_Vector_baseIP12netlist_elemSaIS1_EE12_Vector_implC1Ev,@function
_ZNSt12_Vector_baseIP12netlist_elemSaIS1_EE12_Vector_implC1Ev: # @_ZNSt12_Vector_baseIP12netlist_elemSaIS1_EE12_Vector_implC1Ev
	.cfi_startproc
.Lfunc_begin24:
	.loc	14 88 0                 # /usr/lib/gcc/x86_64-linux-gnu/4.8/../../../../include/c++/4.8/bits/stl_vector.h:88:0
# BB#0:                                 # %entry
	pushq	%rax
.Ltmp202:
	.cfi_def_cfa_offset 16
	movq	%rdi, (%rsp)
	.loc	14 88 0 prologue_end    # /usr/lib/gcc/x86_64-linux-gnu/4.8/../../../../include/c++/4.8/bits/stl_vector.h:88:0
.Ltmp203:
	callq	_ZNSt12_Vector_baseIP12netlist_elemSaIS1_EE12_Vector_implC2Ev
	popq	%rax
	ret
.Ltmp204:
.Ltmp205:
	.size	_ZNSt12_Vector_baseIP12netlist_elemSaIS1_EE12_Vector_implC1Ev, .Ltmp205-_ZNSt12_Vector_baseIP12netlist_elemSaIS1_EE12_Vector_implC1Ev
.Lfunc_end24:
	.cfi_endproc

	.section	.text._ZNSt12_Vector_baseIP12netlist_elemSaIS1_EE12_Vector_implC2Ev,"axG",@progbits,_ZNSt12_Vector_baseIP12netlist_elemSaIS1_EE12_Vector_implC2Ev,comdat
	.weak	_ZNSt12_Vector_baseIP12netlist_elemSaIS1_EE12_Vector_implC2Ev
	.align	16, 0x90
	.type	_ZNSt12_Vector_baseIP12netlist_elemSaIS1_EE12_Vector_implC2Ev,@function
_ZNSt12_Vector_baseIP12netlist_elemSaIS1_EE12_Vector_implC2Ev: # @_ZNSt12_Vector_baseIP12netlist_elemSaIS1_EE12_Vector_implC2Ev
	.cfi_startproc
.Lfunc_begin25:
	.loc	14 88 0                 # /usr/lib/gcc/x86_64-linux-gnu/4.8/../../../../include/c++/4.8/bits/stl_vector.h:88:0
# BB#0:                                 # %entry
	pushq	%rbx
.Ltmp208:
	.cfi_def_cfa_offset 16
	subq	$16, %rsp
.Ltmp209:
	.cfi_def_cfa_offset 32
.Ltmp210:
	.cfi_offset %rbx, -16
	movq	%rdi, %rbx
	movq	%rbx, 8(%rsp)
	.loc	14 88 0 prologue_end    # /usr/lib/gcc/x86_64-linux-gnu/4.8/../../../../include/c++/4.8/bits/stl_vector.h:88:0
.Ltmp211:
	callq	_ZNSaIP12netlist_elemEC2Ev
	vxorps	%xmm0, %xmm0, %xmm0
	vmovups	%xmm0, (%rbx)
	movq	$0, 16(%rbx)
	.loc	14 88 0                 # /usr/lib/gcc/x86_64-linux-gnu/4.8/../../../../include/c++/4.8/bits/stl_vector.h:88:0
.Ltmp212:
	addq	$16, %rsp
	popq	%rbx
	ret
.Ltmp213:
.Ltmp214:
	.size	_ZNSt12_Vector_baseIP12netlist_elemSaIS1_EE12_Vector_implC2Ev, .Ltmp214-_ZNSt12_Vector_baseIP12netlist_elemSaIS1_EE12_Vector_implC2Ev
.Lfunc_end25:
	.cfi_endproc

	.section	.text._ZNSaIP12netlist_elemEC2Ev,"axG",@progbits,_ZNSaIP12netlist_elemEC2Ev,comdat
	.weak	_ZNSaIP12netlist_elemEC2Ev
	.align	16, 0x90
	.type	_ZNSaIP12netlist_elemEC2Ev,@function
_ZNSaIP12netlist_elemEC2Ev:             # @_ZNSaIP12netlist_elemEC2Ev
	.cfi_startproc
.Lfunc_begin26:
	.loc	5 113 0                 # /usr/lib/gcc/x86_64-linux-gnu/4.8/../../../../include/c++/4.8/bits/allocator.h:113:0
# BB#0:                                 # %entry
	pushq	%rax
.Ltmp216:
	.cfi_def_cfa_offset 16
	movq	%rdi, (%rsp)
	.loc	5 113 0 prologue_end    # /usr/lib/gcc/x86_64-linux-gnu/4.8/../../../../include/c++/4.8/bits/allocator.h:113:0
.Ltmp217:
	callq	_ZN9__gnu_cxx13new_allocatorIP12netlist_elemEC2Ev
	.loc	5 113 0                 # /usr/lib/gcc/x86_64-linux-gnu/4.8/../../../../include/c++/4.8/bits/allocator.h:113:0
.Ltmp218:
	popq	%rax
	ret
.Ltmp219:
.Ltmp220:
	.size	_ZNSaIP12netlist_elemEC2Ev, .Ltmp220-_ZNSaIP12netlist_elemEC2Ev
.Lfunc_end26:
	.cfi_endproc

	.section	.text._ZN9__gnu_cxx13new_allocatorIP12netlist_elemEC2Ev,"axG",@progbits,_ZN9__gnu_cxx13new_allocatorIP12netlist_elemEC2Ev,comdat
	.weak	_ZN9__gnu_cxx13new_allocatorIP12netlist_elemEC2Ev
	.align	16, 0x90
	.type	_ZN9__gnu_cxx13new_allocatorIP12netlist_elemEC2Ev,@function
_ZN9__gnu_cxx13new_allocatorIP12netlist_elemEC2Ev: # @_ZN9__gnu_cxx13new_allocatorIP12netlist_elemEC2Ev
	.cfi_startproc
.Lfunc_begin27:
	.loc	4 79 0                  # /usr/lib/gcc/x86_64-linux-gnu/4.8/../../../../include/c++/4.8/ext/new_allocator.h:79:0
# BB#0:                                 # %entry
	movq	%rdi, -8(%rsp)
	.loc	4 79 0 prologue_end     # /usr/lib/gcc/x86_64-linux-gnu/4.8/../../../../include/c++/4.8/ext/new_allocator.h:79:0
.Ltmp221:
	ret
.Ltmp222:
.Ltmp223:
	.size	_ZN9__gnu_cxx13new_allocatorIP12netlist_elemEC2Ev, .Ltmp223-_ZN9__gnu_cxx13new_allocatorIP12netlist_elemEC2Ev
.Lfunc_end27:
	.cfi_endproc

	.section	.text._ZN7threads9AtomicPtrI10location_tEC2EPS1_,"axG",@progbits,_ZN7threads9AtomicPtrI10location_tEC2EPS1_,comdat
	.weak	_ZN7threads9AtomicPtrI10location_tEC2EPS1_
	.align	16, 0x90
	.type	_ZN7threads9AtomicPtrI10location_tEC2EPS1_,@function
_ZN7threads9AtomicPtrI10location_tEC2EPS1_: # @_ZN7threads9AtomicPtrI10location_tEC2EPS1_
	.cfi_startproc
.Lfunc_begin28:
	.loc	12 148 0                # src/AtomicPtr.h:148:0
# BB#0:                                 # %entry
	movq	%rdi, -8(%rsp)
	movq	%rsi, -16(%rsp)
	movq	-8(%rsp), %rax
	.loc	12 150 0 prologue_end   # src/AtomicPtr.h:150:0
.Ltmp224:
	movq	%rsi, (%rax)
	.loc	12 151 0                # src/AtomicPtr.h:151:0
	ret
.Ltmp225:
.Ltmp226:
	.size	_ZN7threads9AtomicPtrI10location_tEC2EPS1_, .Ltmp226-_ZN7threads9AtomicPtrI10location_tEC2EPS1_
.Lfunc_end28:
	.cfi_endproc

	.type	_ZN7threads9AtomicPtrI10location_tE11ATOMIC_NULLE,@object # @_ZN7threads9AtomicPtrI10location_tE11ATOMIC_NULLE
	.section	.data._ZN7threads9AtomicPtrI10location_tE11ATOMIC_NULLE,"aGw",@progbits,_ZN7threads9AtomicPtrI10location_tE11ATOMIC_NULLE,comdat
	.weak	_ZN7threads9AtomicPtrI10location_tE11ATOMIC_NULLE
	.align	8
_ZN7threads9AtomicPtrI10location_tE11ATOMIC_NULLE:
	.quad	1
	.size	_ZN7threads9AtomicPtrI10location_tE11ATOMIC_NULLE, 8

	.text
.Ltext_end:
	.data
.Ldata_end:
	.text
.Lsection_end1:
	.section	".note.GNU-stack","",@progbits
