	.file	"<stdin>"
	.file	1 "src/netlist.cpp"
	.file	2 "/usr/lib/gcc/x86_64-linux-gnu/4.8/../../../../include/c++/4.8/bits/ios_base.h"
	.file	3 "/usr/lib/gcc/x86_64-linux-gnu/4.8/../../../../include/c++/4.8/bits/c++config.h"
	.file	4 "/usr/lib/gcc/x86_64-linux-gnu/4.8/../../../../include/c++/4.8/bits/postypes.h"
	.file	5 "/usr/lib/gcc/x86_64-linux-gnu/4.8/../../../../include/c++/4.8/bits/locale_classes.h"
	.file	6 "/usr/lib/gcc/x86_64-linux-gnu/4.8/../../../../include/c++/4.8/bits/basic_string.h"
	.file	7 "/usr/include/xlocale.h"
	.file	8 "/usr/lib/gcc/x86_64-linux-gnu/4.8/../../../../include/c++/4.8/bits/c++locale.h"
	.file	9 "/usr/lib/gcc/x86_64-linux-gnu/4.8/../../../../include/c++/4.8/ext/new_allocator.h"
	.file	10 "/usr/lib/gcc/x86_64-linux-gnu/4.8/../../../../include/c++/4.8/bits/allocator.h"
	.file	11 "/usr/lib/gcc/x86_64-linux-gnu/4.8/../../../../include/c++/4.8/bits/stl_iterator.h"
	.file	12 "/usr/lib/gcc/x86_64-linux-gnu/4.8/../../../../include/c++/4.8/bits/basic_string.tcc"
	.file	13 "/usr/lib/gcc/x86_64-linux-gnu/4.8/../../../../include/c++/4.8/bits/stringfwd.h"
	.file	14 "/usr/lib/gcc/x86_64-linux-gnu/4.8/../../../../include/c++/4.8/bits/char_traits.h"
	.file	15 "/usr/lib/gcc/x86_64-linux-gnu/4.8/../../../../include/c++/4.8/iostream"
	.file	16 "/usr/lib/gcc/x86_64-linux-gnu/4.8/../../../../include/c++/4.8/bits/ctype_base.h"
	.file	17 "/usr/lib/gcc/x86_64-linux-gnu/4.8/../../../../include/c++/4.8/bits/locale_facets.h"
	.file	18 "src/netlist.h"
	.file	19 "src/netlist_elem.h"
	.file	20 "/usr/lib/gcc/x86_64-linux-gnu/4.8/../../../../include/c++/4.8/bits/stl_vector.h"
	.file	21 "/usr/lib/gcc/x86_64-linux-gnu/4.8/../../../../include/c++/4.8/ext/alloc_traits.h"
	.file	22 "/usr/lib/gcc/x86_64-linux-gnu/4.8/../../../../include/c++/4.8/bits/stl_iterator_base_types.h"
	.file	23 "src/location_t.h"
	.file	24 "src/AtomicPtr.h"
	.file	25 "/usr/lib/gcc/x86_64-linux-gnu/4.8/../../../../include/c++/4.8/bits/stl_tree.h"
	.file	26 "/usr/lib/gcc/x86_64-linux-gnu/4.8/../../../../include/c++/4.8/bits/stl_pair.h"
	.file	27 "/usr/lib/gcc/x86_64-linux-gnu/4.8/../../../../include/c++/4.8/bits/stl_function.h"
	.file	28 "/usr/lib/gcc/x86_64-linux-gnu/4.8/../../../../include/c++/4.8/bits/stl_map.h"
	.file	29 "src/rng.h"
	.file	30 "/usr/lib/gcc/x86_64-linux-gnu/4.8/../../../../include/c++/4.8/bits/stl_construct.h"
	.file	31 "/usr/lib/gcc/x86_64-linux-gnu/4.8/../../../../include/c++/4.8/bits/stl_uninitialized.h"
	.file	32 "/usr/lib/gcc/x86_64-linux-gnu/4.8/../../../../include/c++/4.8/bits/stl_algobase.h"
	.file	33 "src/atomic/amd64/atomic.h"
	.file	34 "/usr/lib/gcc/x86_64-linux-gnu/4.8/../../../../include/c++/4.8/bits/move.h"
	.file	35 "/usr/lib/gcc/x86_64-linux-gnu/4.8/../../../../include/c++/4.8/ext/type_traits.h"
	.file	36 "/usr/lib/gcc/x86_64-linux-gnu/4.8/../../../../include/c++/4.8/bits/codecvt.h"
	.file	37 "/usr/lib/gcc/x86_64-linux-gnu/4.8/../../../../include/c++/4.8/bits/cpp_type_traits.h"
	.text
.Ltext_begin:
	.data
	.section	.text.startup,"ax",@progbits
	.align	16, 0x90
	.type	__cxx_global_var_init,@function
__cxx_global_var_init:                  # @__cxx_global_var_init
	.cfi_startproc
.Lfunc_begin0:
	.loc	15 73 0                 # /usr/lib/gcc/x86_64-linux-gnu/4.8/../../../../include/c++/4.8/iostream:73:0
# BB#0:                                 # %entry
	.loc	15 73 0 prologue_end    # /usr/lib/gcc/x86_64-linux-gnu/4.8/../../../../include/c++/4.8/iostream:73:0
	pushq	%rax
.Ltmp1:
	.cfi_def_cfa_offset 16
	movl	$_ZStL8__ioinit, %edi
	callq	_ZNSt8ios_base4InitC1Ev
	movl	$_ZNSt8ios_base4InitD1Ev, %edi
	movl	$_ZStL8__ioinit, %esi
	movl	$__dso_handle, %edx
	callq	__cxa_atexit
	popq	%rax
	ret
.Ltmp2:
.Ltmp3:
	.size	__cxx_global_var_init, .Ltmp3-__cxx_global_var_init
.Lfunc_end0:
	.cfi_endproc

	.text
	.globl	_ZN7netlist7releaseEP12netlist_elem
	.align	16, 0x90
	.type	_ZN7netlist7releaseEP12netlist_elem,@function
_ZN7netlist7releaseEP12netlist_elem:    # @_ZN7netlist7releaseEP12netlist_elem
	.cfi_startproc
.Lfunc_begin1:
	.loc	1 42 0                  # src/netlist.cpp:42:0
# BB#0:                                 # %entry
	movq	%rdi, -8(%rsp)
	movq	%rsi, -16(%rsp)
	.loc	1 43 0 prologue_end     # src/netlist.cpp:43:0
.Ltmp4:
	ret
.Ltmp5:
.Ltmp6:
	.size	_ZN7netlist7releaseEP12netlist_elem, .Ltmp6-_ZN7netlist7releaseEP12netlist_elem
.Lfunc_end1:
	.cfi_endproc

	.section	.rodata.cst8,"aM",@progbits,8
	.align	8
.LCPI2_0:
	.quad	4611686018427387904     # double 2.000000e+00
                                        #  (0x4000000000000000)
	.text
	.globl	_ZN7netlist18total_routing_costEv
	.align	16, 0x90
	.type	_ZN7netlist18total_routing_costEv,@function
_ZN7netlist18total_routing_costEv:      # @_ZN7netlist18total_routing_costEv
	.cfi_startproc
.Lfunc_begin2:
	.loc	1 52 0                  # src/netlist.cpp:52:0
# BB#0:                                 # %entry
	pushq	%r15
.Ltmp12:
	.cfi_def_cfa_offset 16
	pushq	%r14
.Ltmp13:
	.cfi_def_cfa_offset 24
	pushq	%r12
.Ltmp14:
	.cfi_def_cfa_offset 32
	pushq	%rbx
.Ltmp15:
	.cfi_def_cfa_offset 40
	subq	$56, %rsp
.Ltmp16:
	.cfi_def_cfa_offset 96
.Ltmp17:
	.cfi_offset %rbx, -40
.Ltmp18:
	.cfi_offset %r12, -32
.Ltmp19:
	.cfi_offset %r14, -24
.Ltmp20:
	.cfi_offset %r15, -16
	movq	%rdi, %r14
	movq	%r14, 48(%rsp)
	.loc	1 53 0 prologue_end     # src/netlist.cpp:53:0
.Ltmp21:
	movq	$0, 40(%rsp)
	.loc	1 54 0                  # src/netlist.cpp:54:0
.Ltmp22:
	addq	$64, %r14
	movq	%r14, %rdi
	callq	_ZNSt3mapISsP12netlist_elemSt4lessISsESaISt4pairIKSsS1_EEE5beginEv
	movq	%rax, 32(%rsp)
	leaq	32(%rsp), %r12
	leaq	24(%rsp), %r15
	jmp	.LBB2_1
	.align	16, 0x90
.LBB2_2:                                # %for.inc
                                        #   in Loop: Header=BB2_1 Depth=1
.Ltmp23:
	#DEBUG_VALUE: elem <- [%rsp+$16]+$0
	.loc	1 57 0                  # src/netlist.cpp:57:0
	movq	%r12, %rdi
	callq	_ZNKSt17_Rb_tree_iteratorISt4pairIKSsP12netlist_elemEEptEv
	movq	8(%rax), %rbx
	movq	%rbx, 16(%rsp)
	.loc	1 58 0                  # src/netlist.cpp:58:0
	leaq	56(%rbx), %rdi
	callq	_ZNK7threads9AtomicPtrI10location_tE3GetEv
	movq	(%rax), %rsi
	movq	%rsi, 8(%rsp)
	movq	%rbx, %rdi
	callq	_ZN12netlist_elem22routing_cost_given_locE10location_t
	vaddsd	40(%rsp), %xmm0, %xmm0
	vmovsd	%xmm0, 40(%rsp)
.Ltmp24:
	.loc	1 56 0                  # src/netlist.cpp:56:0
	movq	%r12, %rdi
	callq	_ZNSt17_Rb_tree_iteratorISt4pairIKSsP12netlist_elemEEppEv
.LBB2_1:                                # %for.cond
                                        # =>This Inner Loop Header: Depth=1
	.loc	1 55 0                  # src/netlist.cpp:55:0
	movq	%r14, %rdi
	callq	_ZNSt3mapISsP12netlist_elemSt4lessISsESaISt4pairIKSsS1_EEE3endEv
	movq	%rax, 24(%rsp)
	movq	%r12, %rdi
	movq	%r15, %rsi
	callq	_ZNKSt17_Rb_tree_iteratorISt4pairIKSsP12netlist_elemEEneERKS5_
	cmpb	$1, %al
	je	.LBB2_2
.Ltmp25:
# BB#3:                                 # %for.end
	.loc	1 60 0                  # src/netlist.cpp:60:0
	vmovsd	40(%rsp), %xmm0
	vdivsd	.LCPI2_0(%rip), %xmm0, %xmm0
	addq	$56, %rsp
	popq	%rbx
	popq	%r12
	popq	%r14
	popq	%r15
	ret
.Ltmp26:
.Ltmp27:
	.size	_ZN7netlist18total_routing_costEv, .Ltmp27-_ZN7netlist18total_routing_costEv
.Lfunc_end2:
	.cfi_endproc

	.section	.text._ZNSt3mapISsP12netlist_elemSt4lessISsESaISt4pairIKSsS1_EEE5beginEv,"axG",@progbits,_ZNSt3mapISsP12netlist_elemSt4lessISsESaISt4pairIKSsS1_EEE5beginEv,comdat
	.weak	_ZNSt3mapISsP12netlist_elemSt4lessISsESaISt4pairIKSsS1_EEE5beginEv
	.align	16, 0x90
	.type	_ZNSt3mapISsP12netlist_elemSt4lessISsESaISt4pairIKSsS1_EEE5beginEv,@function
_ZNSt3mapISsP12netlist_elemSt4lessISsESaISt4pairIKSsS1_EEE5beginEv: # @_ZNSt3mapISsP12netlist_elemSt4lessISsESaISt4pairIKSsS1_EEE5beginEv
	.cfi_startproc
.Lfunc_begin3:
	.loc	28 321 0                # /usr/lib/gcc/x86_64-linux-gnu/4.8/../../../../include/c++/4.8/bits/stl_map.h:321:0
# BB#0:                                 # %entry
	subq	$24, %rsp
.Ltmp29:
	.cfi_def_cfa_offset 32
	movq	%rdi, 8(%rsp)
	.loc	28 321 0 prologue_end   # /usr/lib/gcc/x86_64-linux-gnu/4.8/../../../../include/c++/4.8/bits/stl_map.h:321:0
.Ltmp30:
	callq	_ZNSt8_Rb_treeISsSt4pairIKSsP12netlist_elemESt10_Select1stIS4_ESt4lessISsESaIS4_EE5beginEv
	movq	%rax, 16(%rsp)
	addq	$24, %rsp
	ret
.Ltmp31:
.Ltmp32:
	.size	_ZNSt3mapISsP12netlist_elemSt4lessISsESaISt4pairIKSsS1_EEE5beginEv, .Ltmp32-_ZNSt3mapISsP12netlist_elemSt4lessISsESaISt4pairIKSsS1_EEE5beginEv
.Lfunc_end3:
	.cfi_endproc

	.section	.text._ZNKSt17_Rb_tree_iteratorISt4pairIKSsP12netlist_elemEEneERKS5_,"axG",@progbits,_ZNKSt17_Rb_tree_iteratorISt4pairIKSsP12netlist_elemEEneERKS5_,comdat
	.weak	_ZNKSt17_Rb_tree_iteratorISt4pairIKSsP12netlist_elemEEneERKS5_
	.align	16, 0x90
	.type	_ZNKSt17_Rb_tree_iteratorISt4pairIKSsP12netlist_elemEEneERKS5_,@function
_ZNKSt17_Rb_tree_iteratorISt4pairIKSsP12netlist_elemEEneERKS5_: # @_ZNKSt17_Rb_tree_iteratorISt4pairIKSsP12netlist_elemEEneERKS5_
	.cfi_startproc
.Lfunc_begin4:
	.loc	25 222 0                # /usr/lib/gcc/x86_64-linux-gnu/4.8/../../../../include/c++/4.8/bits/stl_tree.h:222:0
# BB#0:                                 # %entry
	movq	%rdi, -8(%rsp)
	movq	%rsi, -16(%rsp)
	movq	-8(%rsp), %rax
	.loc	25 222 0 prologue_end   # /usr/lib/gcc/x86_64-linux-gnu/4.8/../../../../include/c++/4.8/bits/stl_tree.h:222:0
.Ltmp33:
	movq	(%rax), %rax
	cmpq	(%rsi), %rax
	setne	%al
	ret
.Ltmp34:
.Ltmp35:
	.size	_ZNKSt17_Rb_tree_iteratorISt4pairIKSsP12netlist_elemEEneERKS5_, .Ltmp35-_ZNKSt17_Rb_tree_iteratorISt4pairIKSsP12netlist_elemEEneERKS5_
.Lfunc_end4:
	.cfi_endproc

	.section	.text._ZNSt3mapISsP12netlist_elemSt4lessISsESaISt4pairIKSsS1_EEE3endEv,"axG",@progbits,_ZNSt3mapISsP12netlist_elemSt4lessISsESaISt4pairIKSsS1_EEE3endEv,comdat
	.weak	_ZNSt3mapISsP12netlist_elemSt4lessISsESaISt4pairIKSsS1_EEE3endEv
	.align	16, 0x90
	.type	_ZNSt3mapISsP12netlist_elemSt4lessISsESaISt4pairIKSsS1_EEE3endEv,@function
_ZNSt3mapISsP12netlist_elemSt4lessISsESaISt4pairIKSsS1_EEE3endEv: # @_ZNSt3mapISsP12netlist_elemSt4lessISsESaISt4pairIKSsS1_EEE3endEv
	.cfi_startproc
.Lfunc_begin5:
	.loc	28 339 0                # /usr/lib/gcc/x86_64-linux-gnu/4.8/../../../../include/c++/4.8/bits/stl_map.h:339:0
# BB#0:                                 # %entry
	subq	$24, %rsp
.Ltmp37:
	.cfi_def_cfa_offset 32
	movq	%rdi, 8(%rsp)
	.loc	28 339 0 prologue_end   # /usr/lib/gcc/x86_64-linux-gnu/4.8/../../../../include/c++/4.8/bits/stl_map.h:339:0
.Ltmp38:
	callq	_ZNSt8_Rb_treeISsSt4pairIKSsP12netlist_elemESt10_Select1stIS4_ESt4lessISsESaIS4_EE3endEv
	movq	%rax, 16(%rsp)
	addq	$24, %rsp
	ret
.Ltmp39:
.Ltmp40:
	.size	_ZNSt3mapISsP12netlist_elemSt4lessISsESaISt4pairIKSsS1_EEE3endEv, .Ltmp40-_ZNSt3mapISsP12netlist_elemSt4lessISsESaISt4pairIKSsS1_EEE3endEv
.Lfunc_end5:
	.cfi_endproc

	.section	.text._ZNKSt17_Rb_tree_iteratorISt4pairIKSsP12netlist_elemEEptEv,"axG",@progbits,_ZNKSt17_Rb_tree_iteratorISt4pairIKSsP12netlist_elemEEptEv,comdat
	.weak	_ZNKSt17_Rb_tree_iteratorISt4pairIKSsP12netlist_elemEEptEv
	.align	16, 0x90
	.type	_ZNKSt17_Rb_tree_iteratorISt4pairIKSsP12netlist_elemEEptEv,@function
_ZNKSt17_Rb_tree_iteratorISt4pairIKSsP12netlist_elemEEptEv: # @_ZNKSt17_Rb_tree_iteratorISt4pairIKSsP12netlist_elemEEptEv
	.cfi_startproc
.Lfunc_begin6:
	.loc	25 183 0                # /usr/lib/gcc/x86_64-linux-gnu/4.8/../../../../include/c++/4.8/bits/stl_tree.h:183:0
# BB#0:                                 # %entry
	pushq	%rax
.Ltmp42:
	.cfi_def_cfa_offset 16
	movq	%rdi, (%rsp)
	.loc	25 183 0 prologue_end   # /usr/lib/gcc/x86_64-linux-gnu/4.8/../../../../include/c++/4.8/bits/stl_tree.h:183:0
.Ltmp43:
	movq	(%rdi), %rdi
	addq	$32, %rdi
	callq	_ZSt11__addressofISt4pairIKSsP12netlist_elemEEPT_RS5_
	popq	%rdx
	ret
.Ltmp44:
.Ltmp45:
	.size	_ZNKSt17_Rb_tree_iteratorISt4pairIKSsP12netlist_elemEEptEv, .Ltmp45-_ZNKSt17_Rb_tree_iteratorISt4pairIKSsP12netlist_elemEEptEv
.Lfunc_end6:
	.cfi_endproc

	.section	.text._ZNK7threads9AtomicPtrI10location_tE3GetEv,"axG",@progbits,_ZNK7threads9AtomicPtrI10location_tE3GetEv,comdat
	.weak	_ZNK7threads9AtomicPtrI10location_tE3GetEv
	.align	16, 0x90
	.type	_ZNK7threads9AtomicPtrI10location_tE3GetEv,@function
_ZNK7threads9AtomicPtrI10location_tE3GetEv: # @_ZNK7threads9AtomicPtrI10location_tE3GetEv
	.cfi_startproc
.Lfunc_begin7:
	.loc	24 175 0                # src/AtomicPtr.h:175:0
# BB#0:                                 # %entry
	pushq	%rbx
.Ltmp48:
	.cfi_def_cfa_offset 16
	subq	$16, %rsp
.Ltmp49:
	.cfi_def_cfa_offset 32
.Ltmp50:
	.cfi_offset %rbx, -16
	movq	%rdi, %rbx
	movq	%rbx, 8(%rsp)
	.align	16, 0x90
.LBB7_1:                                # %do.cond
                                        # =>This Inner Loop Header: Depth=1
	.loc	24 179 0 prologue_end   # src/AtomicPtr.h:179:0
.Ltmp51:
	movq	%rbx, %rdi
	callq	_ZL20atomic_load_acq_longPVm
	movq	%rax, (%rsp)
	cmpq	_ZN7threads9AtomicPtrI10location_tE11ATOMIC_NULLE(%rip), %rax
	.loc	24 180 0                # src/AtomicPtr.h:180:0
	je	.LBB7_1
.Ltmp52:
# BB#2:                                 # %do.end
	.loc	24 182 0                # src/AtomicPtr.h:182:0
	movq	(%rsp), %rax
	addq	$16, %rsp
	popq	%rbx
	ret
.Ltmp53:
.Ltmp54:
	.size	_ZNK7threads9AtomicPtrI10location_tE3GetEv, .Ltmp54-_ZNK7threads9AtomicPtrI10location_tE3GetEv
.Lfunc_end7:
	.cfi_endproc

	.section	.text._ZNSt17_Rb_tree_iteratorISt4pairIKSsP12netlist_elemEEppEv,"axG",@progbits,_ZNSt17_Rb_tree_iteratorISt4pairIKSsP12netlist_elemEEppEv,comdat
	.weak	_ZNSt17_Rb_tree_iteratorISt4pairIKSsP12netlist_elemEEppEv
	.align	16, 0x90
	.type	_ZNSt17_Rb_tree_iteratorISt4pairIKSsP12netlist_elemEEppEv,@function
_ZNSt17_Rb_tree_iteratorISt4pairIKSsP12netlist_elemEEppEv: # @_ZNSt17_Rb_tree_iteratorISt4pairIKSsP12netlist_elemEEppEv
	.cfi_startproc
.Lfunc_begin8:
	.loc	25 188 0                # /usr/lib/gcc/x86_64-linux-gnu/4.8/../../../../include/c++/4.8/bits/stl_tree.h:188:0
# BB#0:                                 # %entry
	pushq	%rbx
.Ltmp57:
	.cfi_def_cfa_offset 16
	subq	$16, %rsp
.Ltmp58:
	.cfi_def_cfa_offset 32
.Ltmp59:
	.cfi_offset %rbx, -16
	movq	%rdi, %rbx
	movq	%rbx, 8(%rsp)
	.loc	25 189 0 prologue_end   # /usr/lib/gcc/x86_64-linux-gnu/4.8/../../../../include/c++/4.8/bits/stl_tree.h:189:0
.Ltmp60:
	movq	(%rbx), %rdi
	callq	_ZSt18_Rb_tree_incrementPSt18_Rb_tree_node_base
	movq	%rax, (%rbx)
	.loc	25 190 0                # /usr/lib/gcc/x86_64-linux-gnu/4.8/../../../../include/c++/4.8/bits/stl_tree.h:190:0
	movq	%rbx, %rax
	addq	$16, %rsp
	popq	%rbx
	ret
.Ltmp61:
.Ltmp62:
	.size	_ZNSt17_Rb_tree_iteratorISt4pairIKSsP12netlist_elemEEppEv, .Ltmp62-_ZNSt17_Rb_tree_iteratorISt4pairIKSsP12netlist_elemEEppEv
.Lfunc_end8:
	.cfi_endproc

	.text
	.globl	_ZN7netlist7shuffleEP3Rng
	.align	16, 0x90
	.type	_ZN7netlist7shuffleEP3Rng,@function
_ZN7netlist7shuffleEP3Rng:              # @_ZN7netlist7shuffleEP3Rng
	.cfi_startproc
.Lfunc_begin9:
	.loc	1 69 0                  # src/netlist.cpp:69:0
# BB#0:                                 # %entry
	pushq	%r15
.Ltmp67:
	.cfi_def_cfa_offset 16
	pushq	%r14
.Ltmp68:
	.cfi_def_cfa_offset 24
	pushq	%rbx
.Ltmp69:
	.cfi_def_cfa_offset 32
	subq	$48, %rsp
.Ltmp70:
	.cfi_def_cfa_offset 80
.Ltmp71:
	.cfi_offset %rbx, -32
.Ltmp72:
	.cfi_offset %r14, -24
.Ltmp73:
	.cfi_offset %r15, -16
	movq	%rdi, 40(%rsp)
	movq	%rsi, 32(%rsp)
	movq	40(%rsp), %rbx
	.loc	1 70 0 prologue_end     # src/netlist.cpp:70:0
.Ltmp74:
	movl	$0, 28(%rsp)
	leaq	16(%rsp), %r14
	leaq	8(%rsp), %r15
	jmp	.LBB9_1
	.align	16, 0x90
.LBB9_2:                                # %for.body
                                        #   in Loop: Header=BB9_1 Depth=1
.Ltmp75:
	#DEBUG_VALUE: a <- [%rsp+$16]+$0
	#DEBUG_VALUE: b <- [%rsp+$8]+$0
	.loc	1 72 0                  # src/netlist.cpp:72:0
	movq	32(%rsp), %rcx
	movq	%rbx, %rdi
	movq	%r14, %rsi
	movq	%r15, %rdx
	callq	_ZN7netlist15get_random_pairEPP12netlist_elemS2_P3Rng
	.loc	1 73 0                  # src/netlist.cpp:73:0
	movq	8(%rsp), %rdx
	movq	16(%rsp), %rsi
	movq	%rbx, %rdi
	callq	_ZN7netlist14swap_locationsEP12netlist_elemS1_
.Ltmp76:
	.loc	1 70 0                  # src/netlist.cpp:70:0
	incl	28(%rsp)
.LBB9_1:                                # %for.cond
                                        # =>This Inner Loop Header: Depth=1
	movl	4(%rbx), %eax
	imull	8(%rbx), %eax
	imull	$1000, %eax, %eax       # imm = 0x3E8
	cmpl	%eax, 28(%rsp)
	jb	.LBB9_2
.Ltmp77:
# BB#3:                                 # %for.end
	.loc	1 75 0                  # src/netlist.cpp:75:0
	addq	$48, %rsp
	popq	%rbx
	popq	%r14
	popq	%r15
	ret
.Ltmp78:
.Ltmp79:
	.size	_ZN7netlist7shuffleEP3Rng, .Ltmp79-_ZN7netlist7shuffleEP3Rng
.Lfunc_end9:
	.cfi_endproc

	.globl	_ZN7netlist15get_random_pairEPP12netlist_elemS2_P3Rng
	.align	16, 0x90
	.type	_ZN7netlist15get_random_pairEPP12netlist_elemS2_P3Rng,@function
_ZN7netlist15get_random_pairEPP12netlist_elemS2_P3Rng: # @_ZN7netlist15get_random_pairEPP12netlist_elemS2_P3Rng
	.cfi_startproc
.Lfunc_begin10:
	.loc	1 113 0                 # src/netlist.cpp:113:0
# BB#0:                                 # %entry
	pushq	%r14
.Ltmp83:
	.cfi_def_cfa_offset 16
	pushq	%rbx
.Ltmp84:
	.cfi_def_cfa_offset 24
	subq	$72, %rsp
.Ltmp85:
	.cfi_def_cfa_offset 96
.Ltmp86:
	.cfi_offset %rbx, -24
.Ltmp87:
	.cfi_offset %r14, -16
	movq	%rdi, 64(%rsp)
	movq	%rsi, 56(%rsp)
	movq	%rdx, 48(%rsp)
	movq	%rcx, 40(%rsp)
	movq	64(%rsp), %r14
	.loc	1 115 0 prologue_end    # src/netlist.cpp:115:0
.Ltmp88:
	movl	12(%r14), %esi
	movq	%rcx, %rdi
	callq	_ZN3Rng4randEi
	movq	%rax, 32(%rsp)
	.loc	1 116 0                 # src/netlist.cpp:116:0
	leaq	16(%r14), %rbx
	movq	%rbx, %rdi
	movq	%rax, %rsi
	callq	_ZNSt6vectorI12netlist_elemSaIS0_EEixEm
	movq	%rax, 24(%rsp)
	.align	16, 0x90
.LBB10_1:                               # %entry
                                        # =>This Inner Loop Header: Depth=1
	.loc	1 119 0                 # src/netlist.cpp:119:0
	movl	12(%r14), %esi
	movq	40(%rsp), %rdi
	callq	_ZN3Rng4randEi
	movq	%rax, 16(%rsp)
	.loc	1 120 0                 # src/netlist.cpp:120:0
	movq	%rbx, %rdi
	movq	%rax, %rsi
	callq	_ZNSt6vectorI12netlist_elemSaIS0_EEixEm
	movq	%rax, 8(%rsp)
	.loc	1 125 0                 # src/netlist.cpp:125:0
	movq	16(%rsp), %rax
	cmpq	32(%rsp), %rax
	je	.LBB10_1
# BB#2:                                 # %while.end
	.loc	1 131 0                 # src/netlist.cpp:131:0
	movq	56(%rsp), %rax
	movq	24(%rsp), %rcx
	movq	%rcx, (%rax)
	.loc	1 132 0                 # src/netlist.cpp:132:0
	movq	48(%rsp), %rax
	movq	8(%rsp), %rcx
	movq	%rcx, (%rax)
	.loc	1 133 0                 # src/netlist.cpp:133:0
	addq	$72, %rsp
	popq	%rbx
	popq	%r14
	ret
.Ltmp89:
.Ltmp90:
	.size	_ZN7netlist15get_random_pairEPP12netlist_elemS2_P3Rng, .Ltmp90-_ZN7netlist15get_random_pairEPP12netlist_elemS2_P3Rng
.Lfunc_end10:
	.cfi_endproc

	.globl	_ZN7netlist14swap_locationsEP12netlist_elemS1_
	.align	16, 0x90
	.type	_ZN7netlist14swap_locationsEP12netlist_elemS1_,@function
_ZN7netlist14swap_locationsEP12netlist_elemS1_: # @_ZN7netlist14swap_locationsEP12netlist_elemS1_
	.cfi_startproc
.Lfunc_begin11:
	.loc	1 82 0                  # src/netlist.cpp:82:0
# BB#0:                                 # %entry
	subq	$24, %rsp
.Ltmp92:
	.cfi_def_cfa_offset 32
	movq	%rdi, 16(%rsp)
	movq	%rsi, 8(%rsp)
	movq	%rdx, (%rsp)
	.loc	1 84 0 prologue_end     # src/netlist.cpp:84:0
.Ltmp93:
	movq	8(%rsp), %rdi
	leaq	56(%rdx), %rsi
	addq	$56, %rdi
	callq	_ZN7threads9AtomicPtrI10location_tE4SwapERS2_
	.loc	1 85 0                  # src/netlist.cpp:85:0
	addq	$24, %rsp
	ret
.Ltmp94:
.Ltmp95:
	.size	_ZN7netlist14swap_locationsEP12netlist_elemS1_, .Ltmp95-_ZN7netlist14swap_locationsEP12netlist_elemS1_
.Lfunc_end11:
	.cfi_endproc

	.section	.text._ZN7threads9AtomicPtrI10location_tE4SwapERS2_,"axG",@progbits,_ZN7threads9AtomicPtrI10location_tE4SwapERS2_,comdat
	.weak	_ZN7threads9AtomicPtrI10location_tE4SwapERS2_
	.align	16, 0x90
	.type	_ZN7threads9AtomicPtrI10location_tE4SwapERS2_,@function
_ZN7threads9AtomicPtrI10location_tE4SwapERS2_: # @_ZN7threads9AtomicPtrI10location_tE4SwapERS2_
	.cfi_startproc
.Lfunc_begin12:
	.loc	24 202 0                # src/AtomicPtr.h:202:0
# BB#0:                                 # %entry
	subq	$56, %rsp
.Ltmp97:
	.cfi_def_cfa_offset 64
	movq	%rdi, 48(%rsp)
	movq	%rsi, 40(%rsp)
	movq	48(%rsp), %rax
	cmpq	%rsi, %rax
	.loc	24 207 0 prologue_end   # src/AtomicPtr.h:207:0
.Ltmp98:
	jae	.LBB12_2
# BB#1:                                 # %if.then
	.loc	24 208 0                # src/AtomicPtr.h:208:0
.Ltmp99:
	movq	%rax, 32(%rsp)
	.loc	24 209 0                # src/AtomicPtr.h:209:0
	movq	40(%rsp), %rax
	jmp	.LBB12_3
.Ltmp100:
.LBB12_2:                               # %if.else
	.loc	24 211 0                # src/AtomicPtr.h:211:0
	movq	40(%rsp), %rcx
	movq	%rcx, 32(%rsp)
.LBB12_3:                               # %if.else
	.loc	24 212 0                # src/AtomicPtr.h:212:0
	movq	%rax, 24(%rsp)
.Ltmp101:
	#DEBUG_VALUE: valFirst <- [%rsp+$16]+$0
	.loc	24 216 0                # src/AtomicPtr.h:216:0
	movq	32(%rsp), %rdi
	callq	_ZN7threads9AtomicPtrI10location_tE8CheckoutEv
	movq	%rax, 16(%rsp)
	.loc	24 217 0                # src/AtomicPtr.h:217:0
	movq	24(%rsp), %rdi
.Ltmp102:
	#DEBUG_VALUE: valLast <- [%rsp+$8]+$0
	movq	%rax, %rsi
	callq	_ZN7threads9AtomicPtrI10location_tE10PrivateSetEPS1_
	movq	%rax, 8(%rsp)
	.loc	24 218 0                # src/AtomicPtr.h:218:0
	movq	32(%rsp), %rdi
	movq	%rax, %rsi
	callq	_ZN7threads9AtomicPtrI10location_tE7CheckinEPS1_
	.loc	24 219 0                # src/AtomicPtr.h:219:0
	addq	$56, %rsp
	ret
.Ltmp103:
.Ltmp104:
	.size	_ZN7threads9AtomicPtrI10location_tE4SwapERS2_, .Ltmp104-_ZN7threads9AtomicPtrI10location_tE4SwapERS2_
.Lfunc_end12:
	.cfi_endproc

	.text
	.globl	_ZN7netlist18get_random_elementEPllP3Rng
	.align	16, 0x90
	.type	_ZN7netlist18get_random_elementEPllP3Rng,@function
_ZN7netlist18get_random_elementEPllP3Rng: # @_ZN7netlist18get_random_elementEPllP3Rng
	.cfi_startproc
.Lfunc_begin13:
	.loc	1 93 0                  # src/netlist.cpp:93:0
# BB#0:                                 # %entry
	pushq	%r14
.Ltmp108:
	.cfi_def_cfa_offset 16
	pushq	%rbx
.Ltmp109:
	.cfi_def_cfa_offset 24
	subq	$56, %rsp
.Ltmp110:
	.cfi_def_cfa_offset 80
.Ltmp111:
	.cfi_offset %rbx, -24
.Ltmp112:
	.cfi_offset %r14, -16
	movq	%rdi, 48(%rsp)
	movq	%rsi, 40(%rsp)
	movq	%rdx, 32(%rsp)
	movq	%rcx, 24(%rsp)
	movq	48(%rsp), %r14
	.loc	1 94 0 prologue_end     # src/netlist.cpp:94:0
.Ltmp113:
	movl	12(%r14), %esi
	movq	%rcx, %rdi
	callq	_ZN3Rng4randEi
	movq	%rax, 16(%rsp)
	.loc	1 95 0                  # src/netlist.cpp:95:0
	leaq	16(%r14), %rbx
	jmp	.LBB13_1
	.align	16, 0x90
.LBB13_2:                               # %while.body
                                        #   in Loop: Header=BB13_1 Depth=1
	.loc	1 101 0                 # src/netlist.cpp:101:0
.Ltmp114:
	movl	12(%r14), %esi
	movq	24(%rsp), %rdi
	callq	_ZN3Rng4randEi
	movq	%rax, 16(%rsp)
.Ltmp115:
.LBB13_1:                               # %entry
                                        # =>This Inner Loop Header: Depth=1
	.loc	1 95 0                  # src/netlist.cpp:95:0
	movq	%rbx, %rdi
	movq	%rax, %rsi
	callq	_ZNSt6vectorI12netlist_elemSaIS0_EEixEm
	movq	%rax, 8(%rsp)
	.loc	1 100 0                 # src/netlist.cpp:100:0
	movq	16(%rsp), %rax
	cmpq	32(%rsp), %rax
	je	.LBB13_2
# BB#3:                                 # %while.end
	.loc	1 104 0                 # src/netlist.cpp:104:0
	movq	40(%rsp), %rax
	movq	16(%rsp), %rcx
	movq	%rcx, (%rax)
	.loc	1 105 0                 # src/netlist.cpp:105:0
	movq	8(%rsp), %rax
	addq	$56, %rsp
	popq	%rbx
	popq	%r14
	ret
.Ltmp116:
.Ltmp117:
	.size	_ZN7netlist18get_random_elementEPllP3Rng, .Ltmp117-_ZN7netlist18get_random_elementEPllP3Rng
.Lfunc_end13:
	.cfi_endproc

	.section	.text._ZNSt6vectorI12netlist_elemSaIS0_EEixEm,"axG",@progbits,_ZNSt6vectorI12netlist_elemSaIS0_EEixEm,comdat
	.weak	_ZNSt6vectorI12netlist_elemSaIS0_EEixEm
	.align	16, 0x90
	.type	_ZNSt6vectorI12netlist_elemSaIS0_EEixEm,@function
_ZNSt6vectorI12netlist_elemSaIS0_EEixEm: # @_ZNSt6vectorI12netlist_elemSaIS0_EEixEm
	.cfi_startproc
.Lfunc_begin14:
	.loc	20 771 0                # /usr/lib/gcc/x86_64-linux-gnu/4.8/../../../../include/c++/4.8/bits/stl_vector.h:771:0
# BB#0:                                 # %entry
	movq	%rdi, -8(%rsp)
	movq	%rsi, -16(%rsp)
	.loc	20 771 0 prologue_end   # /usr/lib/gcc/x86_64-linux-gnu/4.8/../../../../include/c++/4.8/bits/stl_vector.h:771:0
.Ltmp118:
	shlq	$6, %rsi
	movq	-8(%rsp), %rax
	addq	(%rax), %rsi
	movq	%rsi, %rax
	ret
.Ltmp119:
.Ltmp120:
	.size	_ZNSt6vectorI12netlist_elemSaIS0_EEixEm, .Ltmp120-_ZNSt6vectorI12netlist_elemSaIS0_EEixEm
.Lfunc_end14:
	.cfi_endproc

	.text
	.globl	_ZN7netlist21netlist_elem_from_locER10location_t
	.align	16, 0x90
	.type	_ZN7netlist21netlist_elem_from_locER10location_t,@function
_ZN7netlist21netlist_elem_from_locER10location_t: # @_ZN7netlist21netlist_elem_from_locER10location_t
	.cfi_startproc
.Lfunc_begin15:
	.loc	1 140 0                 # src/netlist.cpp:140:0
# BB#0:                                 # %entry
	movq	%rdi, -8(%rsp)
	movq	%rsi, -16(%rsp)
	xorl	%eax, %eax
	.loc	1 142 0 prologue_end    # src/netlist.cpp:142:0
.Ltmp121:
	ret
.Ltmp122:
.Ltmp123:
	.size	_ZN7netlist21netlist_elem_from_locER10location_t, .Ltmp123-_ZN7netlist21netlist_elem_from_locER10location_t
.Lfunc_end15:
	.cfi_endproc

	.globl	_ZN7netlist22netlist_elem_from_nameERSs
	.align	16, 0x90
	.type	_ZN7netlist22netlist_elem_from_nameERSs,@function
_ZN7netlist22netlist_elem_from_nameERSs: # @_ZN7netlist22netlist_elem_from_nameERSs
	.cfi_startproc
.Lfunc_begin16:
	.loc	1 149 0                 # src/netlist.cpp:149:0
# BB#0:                                 # %entry
	subq	$24, %rsp
.Ltmp125:
	.cfi_def_cfa_offset 32
	movq	%rdi, 16(%rsp)
	movq	%rsi, 8(%rsp)
	movq	16(%rsp), %rdi
	.loc	1 150 0 prologue_end    # src/netlist.cpp:150:0
.Ltmp126:
	addq	$64, %rdi
	callq	_ZNSt3mapISsP12netlist_elemSt4lessISsESaISt4pairIKSsS1_EEEixERS5_
	movq	(%rax), %rax
	addq	$24, %rsp
	ret
.Ltmp127:
.Ltmp128:
	.size	_ZN7netlist22netlist_elem_from_nameERSs, .Ltmp128-_ZN7netlist22netlist_elem_from_nameERSs
.Lfunc_end16:
	.cfi_endproc

	.section	.text._ZNSt3mapISsP12netlist_elemSt4lessISsESaISt4pairIKSsS1_EEEixERS5_,"axG",@progbits,_ZNSt3mapISsP12netlist_elemSt4lessISsESaISt4pairIKSsS1_EEEixERS5_,comdat
	.weak	_ZNSt3mapISsP12netlist_elemSt4lessISsESaISt4pairIKSsS1_EEEixERS5_
	.align	16, 0x90
	.type	_ZNSt3mapISsP12netlist_elemSt4lessISsESaISt4pairIKSsS1_EEEixERS5_,@function
_ZNSt3mapISsP12netlist_elemSt4lessISsESaISt4pairIKSsS1_EEEixERS5_: # @_ZNSt3mapISsP12netlist_elemSt4lessISsESaISt4pairIKSsS1_EEEixERS5_
	.cfi_startproc
	.cfi_personality 3, __gxx_personality_v0
.Leh_func_begin17:
	.cfi_lsda 3, .Lexception17
.Lfunc_begin17:
	.loc	28 457 0                # /usr/lib/gcc/x86_64-linux-gnu/4.8/../../../../include/c++/4.8/bits/stl_map.h:457:0
# BB#0:                                 # %entry
	pushq	%r15
.Ltmp139:
	.cfi_def_cfa_offset 16
	pushq	%r14
.Ltmp140:
	.cfi_def_cfa_offset 24
	pushq	%rbx
.Ltmp141:
	.cfi_def_cfa_offset 32
	subq	$96, %rsp
.Ltmp142:
	.cfi_def_cfa_offset 128
.Ltmp143:
	.cfi_offset %rbx, -32
.Ltmp144:
	.cfi_offset %r14, -24
.Ltmp145:
	.cfi_offset %r15, -16
	movq	%rdi, 88(%rsp)
	movq	%rsi, 80(%rsp)
	movq	88(%rsp), %r15
	.loc	28 461 0 prologue_end   # /usr/lib/gcc/x86_64-linux-gnu/4.8/../../../../include/c++/4.8/bits/stl_map.h:461:0
.Ltmp146:
	movq	%r15, %rdi
	callq	_ZNSt3mapISsP12netlist_elemSt4lessISsESaISt4pairIKSsS1_EEE11lower_boundERS5_
	movq	%rax, 72(%rsp)
	.loc	28 463 0                # /usr/lib/gcc/x86_64-linux-gnu/4.8/../../../../include/c++/4.8/bits/stl_map.h:463:0
	movq	%r15, %rdi
	callq	_ZNSt3mapISsP12netlist_elemSt4lessISsESaISt4pairIKSsS1_EEE3endEv
	leaq	72(%rsp), %rdi
	leaq	64(%rsp), %rsi
	movq	%rax, 64(%rsp)
	callq	_ZNKSt17_Rb_tree_iteratorISt4pairIKSsP12netlist_elemEEeqERKS5_
	testb	%al, %al
	jne	.LBB17_2
# BB#1:                                 # %lor.lhs.false
	movq	%r15, %rdi
	callq	_ZNKSt3mapISsP12netlist_elemSt4lessISsESaISt4pairIKSsS1_EEE8key_compEv
	movq	80(%rsp), %rbx
	leaq	72(%rsp), %rdi
	callq	_ZNKSt17_Rb_tree_iteratorISt4pairIKSsP12netlist_elemEEdeEv
	leaq	56(%rsp), %rdi
	movq	%rbx, %rsi
	movq	%rax, %rdx
	callq	_ZNKSt4lessISsEclERKSsS2_
	cmpb	$1, %al
	jne	.LBB17_4
.LBB17_2:                               # %if.then
	.loc	28 469 0                # /usr/lib/gcc/x86_64-linux-gnu/4.8/../../../../include/c++/4.8/bits/stl_map.h:469:0
	movq	72(%rsp), %rax
	movq	%rax, 40(%rsp)
	movq	80(%rsp), %rsi
	movq	$0, 16(%rsp)
	leaq	24(%rsp), %r14
	leaq	16(%rsp), %rdx
	movq	%r14, %rdi
	callq	_ZNSt4pairIKSsP12netlist_elemEC1ERS0_RKS2_
	movq	40(%rsp), %rsi
.Ltmp129:
	movq	%r15, %rdi
	movq	%r14, %rdx
	callq	_ZNSt3mapISsP12netlist_elemSt4lessISsESaISt4pairIKSsS1_EEE6insertESt17_Rb_tree_iteratorIS6_ERKS6_
.Ltmp130:
# BB#3:                                 # %invoke.cont
	movq	%rax, 48(%rsp)
	movq	%rax, 72(%rsp)
	leaq	24(%rsp), %rdi
	callq	_ZNSt4pairIKSsP12netlist_elemED1Ev
.LBB17_4:                               # %if.end
	leaq	72(%rsp), %rdi
	.loc	28 471 0                # /usr/lib/gcc/x86_64-linux-gnu/4.8/../../../../include/c++/4.8/bits/stl_map.h:471:0
	callq	_ZNKSt17_Rb_tree_iteratorISt4pairIKSsP12netlist_elemEEdeEv
	addq	$8, %rax
	addq	$96, %rsp
	popq	%rbx
	popq	%r14
	popq	%r15
	ret
.LBB17_5:                               # %lpad
.Ltmp131:
	.loc	28 469 0                # /usr/lib/gcc/x86_64-linux-gnu/4.8/../../../../include/c++/4.8/bits/stl_map.h:469:0
	movq	%rax, 8(%rsp)
	movl	%edx, 4(%rsp)
.Ltmp132:
	leaq	24(%rsp), %rdi
	callq	_ZNSt4pairIKSsP12netlist_elemED1Ev
.Ltmp133:
# BB#6:                                 # %eh.resume
	movq	8(%rsp), %rdi
	callq	_Unwind_Resume
.LBB17_7:                               # %terminate.lpad
.Ltmp134:
	callq	_ZSt9terminatev
.Ltmp147:
.Ltmp148:
	.size	_ZNSt3mapISsP12netlist_elemSt4lessISsESaISt4pairIKSsS1_EEEixERS5_, .Ltmp148-_ZNSt3mapISsP12netlist_elemSt4lessISsESaISt4pairIKSsS1_EEEixERS5_
.Lfunc_end17:
	.cfi_endproc
.Leh_func_end17:
	.section	.gcc_except_table,"a",@progbits
	.align	4
GCC_except_table17:
.Lexception17:
	.byte	255                     # @LPStart Encoding = omit
	.byte	3                       # @TType Encoding = udata4
	.byte	73                      # @TType base offset
	.byte	3                       # Call site Encoding = udata4
	.byte	65                      # Call site table length
.Lset0 = .Leh_func_begin17-.Leh_func_begin17 # >> Call Site 1 <<
	.long	.Lset0
.Lset1 = .Ltmp129-.Leh_func_begin17     #   Call between .Leh_func_begin17 and .Ltmp129
	.long	.Lset1
	.long	0                       #     has no landing pad
	.byte	0                       #   On action: cleanup
.Lset2 = .Ltmp129-.Leh_func_begin17     # >> Call Site 2 <<
	.long	.Lset2
.Lset3 = .Ltmp130-.Ltmp129              #   Call between .Ltmp129 and .Ltmp130
	.long	.Lset3
.Lset4 = .Ltmp131-.Leh_func_begin17     #     jumps to .Ltmp131
	.long	.Lset4
	.byte	0                       #   On action: cleanup
.Lset5 = .Ltmp130-.Leh_func_begin17     # >> Call Site 3 <<
	.long	.Lset5
.Lset6 = .Ltmp132-.Ltmp130              #   Call between .Ltmp130 and .Ltmp132
	.long	.Lset6
	.long	0                       #     has no landing pad
	.byte	0                       #   On action: cleanup
.Lset7 = .Ltmp132-.Leh_func_begin17     # >> Call Site 4 <<
	.long	.Lset7
.Lset8 = .Ltmp133-.Ltmp132              #   Call between .Ltmp132 and .Ltmp133
	.long	.Lset8
.Lset9 = .Ltmp134-.Leh_func_begin17     #     jumps to .Ltmp134
	.long	.Lset9
	.byte	1                       #   On action: 1
.Lset10 = .Ltmp133-.Leh_func_begin17    # >> Call Site 5 <<
	.long	.Lset10
.Lset11 = .Leh_func_end17-.Ltmp133      #   Call between .Ltmp133 and .Leh_func_end17
	.long	.Lset11
	.long	0                       #     has no landing pad
	.byte	0                       #   On action: cleanup
	.byte	1                       # >> Action Record 1 <<
                                        #   Catch TypeInfo 1
	.byte	0                       #   No further actions
                                        # >> Catch TypeInfos <<
	.long	0                       # TypeInfo 1
	.align	4

	.text
	.globl	_ZN7netlistC2ERKSs
	.align	16, 0x90
	.type	_ZN7netlistC2ERKSs,@function
_ZN7netlistC2ERKSs:                     # @_ZN7netlistC2ERKSs
	.cfi_startproc
	.cfi_personality 3, __gxx_personality_v0
.Leh_func_begin18:
	.cfi_lsda 3, .Lexception18
.Lfunc_begin18:
	.loc	1 158 0                 # src/netlist.cpp:158:0
# BB#0:                                 # %entry
	pushq	%rbp
.Ltmp279:
	.cfi_def_cfa_offset 16
	pushq	%r15
.Ltmp280:
	.cfi_def_cfa_offset 24
	pushq	%r14
.Ltmp281:
	.cfi_def_cfa_offset 32
	pushq	%r13
.Ltmp282:
	.cfi_def_cfa_offset 40
	pushq	%r12
.Ltmp283:
	.cfi_def_cfa_offset 48
	pushq	%rbx
.Ltmp284:
	.cfi_def_cfa_offset 56
	subq	$776, %rsp              # imm = 0x308
.Ltmp285:
	.cfi_def_cfa_offset 832
.Ltmp286:
	.cfi_offset %rbx, -56
.Ltmp287:
	.cfi_offset %r12, -48
.Ltmp288:
	.cfi_offset %r13, -40
.Ltmp289:
	.cfi_offset %r14, -32
.Ltmp290:
	.cfi_offset %r15, -24
.Ltmp291:
	.cfi_offset %rbp, -16
	movq	%rdi, 768(%rsp)
	movq	%rsi, 760(%rsp)
	movq	768(%rsp), %rbx
	.loc	1 158 0 prologue_end    # src/netlist.cpp:158:0
.Ltmp292:
	leaq	16(%rbx), %rbp
	movq	%rbp, %rdi
	callq	_ZNSt6vectorI12netlist_elemSaIS0_EEC1Ev
	leaq	40(%rbx), %r12
.Ltmp149:
	movq	%r12, %rdi
	callq	_ZNSt6vectorIS_I10location_tSaIS0_EESaIS2_EEC1Ev
.Ltmp150:
# BB#1:                                 # %invoke.cont
	leaq	64(%rbx), %rdi
	movq	%rdi, 8(%rsp)           # 8-byte Spill
.Ltmp152:
	callq	_ZNSt3mapISsP12netlist_elemSt4lessISsESaISt4pairIKSsS1_EEEC1Ev
.Ltmp153:
# BB#2:                                 # %invoke.cont3
.Ltmp293:
	#DEBUG_VALUE: fin <- [%rsp+$224]+$0
	.loc	1 159 0                 # src/netlist.cpp:159:0
	movq	760(%rsp), %rdi
.Ltmp155:
	callq	_ZNKSs5c_strEv
.Ltmp156:
# BB#3:                                 # %invoke.cont5
.Ltmp157:
	leaq	224(%rsp), %rdi
	movq	%rax, %rsi
	movl	$8, %edx
	callq	_ZNSt14basic_ifstreamIcSt11char_traitsIcEEC1EPKcSt13_Ios_Openmode
.Ltmp158:
# BB#4:                                 # %invoke.cont6
	.loc	1 163 0                 # src/netlist.cpp:163:0
.Ltmp159:
	leaq	224(%rsp), %r13
	movq	%r13, %rdi
	movq	%rbx, %rsi
	callq	_ZNSirsERj
.Ltmp160:
# BB#5:                                 # %invoke.cont8
.Ltmp161:
	leaq	4(%rbx), %rsi
	movq	%rax, %rdi
	callq	_ZNSirsERj
.Ltmp162:
# BB#6:                                 # %invoke.cont10
.Ltmp163:
	leaq	8(%rbx), %rsi
	movq	%rax, %rdi
	callq	_ZNSirsERj
.Ltmp164:
# BB#7:                                 # %invoke.cont12
	.loc	1 164 0                 # src/netlist.cpp:164:0
	movl	4(%rbx), %eax
	imull	8(%rbx), %eax
	movl	%eax, 12(%rbx)
	.loc	1 168 0                 # src/netlist.cpp:168:0
	movl	12(%rbx), %r14d
.Ltmp165:
	leaq	160(%rsp), %rdi
	callq	_ZN12netlist_elemC1Ev
.Ltmp166:
# BB#8:                                 # %invoke.cont18
.Ltmp167:
	leaq	160(%rsp), %rdx
	movq	%rbp, %rdi
	movq	%r14, %rsi
	callq	_ZNSt6vectorI12netlist_elemSaIS0_EE6resizeEmS0_
.Ltmp168:
# BB#9:                                 # %invoke.cont20
.Ltmp172:
	leaq	160(%rsp), %rdi
	callq	_ZN12netlist_elemD1Ev
.Ltmp173:
# BB#10:                                # %invoke.cont21
	.loc	1 170 0                 # src/netlist.cpp:170:0
.Ltmp174:
	movl	$_ZSt4cout, %edi
	movl	$.L.str, %esi
	callq	_ZStlsISt11char_traitsIcEERSt13basic_ostreamIcT_ES5_PKc
.Ltmp175:
# BB#11:                                # %invoke.cont23
.Ltmp176:
	movq	%rax, %rdi
	movl	$_ZSt4endlIcSt11char_traitsIcEERSt13basic_ostreamIT_T0_ES6_, %esi
	callq	_ZNSolsEPFRSoS_E
.Ltmp177:
# BB#12:                                # %invoke.cont25
.Ltmp294:
	#DEBUG_VALUE: y_vec <- [%rsp+$136]+$0
	.loc	1 172 0                 # src/netlist.cpp:172:0
	movl	8(%rbx), %r15d
	movq	$0, 128(%rsp)
	leaq	120(%rsp), %r14
	movq	%r14, %rdi
	callq	_ZNSaI10location_tEC1Ev
.Ltmp178:
	leaq	136(%rsp), %rdi
	leaq	128(%rsp), %rdx
	movq	%r15, %rsi
	movq	%r14, %rcx
	callq	_ZNSt6vectorI10location_tSaIS0_EEC1EmRKS0_RKS1_
.Ltmp179:
# BB#13:                                # %invoke.cont31
	leaq	120(%rsp), %rdi
	callq	_ZNSaI10location_tED1Ev
	.loc	1 173 0                 # src/netlist.cpp:173:0
	movl	4(%rbx), %r14d
.Ltmp181:
	leaq	96(%rsp), %rdi
	leaq	136(%rsp), %rsi
	callq	_ZNSt6vectorI10location_tSaIS0_EEC1ERKS2_
.Ltmp182:
# BB#14:                                # %invoke.cont37
.Ltmp183:
	leaq	96(%rsp), %rdx
	movq	%r12, %rdi
	movq	%r14, %rsi
	callq	_ZNSt6vectorIS_I10location_tSaIS0_EESaIS2_EE6resizeEmS2_
.Ltmp184:
# BB#15:                                # %invoke.cont39
.Ltmp188:
	leaq	96(%rsp), %rdi
	callq	_ZNSt6vectorI10location_tSaIS0_EED1Ev
.Ltmp189:
# BB#16:                                # %invoke.cont40
.Ltmp295:
	#DEBUG_VALUE: i_elem <- [%rsp+$92]+$0
	.loc	1 176 0                 # src/netlist.cpp:176:0
	movl	$0, 92(%rsp)
	.loc	1 177 0                 # src/netlist.cpp:177:0
.Ltmp296:
	movl	$0, 88(%rsp)
.Ltmp297:
	#DEBUG_VALUE: x <- [%rsp+$88]+$0
	jmp	.LBB18_17
	.align	16, 0x90
.LBB18_35:                              # %for.inc63
                                        #   in Loop: Header=BB18_17 Depth=1
	incl	88(%rsp)
.LBB18_17:                              # %for.cond
                                        # =>This Loop Header: Depth=1
                                        #     Child Loop BB18_19 Depth 2
	movl	88(%rsp), %eax
	cmpl	4(%rbx), %eax
	jae	.LBB18_36
# BB#18:                                # %for.body
                                        #   in Loop: Header=BB18_17 Depth=1
.Ltmp298:
	#DEBUG_VALUE: y <- [%rsp+$84]+$0
	.loc	1 178 0                 # src/netlist.cpp:178:0
	movl	$0, 84(%rsp)
	jmp	.LBB18_19
	.align	16, 0x90
.LBB18_24:                              # %for.inc
                                        #   in Loop: Header=BB18_19 Depth=2
	.loc	1 183 0                 # src/netlist.cpp:183:0
.Ltmp299:
	incl	92(%rsp)
.Ltmp300:
	.loc	1 178 0                 # src/netlist.cpp:178:0
	incl	84(%rsp)
.LBB18_19:                              # %for.cond43
                                        #   Parent Loop BB18_17 Depth=1
                                        # =>  This Inner Loop Header: Depth=2
	movl	84(%rsp), %eax
	cmpl	8(%rbx), %eax
	jae	.LBB18_35
# BB#20:                                # %for.body46
                                        #   in Loop: Header=BB18_19 Depth=2
.Ltmp301:
	#DEBUG_VALUE: loc <- [%rsp+$72]+$0
	.loc	1 179 0                 # src/netlist.cpp:179:0
	movslq	88(%rsp), %rsi
.Ltmp252:
	movq	%r12, %rdi
	callq	_ZNSt6vectorIS_I10location_tSaIS0_EESaIS2_EE2atEm
.Ltmp253:
# BB#21:                                # %invoke.cont49
                                        #   in Loop: Header=BB18_19 Depth=2
	movslq	84(%rsp), %rsi
.Ltmp254:
	movq	%rax, %rdi
	callq	_ZNSt6vectorI10location_tSaIS0_EE2atEm
.Ltmp255:
# BB#22:                                # %invoke.cont52
                                        #   in Loop: Header=BB18_19 Depth=2
	movq	%rax, 72(%rsp)
	.loc	1 180 0                 # src/netlist.cpp:180:0
	movl	88(%rsp), %ecx
	movl	%ecx, (%rax)
	.loc	1 181 0                 # src/netlist.cpp:181:0
	movq	72(%rsp), %rax
	movl	84(%rsp), %ecx
	movl	%ecx, 4(%rax)
	.loc	1 182 0                 # src/netlist.cpp:182:0
	movl	92(%rsp), %esi
.Ltmp256:
	movq	%rbp, %rdi
	callq	_ZNSt6vectorI12netlist_elemSaIS0_EE2atEm
.Ltmp257:
# BB#23:                                # %invoke.cont58
                                        #   in Loop: Header=BB18_19 Depth=2
	movq	72(%rsp), %rsi
.Ltmp258:
	addq	$56, %rax
	movq	%rax, %rdi
	callq	_ZN7threads9AtomicPtrI10location_tE3SetEPS1_
.Ltmp259:
	jmp	.LBB18_24
.Ltmp302:
.LBB18_32:                              # %lpad36.nonloopexit.loopexit
.Ltmp260:
	jmp	.LBB18_34
.LBB18_36:                              # %for.end65
	.loc	1 186 0                 # src/netlist.cpp:186:0
.Ltmp190:
	movl	$_ZSt4cout, %edi
	movl	$.L.str1, %esi
	callq	_ZStlsISt11char_traitsIcEERSt13basic_ostreamIcT_ES5_PKc
.Ltmp191:
# BB#37:                                # %invoke.cont66
.Ltmp192:
	movq	%rax, %rdi
	movl	$_ZSt4endlIcSt11char_traitsIcEERSt13basic_ostreamIT_T0_ES6_, %esi
	callq	_ZNSolsEPFRSoS_E
.Ltmp193:
# BB#38:                                # %invoke.cont68
.Ltmp303:
	#DEBUG_VALUE: i <- [%rsp+$68]+$0
	movq	%rbp, 16(%rsp)          # 8-byte Spill
	.loc	1 188 0                 # src/netlist.cpp:188:0
	movl	$0, 68(%rsp)
	leaq	32(%rsp), %r15
	leaq	24(%rsp), %rbp
	leaq	48(%rsp), %r14
	.align	16, 0x90
.LBB18_39:                              # %while.cond
                                        # =>This Loop Header: Depth=1
                                        #     Child Loop BB18_51 Depth 2
	.loc	1 189 0                 # src/netlist.cpp:189:0
	movq	224(%rsp), %rax
	movq	-24(%rax), %rdi
	addq	%r13, %rdi
.Ltmp194:
	callq	_ZNKSt9basic_iosIcSt11char_traitsIcEE3eofEv
.Ltmp195:
# BB#40:                                # %invoke.cont70
                                        #   in Loop: Header=BB18_39 Depth=1
	cmpb	$1, %al
	je	.LBB18_63
# BB#41:                                # %while.body
                                        #   in Loop: Header=BB18_39 Depth=1
	.loc	1 190 0                 # src/netlist.cpp:190:0
.Ltmp304:
	movl	68(%rsp), %eax
	incl	%eax
	.loc	1 191 0                 # src/netlist.cpp:191:0
	movslq	%eax, %rax
	.loc	1 190 0                 # src/netlist.cpp:190:0
	movl	%eax, 68(%rsp)
	.loc	1 191 0                 # src/netlist.cpp:191:0
	imulq	$351843721, %rax, %rcx  # imm = 0x14F8B589
	sarq	$45, %rcx
	movl	%ecx, %edx
	shrl	$31, %edx
	addl	%ecx, %edx
	imull	$100000, %edx, %ecx     # imm = 0x186A0
	cmpl	%ecx, %eax
	jne	.LBB18_45
# BB#42:                                # %if.then
                                        #   in Loop: Header=BB18_39 Depth=1
	.loc	1 192 0                 # src/netlist.cpp:192:0
.Ltmp305:
.Ltmp211:
	movl	$_ZSt4cout, %edi
	movl	$.L.str2, %esi
	callq	_ZStlsISt11char_traitsIcEERSt13basic_ostreamIcT_ES5_PKc
.Ltmp212:
# BB#43:                                # %invoke.cont74
                                        #   in Loop: Header=BB18_39 Depth=1
	movl	68(%rsp), %esi
.Ltmp213:
	movq	%rax, %rdi
	callq	_ZNSolsEi
.Ltmp214:
# BB#44:                                # %invoke.cont76
                                        #   in Loop: Header=BB18_39 Depth=1
.Ltmp215:
	movq	%rax, %rdi
	movl	$_ZSt4endlIcSt11char_traitsIcEERSt13basic_ostreamIT_T0_ES6_, %esi
	callq	_ZNSolsEPFRSoS_E
.Ltmp216:
.Ltmp306:
.LBB18_45:                              # %if.end
                                        #   in Loop: Header=BB18_39 Depth=1
	#DEBUG_VALUE: name <- [%rsp+$56]+$0
	.loc	1 194 0                 # src/netlist.cpp:194:0
.Ltmp217:
	leaq	56(%rsp), %rdi
	callq	_ZNSsC1Ev
.Ltmp218:
# BB#46:                                # %invoke.cont80
                                        #   in Loop: Header=BB18_39 Depth=1
	.loc	1 195 0                 # src/netlist.cpp:195:0
.Ltmp219:
	movq	%r13, %rdi
	leaq	56(%rsp), %rsi
	callq	_ZStrsIcSt11char_traitsIcESaIcEERSt13basic_istreamIT_T0_ES7_RSbIS4_S5_T1_E
.Ltmp220:
# BB#47:                                # %invoke.cont82
                                        #   in Loop: Header=BB18_39 Depth=1
.Ltmp307:
	#DEBUG_VALUE: present_elem <- [%rsp+$48]+$0
	.loc	1 196 0                 # src/netlist.cpp:196:0
.Ltmp221:
	movq	%rbx, %rdi
	leaq	56(%rsp), %rsi
	callq	_ZN7netlist24create_elem_if_necessaryERSs
.Ltmp222:
# BB#48:                                # %invoke.cont84
                                        #   in Loop: Header=BB18_39 Depth=1
	movq	%rax, 48(%rsp)
	.loc	1 200 0                 # src/netlist.cpp:200:0
.Ltmp223:
	movq	%rax, %rdi
	leaq	56(%rsp), %rsi
	callq	_ZNSsaSERKSs
.Ltmp224:
# BB#49:                                # %invoke.cont86
                                        #   in Loop: Header=BB18_39 Depth=1
.Ltmp308:
	#DEBUG_VALUE: type <- [%rsp+$44]+$0
	.loc	1 203 0                 # src/netlist.cpp:203:0
.Ltmp225:
	movq	%r13, %rdi
	leaq	44(%rsp), %rsi
	callq	_ZNSirsERi
.Ltmp226:
# BB#50:                                # %invoke.cont88
                                        #   in Loop: Header=BB18_39 Depth=1
.Ltmp309:
	#DEBUG_VALUE: fanin_name <- [%rsp+$32]+$0
	.loc	1 205 0                 # src/netlist.cpp:205:0
.Ltmp227:
	movq	%r15, %rdi
	callq	_ZNSsC1Ev
.Ltmp228:
	.align	16, 0x90
.LBB18_51:                              # %while.cond91
                                        #   Parent Loop BB18_39 Depth=1
                                        # =>  This Inner Loop Header: Depth=2
	.loc	1 206 0                 # src/netlist.cpp:206:0
.Ltmp229:
	movq	%r13, %rdi
	movq	%r15, %rsi
	callq	_ZStrsIcSt11char_traitsIcESaIcEERSt13basic_istreamIT_T0_ES7_RSbIS4_S5_T1_E
.Ltmp230:
# BB#52:                                # %invoke.cont93
                                        #   in Loop: Header=BB18_51 Depth=2
	movq	(%rax), %rcx
	addq	-24(%rcx), %rax
.Ltmp231:
	movq	%rax, %rdi
	callq	_ZNKSt9basic_iosIcSt11char_traitsIcEEcvPvEv
.Ltmp232:
# BB#53:                                # %invoke.cont99
                                        #   in Loop: Header=BB18_51 Depth=2
	testq	%rax, %rax
	je	.LBB18_59
# BB#54:                                # %while.body101
                                        #   in Loop: Header=BB18_51 Depth=2
	.loc	1 207 0                 # src/netlist.cpp:207:0
.Ltmp310:
.Ltmp233:
	movq	%r15, %rdi
	movl	$.L.str3, %esi
	callq	_ZSteqIcSt11char_traitsIcESaIcEEbRKSbIT_T0_T1_EPKS3_
.Ltmp234:
# BB#55:                                # %invoke.cont102
                                        #   in Loop: Header=BB18_51 Depth=2
	testb	%al, %al
	jne	.LBB18_59
# BB#56:                                # %if.end105
                                        #   in Loop: Header=BB18_51 Depth=2
.Ltmp311:
	#DEBUG_VALUE: fanin_elem <- [%rsp+$24]+$0
	.loc	1 210 0                 # src/netlist.cpp:210:0
.Ltmp235:
	movq	%rbx, %rdi
	movq	%r15, %rsi
	callq	_ZN7netlist24create_elem_if_necessaryERSs
.Ltmp236:
# BB#57:                                # %invoke.cont106
                                        #   in Loop: Header=BB18_51 Depth=2
	movq	%rax, 24(%rsp)
	.loc	1 211 0                 # src/netlist.cpp:211:0
	movq	48(%rsp), %rdi
.Ltmp237:
	addq	$8, %rdi
	movq	%rbp, %rsi
	callq	_ZNSt6vectorIP12netlist_elemSaIS1_EE9push_backERKS1_
.Ltmp238:
# BB#58:                                # %invoke.cont108
                                        #   in Loop: Header=BB18_51 Depth=2
	.loc	1 212 0                 # src/netlist.cpp:212:0
	movq	24(%rsp), %rdi
.Ltmp239:
	addq	$32, %rdi
	movq	%r14, %rsi
	callq	_ZNSt6vectorIP12netlist_elemSaIS1_EE9push_backERKS1_
.Ltmp240:
	jmp	.LBB18_51
.Ltmp312:
	.align	16, 0x90
.LBB18_59:                              # %while.end
                                        #   in Loop: Header=BB18_39 Depth=1
	.loc	1 214 0                 # src/netlist.cpp:214:0
.Ltmp244:
	movq	%r15, %rdi
	callq	_ZNSsD1Ev
.Ltmp245:
# BB#60:                                # %invoke.cont110
                                        #   in Loop: Header=BB18_39 Depth=1
.Ltmp249:
	leaq	56(%rsp), %rdi
	callq	_ZNSsD1Ev
.Ltmp250:
	jmp	.LBB18_39
.Ltmp313:
.LBB18_31:                              # %lpad36.loopexit
.Ltmp251:
	movq	16(%rsp), %rbp          # 8-byte Reload
	jmp	.LBB18_34
.LBB18_63:                              # %while.end114
	.loc	1 215 0                 # src/netlist.cpp:215:0
.Ltmp196:
	movl	$_ZSt4cout, %edi
	movl	$.L.str4, %esi
	movq	16(%rsp), %rbp          # 8-byte Reload
	callq	_ZStlsISt11char_traitsIcEERSt13basic_ostreamIcT_ES5_PKc
.Ltmp197:
# BB#64:                                # %invoke.cont115
	movl	68(%rsp), %esi
.Ltmp198:
	decl	%esi
	movq	%rax, %rdi
	callq	_ZNSolsEi
.Ltmp199:
# BB#65:                                # %invoke.cont117
.Ltmp200:
	movq	%rax, %rdi
	movl	$.L.str5, %esi
	callq	_ZStlsISt11char_traitsIcEERSt13basic_ostreamIcT_ES5_PKc
.Ltmp201:
# BB#66:                                # %invoke.cont119
.Ltmp202:
	movq	%rax, %rdi
	movl	$_ZSt4endlIcSt11char_traitsIcEERSt13basic_ostreamIT_T0_ES6_, %esi
	callq	_ZNSolsEPFRSoS_E
.Ltmp203:
# BB#67:                                # %invoke.cont121
	.loc	1 216 0                 # src/netlist.cpp:216:0
.Ltmp205:
	leaq	136(%rsp), %rdi
	callq	_ZNSt6vectorI10location_tSaIS0_EED1Ev
.Ltmp206:
# BB#68:                                # %invoke.cont123
.Ltmp208:
	leaq	224(%rsp), %rdi
	callq	_ZNSt14basic_ifstreamIcSt11char_traitsIcEED1Ev
.Ltmp209:
# BB#69:                                # %invoke.cont126
	addq	$776, %rsp              # imm = 0x308
	popq	%rbx
	popq	%r12
	popq	%r13
	popq	%r14
	popq	%r15
	popq	%rbp
	ret
.Ltmp314:
.LBB18_25:                              # %lpad
.Ltmp151:
	.loc	1 158 0                 # src/netlist.cpp:158:0
	movq	%rax, 752(%rsp)
	movl	%edx, 748(%rsp)
	jmp	.LBB18_75
.LBB18_26:                              # %lpad2
.Ltmp154:
	movq	%rax, 752(%rsp)
	movl	%edx, 748(%rsp)
	jmp	.LBB18_74
.LBB18_29:                              # %lpad19
.Ltmp169:
	.loc	1 168 0                 # src/netlist.cpp:168:0
.Ltmp315:
	movq	%rax, 752(%rsp)
	movl	%edx, 748(%rsp)
.Ltmp170:
	leaq	160(%rsp), %rdi
	callq	_ZN12netlist_elemD1Ev
.Ltmp171:
	jmp	.LBB18_72
.LBB18_30:                              # %lpad30
.Ltmp180:
	.loc	1 172 0                 # src/netlist.cpp:172:0
	movq	%rax, 752(%rsp)
	movl	%edx, 748(%rsp)
	leaq	120(%rsp), %rdi
	callq	_ZNSaI10location_tED1Ev
	jmp	.LBB18_72
.LBB18_70:                              # %lpad38
.Ltmp185:
	.loc	1 173 0                 # src/netlist.cpp:173:0
	movq	%rax, 752(%rsp)
	movl	%edx, 748(%rsp)
.Ltmp186:
	leaq	96(%rsp), %rdi
	callq	_ZNSt6vectorI10location_tSaIS0_EED1Ev
.Ltmp187:
	jmp	.LBB18_71
.LBB18_78:                              # %lpad92
.Ltmp241:
	.loc	1 206 0                 # src/netlist.cpp:206:0
.Ltmp316:
	movq	%rax, 752(%rsp)
	movl	%edx, 748(%rsp)
	.loc	1 214 0                 # src/netlist.cpp:214:0
.Ltmp242:
	leaq	32(%rsp), %rdi
	callq	_ZNSsD1Ev
.Ltmp243:
	movq	16(%rsp), %rbp          # 8-byte Reload
	jmp	.LBB18_62
.LBB18_61:                              # %lpad81
.Ltmp246:
	.loc	1 195 0                 # src/netlist.cpp:195:0
	movq	%rax, 752(%rsp)
	movl	%edx, 748(%rsp)
	movq	16(%rsp), %rbp          # 8-byte Reload
.LBB18_62:                              # %ehcleanup
	.loc	1 214 0                 # src/netlist.cpp:214:0
.Ltmp247:
	leaq	56(%rsp), %rdi
	callq	_ZNSsD1Ev
.Ltmp248:
	jmp	.LBB18_71
.Ltmp317:
.LBB18_33:                              # %lpad36.nonloopexit.nonloopexit
.Ltmp204:
.LBB18_34:                              # %lpad36
	.loc	1 173 0                 # src/netlist.cpp:173:0
	movq	%rax, 752(%rsp)
	movl	%edx, 748(%rsp)
.LBB18_71:                              # %ehcleanup124
	.loc	1 216 0                 # src/netlist.cpp:216:0
.Ltmp261:
	leaq	136(%rsp), %rdi
	callq	_ZNSt6vectorI10location_tSaIS0_EED1Ev
.Ltmp262:
	jmp	.LBB18_72
.LBB18_28:                              # %lpad7
.Ltmp207:
	.loc	1 163 0                 # src/netlist.cpp:163:0
	movq	%rax, 752(%rsp)
	movl	%edx, 748(%rsp)
.LBB18_72:                              # %ehcleanup127
	.loc	1 216 0                 # src/netlist.cpp:216:0
.Ltmp263:
	leaq	224(%rsp), %rdi
	callq	_ZNSt14basic_ifstreamIcSt11char_traitsIcEED1Ev
.Ltmp264:
	jmp	.LBB18_73
.LBB18_27:                              # %lpad4
.Ltmp210:
	.loc	1 159 0                 # src/netlist.cpp:159:0
	movq	%rax, 752(%rsp)
	movl	%edx, 748(%rsp)
.LBB18_73:                              # %ehcleanup129
	.loc	1 216 0                 # src/netlist.cpp:216:0
.Ltmp265:
	movq	8(%rsp), %rdi           # 8-byte Reload
	callq	_ZNSt3mapISsP12netlist_elemSt4lessISsESaISt4pairIKSsS1_EEED1Ev
.Ltmp266:
.LBB18_74:                              # %ehcleanup131
.Ltmp267:
	movq	%r12, %rdi
	callq	_ZNSt6vectorIS_I10location_tSaIS0_EESaIS2_EED1Ev
.Ltmp268:
.LBB18_75:                              # %ehcleanup133
.Ltmp269:
	movq	%rbp, %rdi
	callq	_ZNSt6vectorI12netlist_elemSaIS0_EED1Ev
.Ltmp270:
# BB#76:                                # %eh.resume
	movq	752(%rsp), %rdi
	callq	_Unwind_Resume
.LBB18_77:                              # %terminate.lpad
.Ltmp271:
	.loc	1 168 0                 # src/netlist.cpp:168:0
	callq	_ZSt9terminatev
.Ltmp318:
.Ltmp319:
	.size	_ZN7netlistC2ERKSs, .Ltmp319-_ZN7netlistC2ERKSs
.Lfunc_end18:
	.file	38 "/usr/lib/gcc/x86_64-linux-gnu/4.8/../../../../include/c++/4.8/ostream"
	.file	39 "/usr/lib/gcc/x86_64-linux-gnu/4.8/../../../../include/c++/4.8/bits/streambuf.tcc"
	.file	40 "/usr/lib/gcc/x86_64-linux-gnu/4.8/../../../../include/c++/4.8/streambuf"
	.file	41 "/usr/lib/gcc/x86_64-linux-gnu/4.8/../../../../include/c++/4.8/iosfwd"
	.file	42 "/usr/lib/gcc/x86_64-linux-gnu/4.8/../../../../include/c++/4.8/bits/ostream.tcc"
	.file	43 "/usr/lib/gcc/x86_64-linux-gnu/4.8/../../../../include/c++/4.8/bits/basic_ios.h"
	.file	44 "/usr/lib/gcc/x86_64-linux-gnu/4.8/../../../../include/c++/4.8/bits/basic_ios.tcc"
	.file	45 "/usr/lib/gcc/x86_64-linux-gnu/4.8/../../../../include/c++/4.8/bits/locale_facets.tcc"
	.file	46 "/usr/lib/gcc/x86_64-linux-gnu/4.8/../../../../include/c++/4.8/istream"
	.file	47 "/usr/lib/gcc/x86_64-linux-gnu/4.8/../../../../include/c++/4.8/bits/istream.tcc"
	.file	48 "/usr/include/x86_64-linux-gnu/bits/pthreadtypes.h"
	.file	49 "/usr/lib/gcc/x86_64-linux-gnu/4.8/../../../../include/c++/4.8/bits/fstream.tcc"
	.file	50 "/usr/lib/gcc/x86_64-linux-gnu/4.8/../../../../include/c++/4.8/bits/c++io.h"
	.file	51 "/usr/lib/gcc/x86_64-linux-gnu/4.8/../../../../include/c++/4.8/fstream"
	.file	52 "/usr/include/libio.h"
	.file	53 "/usr/lib/gcc/x86_64-linux-gnu/4.8/../../../../include/c++/4.8/bits/basic_file.h"
	.file	54 "/usr/include/wchar.h"
	.cfi_endproc
.Leh_func_end18:
	.section	.gcc_except_table,"a",@progbits
	.align	4
GCC_except_table18:
.Lexception18:
	.byte	255                     # @LPStart Encoding = omit
	.byte	3                       # @TType Encoding = udata4
	.ascii	 "\264\002"             # @TType base offset
	.byte	3                       # Call site Encoding = udata4
	.ascii	 "\253\002"             # Call site table length
.Lset12 = .Leh_func_begin18-.Leh_func_begin18 # >> Call Site 1 <<
	.long	.Lset12
.Lset13 = .Ltmp149-.Leh_func_begin18    #   Call between .Leh_func_begin18 and .Ltmp149
	.long	.Lset13
	.long	0                       #     has no landing pad
	.byte	0                       #   On action: cleanup
.Lset14 = .Ltmp149-.Leh_func_begin18    # >> Call Site 2 <<
	.long	.Lset14
.Lset15 = .Ltmp150-.Ltmp149             #   Call between .Ltmp149 and .Ltmp150
	.long	.Lset15
.Lset16 = .Ltmp151-.Leh_func_begin18    #     jumps to .Ltmp151
	.long	.Lset16
	.byte	0                       #   On action: cleanup
.Lset17 = .Ltmp152-.Leh_func_begin18    # >> Call Site 3 <<
	.long	.Lset17
.Lset18 = .Ltmp153-.Ltmp152             #   Call between .Ltmp152 and .Ltmp153
	.long	.Lset18
.Lset19 = .Ltmp154-.Leh_func_begin18    #     jumps to .Ltmp154
	.long	.Lset19
	.byte	0                       #   On action: cleanup
.Lset20 = .Ltmp155-.Leh_func_begin18    # >> Call Site 4 <<
	.long	.Lset20
.Lset21 = .Ltmp158-.Ltmp155             #   Call between .Ltmp155 and .Ltmp158
	.long	.Lset21
.Lset22 = .Ltmp210-.Leh_func_begin18    #     jumps to .Ltmp210
	.long	.Lset22
	.byte	0                       #   On action: cleanup
.Lset23 = .Ltmp159-.Leh_func_begin18    # >> Call Site 5 <<
	.long	.Lset23
.Lset24 = .Ltmp166-.Ltmp159             #   Call between .Ltmp159 and .Ltmp166
	.long	.Lset24
.Lset25 = .Ltmp207-.Leh_func_begin18    #     jumps to .Ltmp207
	.long	.Lset25
	.byte	0                       #   On action: cleanup
.Lset26 = .Ltmp167-.Leh_func_begin18    # >> Call Site 6 <<
	.long	.Lset26
.Lset27 = .Ltmp168-.Ltmp167             #   Call between .Ltmp167 and .Ltmp168
	.long	.Lset27
.Lset28 = .Ltmp169-.Leh_func_begin18    #     jumps to .Ltmp169
	.long	.Lset28
	.byte	0                       #   On action: cleanup
.Lset29 = .Ltmp172-.Leh_func_begin18    # >> Call Site 7 <<
	.long	.Lset29
.Lset30 = .Ltmp177-.Ltmp172             #   Call between .Ltmp172 and .Ltmp177
	.long	.Lset30
.Lset31 = .Ltmp207-.Leh_func_begin18    #     jumps to .Ltmp207
	.long	.Lset31
	.byte	0                       #   On action: cleanup
.Lset32 = .Ltmp178-.Leh_func_begin18    # >> Call Site 8 <<
	.long	.Lset32
.Lset33 = .Ltmp179-.Ltmp178             #   Call between .Ltmp178 and .Ltmp179
	.long	.Lset33
.Lset34 = .Ltmp180-.Leh_func_begin18    #     jumps to .Ltmp180
	.long	.Lset34
	.byte	0                       #   On action: cleanup
.Lset35 = .Ltmp181-.Leh_func_begin18    # >> Call Site 9 <<
	.long	.Lset35
.Lset36 = .Ltmp182-.Ltmp181             #   Call between .Ltmp181 and .Ltmp182
	.long	.Lset36
.Lset37 = .Ltmp204-.Leh_func_begin18    #     jumps to .Ltmp204
	.long	.Lset37
	.byte	0                       #   On action: cleanup
.Lset38 = .Ltmp183-.Leh_func_begin18    # >> Call Site 10 <<
	.long	.Lset38
.Lset39 = .Ltmp184-.Ltmp183             #   Call between .Ltmp183 and .Ltmp184
	.long	.Lset39
.Lset40 = .Ltmp185-.Leh_func_begin18    #     jumps to .Ltmp185
	.long	.Lset40
	.byte	0                       #   On action: cleanup
.Lset41 = .Ltmp188-.Leh_func_begin18    # >> Call Site 11 <<
	.long	.Lset41
.Lset42 = .Ltmp189-.Ltmp188             #   Call between .Ltmp188 and .Ltmp189
	.long	.Lset42
.Lset43 = .Ltmp204-.Leh_func_begin18    #     jumps to .Ltmp204
	.long	.Lset43
	.byte	0                       #   On action: cleanup
.Lset44 = .Ltmp252-.Leh_func_begin18    # >> Call Site 12 <<
	.long	.Lset44
.Lset45 = .Ltmp259-.Ltmp252             #   Call between .Ltmp252 and .Ltmp259
	.long	.Lset45
.Lset46 = .Ltmp260-.Leh_func_begin18    #     jumps to .Ltmp260
	.long	.Lset46
	.byte	0                       #   On action: cleanup
.Lset47 = .Ltmp190-.Leh_func_begin18    # >> Call Site 13 <<
	.long	.Lset47
.Lset48 = .Ltmp193-.Ltmp190             #   Call between .Ltmp190 and .Ltmp193
	.long	.Lset48
.Lset49 = .Ltmp204-.Leh_func_begin18    #     jumps to .Ltmp204
	.long	.Lset49
	.byte	0                       #   On action: cleanup
.Lset50 = .Ltmp194-.Leh_func_begin18    # >> Call Site 14 <<
	.long	.Lset50
.Lset51 = .Ltmp218-.Ltmp194             #   Call between .Ltmp194 and .Ltmp218
	.long	.Lset51
.Lset52 = .Ltmp251-.Leh_func_begin18    #     jumps to .Ltmp251
	.long	.Lset52
	.byte	0                       #   On action: cleanup
.Lset53 = .Ltmp219-.Leh_func_begin18    # >> Call Site 15 <<
	.long	.Lset53
.Lset54 = .Ltmp228-.Ltmp219             #   Call between .Ltmp219 and .Ltmp228
	.long	.Lset54
.Lset55 = .Ltmp246-.Leh_func_begin18    #     jumps to .Ltmp246
	.long	.Lset55
	.byte	0                       #   On action: cleanup
.Lset56 = .Ltmp229-.Leh_func_begin18    # >> Call Site 16 <<
	.long	.Lset56
.Lset57 = .Ltmp240-.Ltmp229             #   Call between .Ltmp229 and .Ltmp240
	.long	.Lset57
.Lset58 = .Ltmp241-.Leh_func_begin18    #     jumps to .Ltmp241
	.long	.Lset58
	.byte	0                       #   On action: cleanup
.Lset59 = .Ltmp244-.Leh_func_begin18    # >> Call Site 17 <<
	.long	.Lset59
.Lset60 = .Ltmp245-.Ltmp244             #   Call between .Ltmp244 and .Ltmp245
	.long	.Lset60
.Lset61 = .Ltmp246-.Leh_func_begin18    #     jumps to .Ltmp246
	.long	.Lset61
	.byte	0                       #   On action: cleanup
.Lset62 = .Ltmp249-.Leh_func_begin18    # >> Call Site 18 <<
	.long	.Lset62
.Lset63 = .Ltmp250-.Ltmp249             #   Call between .Ltmp249 and .Ltmp250
	.long	.Lset63
.Lset64 = .Ltmp251-.Leh_func_begin18    #     jumps to .Ltmp251
	.long	.Lset64
	.byte	0                       #   On action: cleanup
.Lset65 = .Ltmp196-.Leh_func_begin18    # >> Call Site 19 <<
	.long	.Lset65
.Lset66 = .Ltmp203-.Ltmp196             #   Call between .Ltmp196 and .Ltmp203
	.long	.Lset66
.Lset67 = .Ltmp204-.Leh_func_begin18    #     jumps to .Ltmp204
	.long	.Lset67
	.byte	0                       #   On action: cleanup
.Lset68 = .Ltmp205-.Leh_func_begin18    # >> Call Site 20 <<
	.long	.Lset68
.Lset69 = .Ltmp206-.Ltmp205             #   Call between .Ltmp205 and .Ltmp206
	.long	.Lset69
.Lset70 = .Ltmp207-.Leh_func_begin18    #     jumps to .Ltmp207
	.long	.Lset70
	.byte	0                       #   On action: cleanup
.Lset71 = .Ltmp208-.Leh_func_begin18    # >> Call Site 21 <<
	.long	.Lset71
.Lset72 = .Ltmp209-.Ltmp208             #   Call between .Ltmp208 and .Ltmp209
	.long	.Lset72
.Lset73 = .Ltmp210-.Leh_func_begin18    #     jumps to .Ltmp210
	.long	.Lset73
	.byte	0                       #   On action: cleanup
.Lset74 = .Ltmp170-.Leh_func_begin18    # >> Call Site 22 <<
	.long	.Lset74
.Lset75 = .Ltmp270-.Ltmp170             #   Call between .Ltmp170 and .Ltmp270
	.long	.Lset75
.Lset76 = .Ltmp271-.Leh_func_begin18    #     jumps to .Ltmp271
	.long	.Lset76
	.byte	1                       #   On action: 1
.Lset77 = .Ltmp270-.Leh_func_begin18    # >> Call Site 23 <<
	.long	.Lset77
.Lset78 = .Leh_func_end18-.Ltmp270      #   Call between .Ltmp270 and .Leh_func_end18
	.long	.Lset78
	.long	0                       #     has no landing pad
	.byte	0                       #   On action: cleanup
	.byte	1                       # >> Action Record 1 <<
                                        #   Catch TypeInfo 1
	.byte	0                       #   No further actions
                                        # >> Catch TypeInfos <<
	.long	0                       # TypeInfo 1
	.align	4

	.section	.text._ZNSt6vectorI12netlist_elemSaIS0_EEC1Ev,"axG",@progbits,_ZNSt6vectorI12netlist_elemSaIS0_EEC1Ev,comdat
	.weak	_ZNSt6vectorI12netlist_elemSaIS0_EEC1Ev
	.align	16, 0x90
	.type	_ZNSt6vectorI12netlist_elemSaIS0_EEC1Ev,@function
_ZNSt6vectorI12netlist_elemSaIS0_EEC1Ev: # @_ZNSt6vectorI12netlist_elemSaIS0_EEC1Ev
	.cfi_startproc
.Lfunc_begin19:
	.loc	20 249 0                # /usr/lib/gcc/x86_64-linux-gnu/4.8/../../../../include/c++/4.8/bits/stl_vector.h:249:0
# BB#0:                                 # %entry
	pushq	%rax
.Ltmp321:
	.cfi_def_cfa_offset 16
	movq	%rdi, (%rsp)
	.loc	20 249 0 prologue_end   # /usr/lib/gcc/x86_64-linux-gnu/4.8/../../../../include/c++/4.8/bits/stl_vector.h:249:0
.Ltmp322:
	callq	_ZNSt6vectorI12netlist_elemSaIS0_EEC2Ev
	popq	%rax
	ret
.Ltmp323:
.Ltmp324:
	.size	_ZNSt6vectorI12netlist_elemSaIS0_EEC1Ev, .Ltmp324-_ZNSt6vectorI12netlist_elemSaIS0_EEC1Ev
.Lfunc_end19:
	.cfi_endproc

	.section	.text._ZNSt6vectorIS_I10location_tSaIS0_EESaIS2_EEC1Ev,"axG",@progbits,_ZNSt6vectorIS_I10location_tSaIS0_EESaIS2_EEC1Ev,comdat
	.weak	_ZNSt6vectorIS_I10location_tSaIS0_EESaIS2_EEC1Ev
	.align	16, 0x90
	.type	_ZNSt6vectorIS_I10location_tSaIS0_EESaIS2_EEC1Ev,@function
_ZNSt6vectorIS_I10location_tSaIS0_EESaIS2_EEC1Ev: # @_ZNSt6vectorIS_I10location_tSaIS0_EESaIS2_EEC1Ev
	.cfi_startproc
.Lfunc_begin20:
	.loc	20 249 0                # /usr/lib/gcc/x86_64-linux-gnu/4.8/../../../../include/c++/4.8/bits/stl_vector.h:249:0
# BB#0:                                 # %entry
	pushq	%rax
.Ltmp326:
	.cfi_def_cfa_offset 16
	movq	%rdi, (%rsp)
	.loc	20 249 0 prologue_end   # /usr/lib/gcc/x86_64-linux-gnu/4.8/../../../../include/c++/4.8/bits/stl_vector.h:249:0
.Ltmp327:
	callq	_ZNSt6vectorIS_I10location_tSaIS0_EESaIS2_EEC2Ev
	popq	%rax
	ret
.Ltmp328:
.Ltmp329:
	.size	_ZNSt6vectorIS_I10location_tSaIS0_EESaIS2_EEC1Ev, .Ltmp329-_ZNSt6vectorIS_I10location_tSaIS0_EESaIS2_EEC1Ev
.Lfunc_end20:
	.cfi_endproc

	.section	.text._ZNSt3mapISsP12netlist_elemSt4lessISsESaISt4pairIKSsS1_EEEC1Ev,"axG",@progbits,_ZNSt3mapISsP12netlist_elemSt4lessISsESaISt4pairIKSsS1_EEEC1Ev,comdat
	.weak	_ZNSt3mapISsP12netlist_elemSt4lessISsESaISt4pairIKSsS1_EEEC1Ev
	.align	16, 0x90
	.type	_ZNSt3mapISsP12netlist_elemSt4lessISsESaISt4pairIKSsS1_EEEC1Ev,@function
_ZNSt3mapISsP12netlist_elemSt4lessISsESaISt4pairIKSsS1_EEEC1Ev: # @_ZNSt3mapISsP12netlist_elemSt4lessISsESaISt4pairIKSsS1_EEEC1Ev
	.cfi_startproc
.Lfunc_begin21:
	.loc	28 161 0                # /usr/lib/gcc/x86_64-linux-gnu/4.8/../../../../include/c++/4.8/bits/stl_map.h:161:0
# BB#0:                                 # %entry
	pushq	%rax
.Ltmp331:
	.cfi_def_cfa_offset 16
	movq	%rdi, (%rsp)
	.loc	28 161 0 prologue_end   # /usr/lib/gcc/x86_64-linux-gnu/4.8/../../../../include/c++/4.8/bits/stl_map.h:161:0
.Ltmp332:
	callq	_ZNSt3mapISsP12netlist_elemSt4lessISsESaISt4pairIKSsS1_EEEC2Ev
	popq	%rax
	ret
.Ltmp333:
.Ltmp334:
	.size	_ZNSt3mapISsP12netlist_elemSt4lessISsESaISt4pairIKSsS1_EEEC1Ev, .Ltmp334-_ZNSt3mapISsP12netlist_elemSt4lessISsESaISt4pairIKSsS1_EEEC1Ev
.Lfunc_end21:
	.cfi_endproc

	.section	.text._ZNSt6vectorI12netlist_elemSaIS0_EE6resizeEmS0_,"axG",@progbits,_ZNSt6vectorI12netlist_elemSaIS0_EE6resizeEmS0_,comdat
	.weak	_ZNSt6vectorI12netlist_elemSaIS0_EE6resizeEmS0_
	.align	16, 0x90
	.type	_ZNSt6vectorI12netlist_elemSaIS0_EE6resizeEmS0_,@function
_ZNSt6vectorI12netlist_elemSaIS0_EE6resizeEmS0_: # @_ZNSt6vectorI12netlist_elemSaIS0_EE6resizeEmS0_
	.cfi_startproc
.Lfunc_begin22:
	.loc	20 705 0                # /usr/lib/gcc/x86_64-linux-gnu/4.8/../../../../include/c++/4.8/bits/stl_vector.h:705:0
# BB#0:                                 # %entry
	pushq	%r15
.Ltmp339:
	.cfi_def_cfa_offset 16
	pushq	%r14
.Ltmp340:
	.cfi_def_cfa_offset 24
	pushq	%rbx
.Ltmp341:
	.cfi_def_cfa_offset 32
	subq	$32, %rsp
.Ltmp342:
	.cfi_def_cfa_offset 64
.Ltmp343:
	.cfi_offset %rbx, -32
.Ltmp344:
	.cfi_offset %r14, -24
.Ltmp345:
	.cfi_offset %r15, -16
	#DEBUG_VALUE: resize:__x <- RDX+0
	movq	%rdx, %r14
.Ltmp346:
	#DEBUG_VALUE: resize:__x <- R14+0
	movq	%rsi, %r15
	movq	%rdi, 24(%rsp)
	movq	%r15, 16(%rsp)
	movq	24(%rsp), %rbx
	.loc	20 706 0 prologue_end   # /usr/lib/gcc/x86_64-linux-gnu/4.8/../../../../include/c++/4.8/bits/stl_vector.h:706:0
.Ltmp347:
	movq	%rbx, %rdi
	callq	_ZNKSt6vectorI12netlist_elemSaIS0_EE4sizeEv
	cmpq	%rax, %r15
	jbe	.LBB22_2
# BB#1:                                 # %if.then
.Ltmp348:
	#DEBUG_VALUE: resize:__x <- R14+0
	.loc	20 707 0                # /usr/lib/gcc/x86_64-linux-gnu/4.8/../../../../include/c++/4.8/bits/stl_vector.h:707:0
	movq	%rbx, %rdi
	callq	_ZNSt6vectorI12netlist_elemSaIS0_EE3endEv
	movq	%rax, 8(%rsp)
	movq	16(%rsp), %r15
	movq	%rbx, %rdi
	callq	_ZNKSt6vectorI12netlist_elemSaIS0_EE4sizeEv
	subq	%rax, %r15
	movq	8(%rsp), %rsi
	movq	%rbx, %rdi
	movq	%r15, %rdx
	movq	%r14, %rcx
	callq	_ZNSt6vectorI12netlist_elemSaIS0_EE6insertEN9__gnu_cxx17__normal_iteratorIPS0_S2_EEmRKS0_
	jmp	.LBB22_4
.Ltmp349:
.LBB22_2:                               # %if.else
	.loc	20 708 0                # /usr/lib/gcc/x86_64-linux-gnu/4.8/../../../../include/c++/4.8/bits/stl_vector.h:708:0
	movq	16(%rsp), %r14
	movq	%rbx, %rdi
	callq	_ZNKSt6vectorI12netlist_elemSaIS0_EE4sizeEv
	cmpq	%rax, %r14
	jae	.LBB22_4
# BB#3:                                 # %if.then7
	.loc	20 709 0                # /usr/lib/gcc/x86_64-linux-gnu/4.8/../../../../include/c++/4.8/bits/stl_vector.h:709:0
	movq	16(%rsp), %rsi
	shlq	$6, %rsi
	addq	(%rbx), %rsi
	movq	%rbx, %rdi
	callq	_ZNSt6vectorI12netlist_elemSaIS0_EE15_M_erase_at_endEPS0_
.LBB22_4:                               # %if.end8
	.loc	20 710 0                # /usr/lib/gcc/x86_64-linux-gnu/4.8/../../../../include/c++/4.8/bits/stl_vector.h:710:0
	addq	$32, %rsp
	popq	%rbx
	popq	%r14
	popq	%r15
	ret
.Ltmp350:
.Ltmp351:
	.size	_ZNSt6vectorI12netlist_elemSaIS0_EE6resizeEmS0_, .Ltmp351-_ZNSt6vectorI12netlist_elemSaIS0_EE6resizeEmS0_
.Lfunc_end22:
	.cfi_endproc

	.section	.text._ZN12netlist_elemD1Ev,"axG",@progbits,_ZN12netlist_elemD1Ev,comdat
	.weak	_ZN12netlist_elemD1Ev
	.align	16, 0x90
	.type	_ZN12netlist_elemD1Ev,@function
_ZN12netlist_elemD1Ev:                  # @_ZN12netlist_elemD1Ev
	.cfi_startproc
.Lfunc_begin23:
	.loc	19 42 0                 # src/netlist_elem.h:42:0
# BB#0:                                 # %entry
	pushq	%rax
.Ltmp353:
	.cfi_def_cfa_offset 16
	movq	%rdi, (%rsp)
	.loc	19 42 0 prologue_end    # src/netlist_elem.h:42:0
.Ltmp354:
	callq	_ZN12netlist_elemD2Ev
	popq	%rax
	ret
.Ltmp355:
.Ltmp356:
	.size	_ZN12netlist_elemD1Ev, .Ltmp356-_ZN12netlist_elemD1Ev
.Lfunc_end23:
	.cfi_endproc

	.section	.text._ZNSt6vectorI10location_tSaIS0_EEC1EmRKS0_RKS1_,"axG",@progbits,_ZNSt6vectorI10location_tSaIS0_EEC1EmRKS0_RKS1_,comdat
	.weak	_ZNSt6vectorI10location_tSaIS0_EEC1EmRKS0_RKS1_
	.align	16, 0x90
	.type	_ZNSt6vectorI10location_tSaIS0_EEC1EmRKS0_RKS1_,@function
_ZNSt6vectorI10location_tSaIS0_EEC1EmRKS0_RKS1_: # @_ZNSt6vectorI10location_tSaIS0_EEC1EmRKS0_RKS1_
	.cfi_startproc
.Lfunc_begin24:
	.loc	20 298 0                # /usr/lib/gcc/x86_64-linux-gnu/4.8/../../../../include/c++/4.8/bits/stl_vector.h:298:0
# BB#0:                                 # %entry
	subq	$40, %rsp
.Ltmp358:
	.cfi_def_cfa_offset 48
	movq	%rdi, 32(%rsp)
	movq	%rsi, 24(%rsp)
	movq	%rdx, 16(%rsp)
	movq	%rcx, 8(%rsp)
	.loc	20 298 0 prologue_end   # /usr/lib/gcc/x86_64-linux-gnu/4.8/../../../../include/c++/4.8/bits/stl_vector.h:298:0
.Ltmp359:
	movq	16(%rsp), %rdx
	movq	24(%rsp), %rsi
	movq	32(%rsp), %rdi
	callq	_ZNSt6vectorI10location_tSaIS0_EEC2EmRKS0_RKS1_
	addq	$40, %rsp
	ret
.Ltmp360:
.Ltmp361:
	.size	_ZNSt6vectorI10location_tSaIS0_EEC1EmRKS0_RKS1_, .Ltmp361-_ZNSt6vectorI10location_tSaIS0_EEC1EmRKS0_RKS1_
.Lfunc_end24:
	.cfi_endproc

	.section	.text._ZNSaI10location_tEC1Ev,"axG",@progbits,_ZNSaI10location_tEC1Ev,comdat
	.weak	_ZNSaI10location_tEC1Ev
	.align	16, 0x90
	.type	_ZNSaI10location_tEC1Ev,@function
_ZNSaI10location_tEC1Ev:                # @_ZNSaI10location_tEC1Ev
	.cfi_startproc
.Lfunc_begin25:
	.loc	10 113 0                # /usr/lib/gcc/x86_64-linux-gnu/4.8/../../../../include/c++/4.8/bits/allocator.h:113:0
# BB#0:                                 # %entry
	pushq	%rax
.Ltmp363:
	.cfi_def_cfa_offset 16
	movq	%rdi, (%rsp)
	.loc	10 113 0 prologue_end   # /usr/lib/gcc/x86_64-linux-gnu/4.8/../../../../include/c++/4.8/bits/allocator.h:113:0
.Ltmp364:
	callq	_ZNSaI10location_tEC2Ev
	popq	%rax
	ret
.Ltmp365:
.Ltmp366:
	.size	_ZNSaI10location_tEC1Ev, .Ltmp366-_ZNSaI10location_tEC1Ev
.Lfunc_end25:
	.cfi_endproc

	.section	.text._ZNSaI10location_tED1Ev,"axG",@progbits,_ZNSaI10location_tED1Ev,comdat
	.weak	_ZNSaI10location_tED1Ev
	.align	16, 0x90
	.type	_ZNSaI10location_tED1Ev,@function
_ZNSaI10location_tED1Ev:                # @_ZNSaI10location_tED1Ev
	.cfi_startproc
.Lfunc_begin26:
	.loc	10 121 0                # /usr/lib/gcc/x86_64-linux-gnu/4.8/../../../../include/c++/4.8/bits/allocator.h:121:0
# BB#0:                                 # %entry
	pushq	%rax
.Ltmp368:
	.cfi_def_cfa_offset 16
	movq	%rdi, (%rsp)
	.loc	10 121 0 prologue_end   # /usr/lib/gcc/x86_64-linux-gnu/4.8/../../../../include/c++/4.8/bits/allocator.h:121:0
.Ltmp369:
	callq	_ZNSaI10location_tED2Ev
	popq	%rax
	ret
.Ltmp370:
.Ltmp371:
	.size	_ZNSaI10location_tED1Ev, .Ltmp371-_ZNSaI10location_tED1Ev
.Lfunc_end26:
	.cfi_endproc

	.section	.text._ZNSt6vectorIS_I10location_tSaIS0_EESaIS2_EE6resizeEmS2_,"axG",@progbits,_ZNSt6vectorIS_I10location_tSaIS0_EESaIS2_EE6resizeEmS2_,comdat
	.weak	_ZNSt6vectorIS_I10location_tSaIS0_EESaIS2_EE6resizeEmS2_
	.align	16, 0x90
	.type	_ZNSt6vectorIS_I10location_tSaIS0_EESaIS2_EE6resizeEmS2_,@function
_ZNSt6vectorIS_I10location_tSaIS0_EESaIS2_EE6resizeEmS2_: # @_ZNSt6vectorIS_I10location_tSaIS0_EESaIS2_EE6resizeEmS2_
	.cfi_startproc
.Lfunc_begin27:
	.loc	20 705 0                # /usr/lib/gcc/x86_64-linux-gnu/4.8/../../../../include/c++/4.8/bits/stl_vector.h:705:0
# BB#0:                                 # %entry
	pushq	%r15
.Ltmp376:
	.cfi_def_cfa_offset 16
	pushq	%r14
.Ltmp377:
	.cfi_def_cfa_offset 24
	pushq	%rbx
.Ltmp378:
	.cfi_def_cfa_offset 32
	subq	$32, %rsp
.Ltmp379:
	.cfi_def_cfa_offset 64
.Ltmp380:
	.cfi_offset %rbx, -32
.Ltmp381:
	.cfi_offset %r14, -24
.Ltmp382:
	.cfi_offset %r15, -16
	#DEBUG_VALUE: resize:__x <- RDX+0
	movq	%rdx, %r14
.Ltmp383:
	#DEBUG_VALUE: resize:__x <- R14+0
	movq	%rsi, %r15
	movq	%rdi, 24(%rsp)
	movq	%r15, 16(%rsp)
	movq	24(%rsp), %rbx
	.loc	20 706 0 prologue_end   # /usr/lib/gcc/x86_64-linux-gnu/4.8/../../../../include/c++/4.8/bits/stl_vector.h:706:0
.Ltmp384:
	movq	%rbx, %rdi
	callq	_ZNKSt6vectorIS_I10location_tSaIS0_EESaIS2_EE4sizeEv
	cmpq	%rax, %r15
	jbe	.LBB27_2
# BB#1:                                 # %if.then
.Ltmp385:
	#DEBUG_VALUE: resize:__x <- R14+0
	.loc	20 707 0                # /usr/lib/gcc/x86_64-linux-gnu/4.8/../../../../include/c++/4.8/bits/stl_vector.h:707:0
	movq	%rbx, %rdi
	callq	_ZNSt6vectorIS_I10location_tSaIS0_EESaIS2_EE3endEv
	movq	%rax, 8(%rsp)
	movq	16(%rsp), %r15
	movq	%rbx, %rdi
	callq	_ZNKSt6vectorIS_I10location_tSaIS0_EESaIS2_EE4sizeEv
	subq	%rax, %r15
	movq	8(%rsp), %rsi
	movq	%rbx, %rdi
	movq	%r15, %rdx
	movq	%r14, %rcx
	callq	_ZNSt6vectorIS_I10location_tSaIS0_EESaIS2_EE6insertEN9__gnu_cxx17__normal_iteratorIPS2_S4_EEmRKS2_
	jmp	.LBB27_4
.Ltmp386:
.LBB27_2:                               # %if.else
	.loc	20 708 0                # /usr/lib/gcc/x86_64-linux-gnu/4.8/../../../../include/c++/4.8/bits/stl_vector.h:708:0
	movq	16(%rsp), %r14
	movq	%rbx, %rdi
	callq	_ZNKSt6vectorIS_I10location_tSaIS0_EESaIS2_EE4sizeEv
	cmpq	%rax, %r14
	jae	.LBB27_4
# BB#3:                                 # %if.then7
	.loc	20 709 0                # /usr/lib/gcc/x86_64-linux-gnu/4.8/../../../../include/c++/4.8/bits/stl_vector.h:709:0
	movq	16(%rsp), %rax
	leaq	(%rax,%rax,2), %rax
	movq	(%rbx), %rcx
	leaq	(%rcx,%rax,8), %rsi
	movq	%rbx, %rdi
	callq	_ZNSt6vectorIS_I10location_tSaIS0_EESaIS2_EE15_M_erase_at_endEPS2_
.LBB27_4:                               # %if.end8
	.loc	20 710 0                # /usr/lib/gcc/x86_64-linux-gnu/4.8/../../../../include/c++/4.8/bits/stl_vector.h:710:0
	addq	$32, %rsp
	popq	%rbx
	popq	%r14
	popq	%r15
	ret
.Ltmp387:
.Ltmp388:
	.size	_ZNSt6vectorIS_I10location_tSaIS0_EESaIS2_EE6resizeEmS2_, .Ltmp388-_ZNSt6vectorIS_I10location_tSaIS0_EESaIS2_EE6resizeEmS2_
.Lfunc_end27:
	.cfi_endproc

	.section	.text._ZNSt6vectorI10location_tSaIS0_EEC1ERKS2_,"axG",@progbits,_ZNSt6vectorI10location_tSaIS0_EEC1ERKS2_,comdat
	.weak	_ZNSt6vectorI10location_tSaIS0_EEC1ERKS2_
	.align	16, 0x90
	.type	_ZNSt6vectorI10location_tSaIS0_EEC1ERKS2_,@function
_ZNSt6vectorI10location_tSaIS0_EEC1ERKS2_: # @_ZNSt6vectorI10location_tSaIS0_EEC1ERKS2_
	.cfi_startproc
.Lfunc_begin28:
	.loc	20 313 0                # /usr/lib/gcc/x86_64-linux-gnu/4.8/../../../../include/c++/4.8/bits/stl_vector.h:313:0
# BB#0:                                 # %entry
	subq	$24, %rsp
.Ltmp390:
	.cfi_def_cfa_offset 32
	movq	%rdi, 16(%rsp)
	movq	%rsi, 8(%rsp)
	movq	16(%rsp), %rdi
	.loc	20 317 0 prologue_end   # /usr/lib/gcc/x86_64-linux-gnu/4.8/../../../../include/c++/4.8/bits/stl_vector.h:317:0
.Ltmp391:
	callq	_ZNSt6vectorI10location_tSaIS0_EEC2ERKS2_
	addq	$24, %rsp
	ret
.Ltmp392:
.Ltmp393:
	.size	_ZNSt6vectorI10location_tSaIS0_EEC1ERKS2_, .Ltmp393-_ZNSt6vectorI10location_tSaIS0_EEC1ERKS2_
.Lfunc_end28:
	.cfi_endproc

	.section	.text._ZNSt6vectorI10location_tSaIS0_EED1Ev,"axG",@progbits,_ZNSt6vectorI10location_tSaIS0_EED1Ev,comdat
	.weak	_ZNSt6vectorI10location_tSaIS0_EED1Ev
	.align	16, 0x90
	.type	_ZNSt6vectorI10location_tSaIS0_EED1Ev,@function
_ZNSt6vectorI10location_tSaIS0_EED1Ev:  # @_ZNSt6vectorI10location_tSaIS0_EED1Ev
	.cfi_startproc
.Lfunc_begin29:
	.loc	20 415 0                # /usr/lib/gcc/x86_64-linux-gnu/4.8/../../../../include/c++/4.8/bits/stl_vector.h:415:0
# BB#0:                                 # %entry
	pushq	%rax
.Ltmp395:
	.cfi_def_cfa_offset 16
	movq	%rdi, (%rsp)
	.loc	20 415 0 prologue_end   # /usr/lib/gcc/x86_64-linux-gnu/4.8/../../../../include/c++/4.8/bits/stl_vector.h:415:0
.Ltmp396:
	callq	_ZNSt6vectorI10location_tSaIS0_EED2Ev
	.loc	20 416 0                # /usr/lib/gcc/x86_64-linux-gnu/4.8/../../../../include/c++/4.8/bits/stl_vector.h:416:0
	popq	%rax
	ret
.Ltmp397:
.Ltmp398:
	.size	_ZNSt6vectorI10location_tSaIS0_EED1Ev, .Ltmp398-_ZNSt6vectorI10location_tSaIS0_EED1Ev
.Lfunc_end29:
	.cfi_endproc

	.section	.text._ZNSt6vectorIS_I10location_tSaIS0_EESaIS2_EE2atEm,"axG",@progbits,_ZNSt6vectorIS_I10location_tSaIS0_EESaIS2_EE2atEm,comdat
	.weak	_ZNSt6vectorIS_I10location_tSaIS0_EESaIS2_EE2atEm
	.align	16, 0x90
	.type	_ZNSt6vectorIS_I10location_tSaIS0_EESaIS2_EE2atEm,@function
_ZNSt6vectorIS_I10location_tSaIS0_EESaIS2_EE2atEm: # @_ZNSt6vectorIS_I10location_tSaIS0_EESaIS2_EE2atEm
	.cfi_startproc
.Lfunc_begin30:
	.loc	20 811 0                # /usr/lib/gcc/x86_64-linux-gnu/4.8/../../../../include/c++/4.8/bits/stl_vector.h:811:0
# BB#0:                                 # %entry
	pushq	%rbx
.Ltmp401:
	.cfi_def_cfa_offset 16
	subq	$16, %rsp
.Ltmp402:
	.cfi_def_cfa_offset 32
.Ltmp403:
	.cfi_offset %rbx, -16
	movq	%rdi, 8(%rsp)
	movq	%rsi, (%rsp)
	movq	8(%rsp), %rbx
	.loc	20 812 0 prologue_end   # /usr/lib/gcc/x86_64-linux-gnu/4.8/../../../../include/c++/4.8/bits/stl_vector.h:812:0
.Ltmp404:
	movq	%rbx, %rdi
	callq	_ZNKSt6vectorIS_I10location_tSaIS0_EESaIS2_EE14_M_range_checkEm
	.loc	20 813 0                # /usr/lib/gcc/x86_64-linux-gnu/4.8/../../../../include/c++/4.8/bits/stl_vector.h:813:0
	movq	(%rsp), %rsi
	movq	%rbx, %rdi
	callq	_ZNSt6vectorIS_I10location_tSaIS0_EESaIS2_EEixEm
	addq	$16, %rsp
	popq	%rbx
	ret
.Ltmp405:
.Ltmp406:
	.size	_ZNSt6vectorIS_I10location_tSaIS0_EESaIS2_EE2atEm, .Ltmp406-_ZNSt6vectorIS_I10location_tSaIS0_EESaIS2_EE2atEm
.Lfunc_end30:
	.cfi_endproc

	.section	.text._ZNSt6vectorI10location_tSaIS0_EE2atEm,"axG",@progbits,_ZNSt6vectorI10location_tSaIS0_EE2atEm,comdat
	.weak	_ZNSt6vectorI10location_tSaIS0_EE2atEm
	.align	16, 0x90
	.type	_ZNSt6vectorI10location_tSaIS0_EE2atEm,@function
_ZNSt6vectorI10location_tSaIS0_EE2atEm: # @_ZNSt6vectorI10location_tSaIS0_EE2atEm
	.cfi_startproc
.Lfunc_begin31:
	.loc	20 811 0                # /usr/lib/gcc/x86_64-linux-gnu/4.8/../../../../include/c++/4.8/bits/stl_vector.h:811:0
# BB#0:                                 # %entry
	pushq	%rbx
.Ltmp409:
	.cfi_def_cfa_offset 16
	subq	$16, %rsp
.Ltmp410:
	.cfi_def_cfa_offset 32
.Ltmp411:
	.cfi_offset %rbx, -16
	movq	%rdi, 8(%rsp)
	movq	%rsi, (%rsp)
	movq	8(%rsp), %rbx
	.loc	20 812 0 prologue_end   # /usr/lib/gcc/x86_64-linux-gnu/4.8/../../../../include/c++/4.8/bits/stl_vector.h:812:0
.Ltmp412:
	movq	%rbx, %rdi
	callq	_ZNKSt6vectorI10location_tSaIS0_EE14_M_range_checkEm
	.loc	20 813 0                # /usr/lib/gcc/x86_64-linux-gnu/4.8/../../../../include/c++/4.8/bits/stl_vector.h:813:0
	movq	(%rsp), %rsi
	movq	%rbx, %rdi
	callq	_ZNSt6vectorI10location_tSaIS0_EEixEm
	addq	$16, %rsp
	popq	%rbx
	ret
.Ltmp413:
.Ltmp414:
	.size	_ZNSt6vectorI10location_tSaIS0_EE2atEm, .Ltmp414-_ZNSt6vectorI10location_tSaIS0_EE2atEm
.Lfunc_end31:
	.cfi_endproc

	.section	.text._ZNSt6vectorI12netlist_elemSaIS0_EE2atEm,"axG",@progbits,_ZNSt6vectorI12netlist_elemSaIS0_EE2atEm,comdat
	.weak	_ZNSt6vectorI12netlist_elemSaIS0_EE2atEm
	.align	16, 0x90
	.type	_ZNSt6vectorI12netlist_elemSaIS0_EE2atEm,@function
_ZNSt6vectorI12netlist_elemSaIS0_EE2atEm: # @_ZNSt6vectorI12netlist_elemSaIS0_EE2atEm
	.cfi_startproc
.Lfunc_begin32:
	.loc	20 811 0                # /usr/lib/gcc/x86_64-linux-gnu/4.8/../../../../include/c++/4.8/bits/stl_vector.h:811:0
# BB#0:                                 # %entry
	pushq	%rbx
.Ltmp417:
	.cfi_def_cfa_offset 16
	subq	$16, %rsp
.Ltmp418:
	.cfi_def_cfa_offset 32
.Ltmp419:
	.cfi_offset %rbx, -16
	movq	%rdi, 8(%rsp)
	movq	%rsi, (%rsp)
	movq	8(%rsp), %rbx
	.loc	20 812 0 prologue_end   # /usr/lib/gcc/x86_64-linux-gnu/4.8/../../../../include/c++/4.8/bits/stl_vector.h:812:0
.Ltmp420:
	movq	%rbx, %rdi
	callq	_ZNKSt6vectorI12netlist_elemSaIS0_EE14_M_range_checkEm
	.loc	20 813 0                # /usr/lib/gcc/x86_64-linux-gnu/4.8/../../../../include/c++/4.8/bits/stl_vector.h:813:0
	movq	(%rsp), %rsi
	movq	%rbx, %rdi
	callq	_ZNSt6vectorI12netlist_elemSaIS0_EEixEm
	addq	$16, %rsp
	popq	%rbx
	ret
.Ltmp421:
.Ltmp422:
	.size	_ZNSt6vectorI12netlist_elemSaIS0_EE2atEm, .Ltmp422-_ZNSt6vectorI12netlist_elemSaIS0_EE2atEm
.Lfunc_end32:
	.cfi_endproc

	.section	.text._ZN7threads9AtomicPtrI10location_tE3SetEPS1_,"axG",@progbits,_ZN7threads9AtomicPtrI10location_tE3SetEPS1_,comdat
	.weak	_ZN7threads9AtomicPtrI10location_tE3SetEPS1_
	.align	16, 0x90
	.type	_ZN7threads9AtomicPtrI10location_tE3SetEPS1_,@function
_ZN7threads9AtomicPtrI10location_tE3SetEPS1_: # @_ZN7threads9AtomicPtrI10location_tE3SetEPS1_
	.cfi_startproc
.Lfunc_begin33:
	.loc	24 161 0                # src/AtomicPtr.h:161:0
# BB#0:                                 # %entry
	subq	$24, %rsp
.Ltmp424:
	.cfi_def_cfa_offset 32
	movq	%rdi, 16(%rsp)
	movq	%rsi, 8(%rsp)
	movq	16(%rsp), %rdi
	.loc	24 163 0 prologue_end   # src/AtomicPtr.h:163:0
.Ltmp425:
	callq	_ZN7threads9AtomicPtrI10location_tE10PrivateSetEPS1_
	addq	$24, %rsp
	ret
.Ltmp426:
.Ltmp427:
	.size	_ZN7threads9AtomicPtrI10location_tE3SetEPS1_, .Ltmp427-_ZN7threads9AtomicPtrI10location_tE3SetEPS1_
.Lfunc_end33:
	.cfi_endproc

	.text
	.globl	_ZN7netlist24create_elem_if_necessaryERSs
	.align	16, 0x90
	.type	_ZN7netlist24create_elem_if_necessaryERSs,@function
_ZN7netlist24create_elem_if_necessaryERSs: # @_ZN7netlist24create_elem_if_necessaryERSs
	.cfi_startproc
.Lfunc_begin34:
	.loc	1 223 0                 # src/netlist.cpp:223:0
# BB#0:                                 # %entry
	pushq	%r14
.Ltmp431:
	.cfi_def_cfa_offset 16
	pushq	%rbx
.Ltmp432:
	.cfi_def_cfa_offset 24
	subq	$40, %rsp
.Ltmp433:
	.cfi_def_cfa_offset 64
.Ltmp434:
	.cfi_offset %rbx, -24
.Ltmp435:
	.cfi_offset %r14, -16
	movq	%rdi, 32(%rsp)
	movq	%rsi, 24(%rsp)
	movq	32(%rsp), %rbx
	.loc	1 227 0 prologue_end    # src/netlist.cpp:227:0
.Ltmp436:
	leaq	64(%rbx), %r14
	movq	%r14, %rdi
	callq	_ZNSt3mapISsP12netlist_elemSt4lessISsESaISt4pairIKSsS1_EEE4findERS5_
	movq	%rax, 8(%rsp)
	.loc	1 228 0                 # src/netlist.cpp:228:0
	movq	%r14, %rdi
	callq	_ZNSt3mapISsP12netlist_elemSt4lessISsESaISt4pairIKSsS1_EEE3endEv
	leaq	8(%rsp), %rdi
	leaq	(%rsp), %rsi
	movq	%rax, (%rsp)
	callq	_ZNKSt17_Rb_tree_iteratorISt4pairIKSsP12netlist_elemEEeqERKS5_
	testb	%al, %al
	je	.LBB34_2
# BB#1:                                 # %if.then
	.loc	1 229 0                 # src/netlist.cpp:229:0
.Ltmp437:
	movl	_ZZN7netlist24create_elem_if_necessaryERSsE11unused_elem(%rip), %esi
	addq	$16, %rbx
	movq	%rbx, %rdi
	callq	_ZNSt6vectorI12netlist_elemSaIS0_EE2atEm
	movq	%rax, %rbx
	movq	%rbx, 16(%rsp)
	.loc	1 230 0                 # src/netlist.cpp:230:0
	movq	24(%rsp), %rsi
	movq	%r14, %rdi
	callq	_ZNSt3mapISsP12netlist_elemSt4lessISsESaISt4pairIKSsS1_EEEixERS5_
	movq	%rbx, (%rax)
	.loc	1 231 0                 # src/netlist.cpp:231:0
	incl	_ZZN7netlist24create_elem_if_necessaryERSsE11unused_elem(%rip)
	jmp	.LBB34_3
.Ltmp438:
.LBB34_2:                               # %if.else
	leaq	8(%rsp), %rdi
	.loc	1 234 0                 # src/netlist.cpp:234:0
.Ltmp439:
	callq	_ZNKSt17_Rb_tree_iteratorISt4pairIKSsP12netlist_elemEEptEv
	movq	8(%rax), %rax
	movq	%rax, 16(%rsp)
.Ltmp440:
.LBB34_3:                               # %if.end
	.loc	1 236 0                 # src/netlist.cpp:236:0
	movq	16(%rsp), %rax
	addq	$40, %rsp
	popq	%rbx
	popq	%r14
	ret
.Ltmp441:
.Ltmp442:
	.size	_ZN7netlist24create_elem_if_necessaryERSs, .Ltmp442-_ZN7netlist24create_elem_if_necessaryERSs
.Lfunc_end34:
	.cfi_endproc

	.section	.text._ZSteqIcSt11char_traitsIcESaIcEEbRKSbIT_T0_T1_EPKS3_,"axG",@progbits,_ZSteqIcSt11char_traitsIcESaIcEEbRKSbIT_T0_T1_EPKS3_,comdat
	.weak	_ZSteqIcSt11char_traitsIcESaIcEEbRKSbIT_T0_T1_EPKS3_
	.align	16, 0x90
	.type	_ZSteqIcSt11char_traitsIcESaIcEEbRKSbIT_T0_T1_EPKS3_,@function
_ZSteqIcSt11char_traitsIcESaIcEEbRKSbIT_T0_T1_EPKS3_: # @_ZSteqIcSt11char_traitsIcESaIcEEbRKSbIT_T0_T1_EPKS3_
	.cfi_startproc
.Lfunc_begin35:
	.loc	6 2520 0                # /usr/lib/gcc/x86_64-linux-gnu/4.8/../../../../include/c++/4.8/bits/basic_string.h:2520:0
# BB#0:                                 # %entry
	subq	$24, %rsp
.Ltmp444:
	.cfi_def_cfa_offset 32
	movq	%rdi, 16(%rsp)
	movq	%rsi, 8(%rsp)
	.loc	6 2520 0 prologue_end   # /usr/lib/gcc/x86_64-linux-gnu/4.8/../../../../include/c++/4.8/bits/basic_string.h:2520:0
.Ltmp445:
	movq	16(%rsp), %rdi
	callq	_ZNKSs7compareEPKc
	testl	%eax, %eax
	sete	%al
	addq	$24, %rsp
	ret
.Ltmp446:
.Ltmp447:
	.size	_ZSteqIcSt11char_traitsIcESaIcEEbRKSbIT_T0_T1_EPKS3_, .Ltmp447-_ZSteqIcSt11char_traitsIcESaIcEEbRKSbIT_T0_T1_EPKS3_
.Lfunc_end35:
	.cfi_endproc

	.section	.text._ZNSt6vectorIP12netlist_elemSaIS1_EE9push_backERKS1_,"axG",@progbits,_ZNSt6vectorIP12netlist_elemSaIS1_EE9push_backERKS1_,comdat
	.weak	_ZNSt6vectorIP12netlist_elemSaIS1_EE9push_backERKS1_
	.align	16, 0x90
	.type	_ZNSt6vectorIP12netlist_elemSaIS1_EE9push_backERKS1_,@function
_ZNSt6vectorIP12netlist_elemSaIS1_EE9push_backERKS1_: # @_ZNSt6vectorIP12netlist_elemSaIS1_EE9push_backERKS1_
	.cfi_startproc
.Lfunc_begin36:
	.loc	20 902 0                # /usr/lib/gcc/x86_64-linux-gnu/4.8/../../../../include/c++/4.8/bits/stl_vector.h:902:0
# BB#0:                                 # %entry
	pushq	%rbx
.Ltmp450:
	.cfi_def_cfa_offset 16
	subq	$32, %rsp
.Ltmp451:
	.cfi_def_cfa_offset 48
.Ltmp452:
	.cfi_offset %rbx, -16
	movq	%rdi, 24(%rsp)
	movq	%rsi, 16(%rsp)
	movq	24(%rsp), %rbx
	.loc	20 903 0 prologue_end   # /usr/lib/gcc/x86_64-linux-gnu/4.8/../../../../include/c++/4.8/bits/stl_vector.h:903:0
.Ltmp453:
	movq	8(%rbx), %rax
	cmpq	16(%rbx), %rax
	je	.LBB36_2
# BB#1:                                 # %if.then
	.loc	20 905 0                # /usr/lib/gcc/x86_64-linux-gnu/4.8/../../../../include/c++/4.8/bits/stl_vector.h:905:0
.Ltmp454:
	movq	8(%rbx), %rsi
	movq	16(%rsp), %rdx
	movq	%rbx, %rdi
	callq	_ZN9__gnu_cxx14__alloc_traitsISaIP12netlist_elemEE9constructIS2_EEvRS3_PS2_RKT_
	.loc	20 907 0                # /usr/lib/gcc/x86_64-linux-gnu/4.8/../../../../include/c++/4.8/bits/stl_vector.h:907:0
	addq	$8, 8(%rbx)
	jmp	.LBB36_3
.Ltmp455:
.LBB36_2:                               # %if.else
	.loc	20 913 0                # /usr/lib/gcc/x86_64-linux-gnu/4.8/../../../../include/c++/4.8/bits/stl_vector.h:913:0
	movq	%rbx, %rdi
	callq	_ZNSt6vectorIP12netlist_elemSaIS1_EE3endEv
	movq	%rax, 8(%rsp)
	movq	16(%rsp), %rdx
	movq	%rbx, %rdi
	movq	%rax, %rsi
	callq	_ZNSt6vectorIP12netlist_elemSaIS1_EE13_M_insert_auxEN9__gnu_cxx17__normal_iteratorIPS1_S3_EERKS1_
.LBB36_3:                               # %if.end
	.loc	20 915 0                # /usr/lib/gcc/x86_64-linux-gnu/4.8/../../../../include/c++/4.8/bits/stl_vector.h:915:0
	addq	$32, %rsp
	popq	%rbx
	ret
.Ltmp456:
.Ltmp457:
	.size	_ZNSt6vectorIP12netlist_elemSaIS1_EE9push_backERKS1_, .Ltmp457-_ZNSt6vectorIP12netlist_elemSaIS1_EE9push_backERKS1_
.Lfunc_end36:
	.cfi_endproc

	.section	.text._ZNSt3mapISsP12netlist_elemSt4lessISsESaISt4pairIKSsS1_EEED1Ev,"axG",@progbits,_ZNSt3mapISsP12netlist_elemSt4lessISsESaISt4pairIKSsS1_EEED1Ev,comdat
	.weak	_ZNSt3mapISsP12netlist_elemSt4lessISsESaISt4pairIKSsS1_EEED1Ev
	.align	16, 0x90
	.type	_ZNSt3mapISsP12netlist_elemSt4lessISsESaISt4pairIKSsS1_EEED1Ev,@function
_ZNSt3mapISsP12netlist_elemSt4lessISsESaISt4pairIKSsS1_EEED1Ev: # @_ZNSt3mapISsP12netlist_elemSt4lessISsESaISt4pairIKSsS1_EEED1Ev
	.cfi_startproc
.Lfunc_begin37:
	.loc	28 96 0                 # /usr/lib/gcc/x86_64-linux-gnu/4.8/../../../../include/c++/4.8/bits/stl_map.h:96:0
# BB#0:                                 # %entry
	pushq	%rax
.Ltmp459:
	.cfi_def_cfa_offset 16
	movq	%rdi, (%rsp)
	.loc	28 96 0 prologue_end    # /usr/lib/gcc/x86_64-linux-gnu/4.8/../../../../include/c++/4.8/bits/stl_map.h:96:0
.Ltmp460:
	callq	_ZNSt3mapISsP12netlist_elemSt4lessISsESaISt4pairIKSsS1_EEED2Ev
	popq	%rax
	ret
.Ltmp461:
.Ltmp462:
	.size	_ZNSt3mapISsP12netlist_elemSt4lessISsESaISt4pairIKSsS1_EEED1Ev, .Ltmp462-_ZNSt3mapISsP12netlist_elemSt4lessISsESaISt4pairIKSsS1_EEED1Ev
.Lfunc_end37:
	.cfi_endproc

	.section	.text._ZNSt6vectorIS_I10location_tSaIS0_EESaIS2_EED1Ev,"axG",@progbits,_ZNSt6vectorIS_I10location_tSaIS0_EESaIS2_EED1Ev,comdat
	.weak	_ZNSt6vectorIS_I10location_tSaIS0_EESaIS2_EED1Ev
	.align	16, 0x90
	.type	_ZNSt6vectorIS_I10location_tSaIS0_EESaIS2_EED1Ev,@function
_ZNSt6vectorIS_I10location_tSaIS0_EESaIS2_EED1Ev: # @_ZNSt6vectorIS_I10location_tSaIS0_EESaIS2_EED1Ev
	.cfi_startproc
.Lfunc_begin38:
	.loc	20 415 0                # /usr/lib/gcc/x86_64-linux-gnu/4.8/../../../../include/c++/4.8/bits/stl_vector.h:415:0
# BB#0:                                 # %entry
	pushq	%rax
.Ltmp464:
	.cfi_def_cfa_offset 16
	movq	%rdi, (%rsp)
	.loc	20 415 0 prologue_end   # /usr/lib/gcc/x86_64-linux-gnu/4.8/../../../../include/c++/4.8/bits/stl_vector.h:415:0
.Ltmp465:
	callq	_ZNSt6vectorIS_I10location_tSaIS0_EESaIS2_EED2Ev
	.loc	20 416 0                # /usr/lib/gcc/x86_64-linux-gnu/4.8/../../../../include/c++/4.8/bits/stl_vector.h:416:0
	popq	%rax
	ret
.Ltmp466:
.Ltmp467:
	.size	_ZNSt6vectorIS_I10location_tSaIS0_EESaIS2_EED1Ev, .Ltmp467-_ZNSt6vectorIS_I10location_tSaIS0_EESaIS2_EED1Ev
.Lfunc_end38:
	.cfi_endproc

	.section	.text._ZNSt6vectorI12netlist_elemSaIS0_EED1Ev,"axG",@progbits,_ZNSt6vectorI12netlist_elemSaIS0_EED1Ev,comdat
	.weak	_ZNSt6vectorI12netlist_elemSaIS0_EED1Ev
	.align	16, 0x90
	.type	_ZNSt6vectorI12netlist_elemSaIS0_EED1Ev,@function
_ZNSt6vectorI12netlist_elemSaIS0_EED1Ev: # @_ZNSt6vectorI12netlist_elemSaIS0_EED1Ev
	.cfi_startproc
.Lfunc_begin39:
	.loc	20 415 0                # /usr/lib/gcc/x86_64-linux-gnu/4.8/../../../../include/c++/4.8/bits/stl_vector.h:415:0
# BB#0:                                 # %entry
	pushq	%rax
.Ltmp469:
	.cfi_def_cfa_offset 16
	movq	%rdi, (%rsp)
	.loc	20 415 0 prologue_end   # /usr/lib/gcc/x86_64-linux-gnu/4.8/../../../../include/c++/4.8/bits/stl_vector.h:415:0
.Ltmp470:
	callq	_ZNSt6vectorI12netlist_elemSaIS0_EED2Ev
	.loc	20 416 0                # /usr/lib/gcc/x86_64-linux-gnu/4.8/../../../../include/c++/4.8/bits/stl_vector.h:416:0
	popq	%rax
	ret
.Ltmp471:
.Ltmp472:
	.size	_ZNSt6vectorI12netlist_elemSaIS0_EED1Ev, .Ltmp472-_ZNSt6vectorI12netlist_elemSaIS0_EED1Ev
.Lfunc_end39:
	.cfi_endproc

	.section	.text._ZNSt3mapISsP12netlist_elemSt4lessISsESaISt4pairIKSsS1_EEE4findERS5_,"axG",@progbits,_ZNSt3mapISsP12netlist_elemSt4lessISsESaISt4pairIKSsS1_EEE4findERS5_,comdat
	.weak	_ZNSt3mapISsP12netlist_elemSt4lessISsESaISt4pairIKSsS1_EEE4findERS5_
	.align	16, 0x90
	.type	_ZNSt3mapISsP12netlist_elemSt4lessISsESaISt4pairIKSsS1_EEE4findERS5_,@function
_ZNSt3mapISsP12netlist_elemSt4lessISsESaISt4pairIKSsS1_EEE4findERS5_: # @_ZNSt3mapISsP12netlist_elemSt4lessISsESaISt4pairIKSsS1_EEE4findERS5_
	.cfi_startproc
.Lfunc_begin40:
	.loc	28 822 0                # /usr/lib/gcc/x86_64-linux-gnu/4.8/../../../../include/c++/4.8/bits/stl_map.h:822:0
# BB#0:                                 # %entry
	subq	$24, %rsp
.Ltmp474:
	.cfi_def_cfa_offset 32
	movq	%rdi, 8(%rsp)
	movq	%rsi, (%rsp)
	movq	8(%rsp), %rdi
	.loc	28 822 0 prologue_end   # /usr/lib/gcc/x86_64-linux-gnu/4.8/../../../../include/c++/4.8/bits/stl_map.h:822:0
.Ltmp475:
	callq	_ZNSt8_Rb_treeISsSt4pairIKSsP12netlist_elemESt10_Select1stIS4_ESt4lessISsESaIS4_EE4findERS1_
	movq	%rax, 16(%rsp)
	addq	$24, %rsp
	ret
.Ltmp476:
.Ltmp477:
	.size	_ZNSt3mapISsP12netlist_elemSt4lessISsESaISt4pairIKSsS1_EEE4findERS5_, .Ltmp477-_ZNSt3mapISsP12netlist_elemSt4lessISsESaISt4pairIKSsS1_EEE4findERS5_
.Lfunc_end40:
	.cfi_endproc

	.section	.text._ZNKSt17_Rb_tree_iteratorISt4pairIKSsP12netlist_elemEEeqERKS5_,"axG",@progbits,_ZNKSt17_Rb_tree_iteratorISt4pairIKSsP12netlist_elemEEeqERKS5_,comdat
	.weak	_ZNKSt17_Rb_tree_iteratorISt4pairIKSsP12netlist_elemEEeqERKS5_
	.align	16, 0x90
	.type	_ZNKSt17_Rb_tree_iteratorISt4pairIKSsP12netlist_elemEEeqERKS5_,@function
_ZNKSt17_Rb_tree_iteratorISt4pairIKSsP12netlist_elemEEeqERKS5_: # @_ZNKSt17_Rb_tree_iteratorISt4pairIKSsP12netlist_elemEEeqERKS5_
	.cfi_startproc
.Lfunc_begin41:
	.loc	25 218 0                # /usr/lib/gcc/x86_64-linux-gnu/4.8/../../../../include/c++/4.8/bits/stl_tree.h:218:0
# BB#0:                                 # %entry
	movq	%rdi, -8(%rsp)
	movq	%rsi, -16(%rsp)
	movq	-8(%rsp), %rax
	.loc	25 218 0 prologue_end   # /usr/lib/gcc/x86_64-linux-gnu/4.8/../../../../include/c++/4.8/bits/stl_tree.h:218:0
.Ltmp478:
	movq	(%rax), %rax
	cmpq	(%rsi), %rax
	sete	%al
	ret
.Ltmp479:
.Ltmp480:
	.size	_ZNKSt17_Rb_tree_iteratorISt4pairIKSsP12netlist_elemEEeqERKS5_, .Ltmp480-_ZNKSt17_Rb_tree_iteratorISt4pairIKSsP12netlist_elemEEeqERKS5_
.Lfunc_end41:
	.cfi_endproc

	.text
	.globl	_ZN7netlist15print_locationsERKSs
	.align	16, 0x90
	.type	_ZN7netlist15print_locationsERKSs,@function
_ZN7netlist15print_locationsERKSs:      # @_ZN7netlist15print_locationsERKSs
	.cfi_startproc
	.cfi_personality 3, __gxx_personality_v0
.Leh_func_begin42:
	.cfi_lsda 3, .Lexception42
.Lfunc_begin42:
	.loc	1 244 0                 # src/netlist.cpp:244:0
# BB#0:                                 # %entry
	pushq	%r15
.Ltmp518:
	.cfi_def_cfa_offset 16
	pushq	%r14
.Ltmp519:
	.cfi_def_cfa_offset 24
	pushq	%r13
.Ltmp520:
	.cfi_def_cfa_offset 32
	pushq	%r12
.Ltmp521:
	.cfi_def_cfa_offset 40
	pushq	%rbx
.Ltmp522:
	.cfi_def_cfa_offset 48
	subq	$576, %rsp              # imm = 0x240
.Ltmp523:
	.cfi_def_cfa_offset 624
.Ltmp524:
	.cfi_offset %rbx, -48
.Ltmp525:
	.cfi_offset %r12, -40
.Ltmp526:
	.cfi_offset %r13, -32
.Ltmp527:
	.cfi_offset %r14, -24
.Ltmp528:
	.cfi_offset %r15, -16
	movq	%rdi, 568(%rsp)
	movq	%rsi, 560(%rsp)
	movq	568(%rsp), %r14
	.loc	1 245 0 prologue_end    # src/netlist.cpp:245:0
.Ltmp529:
	movq	%rsi, %rdi
	callq	_ZNKSs5c_strEv
	movq	%rax, %rbx
	movl	$16, %edi
	movl	$32, %esi
	callq	_ZStorSt13_Ios_OpenmodeS_
	leaq	48(%rsp), %rdi
	movq	%rbx, %rsi
	movl	%eax, %edx
	callq	_ZNSt14basic_ofstreamIcSt11char_traitsIcEEC1EPKcSt13_Ios_Openmode
	.loc	1 248 0                 # src/netlist.cpp:248:0
.Ltmp530:
.Ltmp481:
	addq	$64, %r14
	movq	%r14, %rdi
	callq	_ZNSt3mapISsP12netlist_elemSt4lessISsESaISt4pairIKSsS1_EEE5beginEv
.Ltmp482:
# BB#1:                                 # %invoke.cont
	movq	%rax, 40(%rsp)
	leaq	40(%rsp), %r13
	leaq	16(%rsp), %r15
	leaq	48(%rsp), %r12
	.align	16, 0x90
.LBB42_2:                               # %for.cond
                                        # =>This Inner Loop Header: Depth=1
	.loc	1 249 0                 # src/netlist.cpp:249:0
.Ltmp484:
	movq	%r14, %rdi
	callq	_ZNSt3mapISsP12netlist_elemSt4lessISsESaISt4pairIKSsS1_EEE3endEv
.Ltmp485:
# BB#3:                                 # %invoke.cont5
                                        #   in Loop: Header=BB42_2 Depth=1
	movq	%rax, 16(%rsp)
.Ltmp486:
	movq	%r13, %rdi
	movq	%r15, %rsi
	callq	_ZNKSt17_Rb_tree_iteratorISt4pairIKSsP12netlist_elemEEneERKS5_
.Ltmp487:
# BB#4:                                 # %invoke.cont8
                                        #   in Loop: Header=BB42_2 Depth=1
	cmpb	$1, %al
	jne	.LBB42_20
# BB#5:                                 # %for.body
                                        #   in Loop: Header=BB42_2 Depth=1
.Ltmp531:
	#DEBUG_VALUE: elem <- [%rsp+$8]+$0
	.loc	1 251 0                 # src/netlist.cpp:251:0
.Ltmp488:
	movq	%r13, %rdi
	callq	_ZNKSt17_Rb_tree_iteratorISt4pairIKSsP12netlist_elemEEptEv
.Ltmp489:
# BB#6:                                 # %invoke.cont10
                                        #   in Loop: Header=BB42_2 Depth=1
	movq	8(%rax), %rsi
	movq	%rsi, 8(%rsp)
	.loc	1 252 0                 # src/netlist.cpp:252:0
.Ltmp490:
	movq	%r12, %rdi
	callq	_ZStlsIcSt11char_traitsIcESaIcEERSt13basic_ostreamIT_T0_ES7_RKSbIS4_S5_T1_E
.Ltmp491:
# BB#7:                                 # %invoke.cont12
                                        #   in Loop: Header=BB42_2 Depth=1
.Ltmp492:
	movq	%rax, %rdi
	movl	$.L.str6, %esi
	callq	_ZStlsISt11char_traitsIcEERSt13basic_ostreamIcT_ES5_PKc
	movq	%rax, %rbx
.Ltmp493:
# BB#8:                                 # %invoke.cont14
                                        #   in Loop: Header=BB42_2 Depth=1
	movq	8(%rsp), %rdi
.Ltmp494:
	addq	$56, %rdi
	callq	_ZNK7threads9AtomicPtrI10location_tE3GetEv
.Ltmp495:
# BB#9:                                 # %invoke.cont16
                                        #   in Loop: Header=BB42_2 Depth=1
	movl	(%rax), %esi
.Ltmp496:
	movq	%rbx, %rdi
	callq	_ZNSolsEi
.Ltmp497:
# BB#10:                                # %invoke.cont18
                                        #   in Loop: Header=BB42_2 Depth=1
.Ltmp498:
	movq	%rax, %rdi
	movl	$.L.str6, %esi
	callq	_ZStlsISt11char_traitsIcEERSt13basic_ostreamIcT_ES5_PKc
	movq	%rax, %rbx
.Ltmp499:
# BB#11:                                # %invoke.cont20
                                        #   in Loop: Header=BB42_2 Depth=1
	movq	8(%rsp), %rdi
.Ltmp500:
	addq	$56, %rdi
	callq	_ZNK7threads9AtomicPtrI10location_tE3GetEv
.Ltmp501:
# BB#12:                                # %invoke.cont23
                                        #   in Loop: Header=BB42_2 Depth=1
	movl	4(%rax), %esi
.Ltmp502:
	movq	%rbx, %rdi
	callq	_ZNSolsEi
.Ltmp503:
# BB#13:                                # %invoke.cont25
                                        #   in Loop: Header=BB42_2 Depth=1
.Ltmp504:
	movq	%rax, %rdi
	movl	$_ZSt4endlIcSt11char_traitsIcEERSt13basic_ostreamIT_T0_ES6_, %esi
	callq	_ZNSolsEPFRSoS_E
.Ltmp505:
.Ltmp532:
# BB#14:                                # %for.inc
                                        #   in Loop: Header=BB42_2 Depth=1
	.loc	1 250 0                 # src/netlist.cpp:250:0
.Ltmp506:
	movq	%r13, %rdi
	callq	_ZNSt17_Rb_tree_iteratorISt4pairIKSsP12netlist_elemEEppEv
.Ltmp507:
	jmp	.LBB42_2
.Ltmp533:
.LBB42_15:                              # %lpad.loopexit
.Ltmp508:
	jmp	.LBB42_17
.LBB42_20:                              # %for.end
	leaq	48(%rsp), %rdi
	.loc	1 254 0                 # src/netlist.cpp:254:0
	callq	_ZNSt14basic_ofstreamIcSt11char_traitsIcEED1Ev
	addq	$576, %rsp              # imm = 0x240
	popq	%rbx
	popq	%r12
	popq	%r13
	popq	%r14
	popq	%r15
	ret
.LBB42_16:                              # %lpad.nonloopexit
.Ltmp483:
.LBB42_17:                              # %lpad
	.loc	1 248 0                 # src/netlist.cpp:248:0
.Ltmp534:
	movq	%rax, 32(%rsp)
	movl	%edx, 28(%rsp)
.Ltmp535:
	.loc	1 254 0                 # src/netlist.cpp:254:0
.Ltmp509:
	leaq	48(%rsp), %rdi
	callq	_ZNSt14basic_ofstreamIcSt11char_traitsIcEED1Ev
.Ltmp510:
# BB#18:                                # %eh.resume
	movq	32(%rsp), %rdi
	callq	_Unwind_Resume
.LBB42_19:                              # %terminate.lpad
.Ltmp511:
	callq	_ZSt9terminatev
.Ltmp536:
.Ltmp537:
	.size	_ZN7netlist15print_locationsERKSs, .Ltmp537-_ZN7netlist15print_locationsERKSs
.Lfunc_end42:
	.cfi_endproc
.Leh_func_end42:
	.section	.gcc_except_table,"a",@progbits
	.align	4
GCC_except_table42:
.Lexception42:
	.byte	255                     # @LPStart Encoding = omit
	.byte	3                       # @TType Encoding = udata4
	.asciz	 "\326\200\200"         # @TType base offset
	.byte	3                       # Call site Encoding = udata4
	.byte	78                      # Call site table length
.Lset79 = .Leh_func_begin42-.Leh_func_begin42 # >> Call Site 1 <<
	.long	.Lset79
.Lset80 = .Ltmp481-.Leh_func_begin42    #   Call between .Leh_func_begin42 and .Ltmp481
	.long	.Lset80
	.long	0                       #     has no landing pad
	.byte	0                       #   On action: cleanup
.Lset81 = .Ltmp481-.Leh_func_begin42    # >> Call Site 2 <<
	.long	.Lset81
.Lset82 = .Ltmp482-.Ltmp481             #   Call between .Ltmp481 and .Ltmp482
	.long	.Lset82
.Lset83 = .Ltmp483-.Leh_func_begin42    #     jumps to .Ltmp483
	.long	.Lset83
	.byte	0                       #   On action: cleanup
.Lset84 = .Ltmp484-.Leh_func_begin42    # >> Call Site 3 <<
	.long	.Lset84
.Lset85 = .Ltmp507-.Ltmp484             #   Call between .Ltmp484 and .Ltmp507
	.long	.Lset85
.Lset86 = .Ltmp508-.Leh_func_begin42    #     jumps to .Ltmp508
	.long	.Lset86
	.byte	0                       #   On action: cleanup
.Lset87 = .Ltmp507-.Leh_func_begin42    # >> Call Site 4 <<
	.long	.Lset87
.Lset88 = .Ltmp509-.Ltmp507             #   Call between .Ltmp507 and .Ltmp509
	.long	.Lset88
	.long	0                       #     has no landing pad
	.byte	0                       #   On action: cleanup
.Lset89 = .Ltmp509-.Leh_func_begin42    # >> Call Site 5 <<
	.long	.Lset89
.Lset90 = .Ltmp510-.Ltmp509             #   Call between .Ltmp509 and .Ltmp510
	.long	.Lset90
.Lset91 = .Ltmp511-.Leh_func_begin42    #     jumps to .Ltmp511
	.long	.Lset91
	.byte	1                       #   On action: 1
.Lset92 = .Ltmp510-.Leh_func_begin42    # >> Call Site 6 <<
	.long	.Lset92
.Lset93 = .Leh_func_end42-.Ltmp510      #   Call between .Ltmp510 and .Leh_func_end42
	.long	.Lset93
	.long	0                       #     has no landing pad
	.byte	0                       #   On action: cleanup
	.byte	1                       # >> Action Record 1 <<
                                        #   Catch TypeInfo 1
	.byte	0                       #   No further actions
                                        # >> Catch TypeInfos <<
	.long	0                       # TypeInfo 1
	.align	4

	.section	.text._ZStorSt13_Ios_OpenmodeS_,"axG",@progbits,_ZStorSt13_Ios_OpenmodeS_,comdat
	.weak	_ZStorSt13_Ios_OpenmodeS_
	.align	16, 0x90
	.type	_ZStorSt13_Ios_OpenmodeS_,@function
_ZStorSt13_Ios_OpenmodeS_:              # @_ZStorSt13_Ios_OpenmodeS_
	.cfi_startproc
.Lfunc_begin43:
	.loc	2 119 0                 # /usr/lib/gcc/x86_64-linux-gnu/4.8/../../../../include/c++/4.8/bits/ios_base.h:119:0
# BB#0:                                 # %entry
	movl	%edi, -4(%rsp)
	movl	%esi, -8(%rsp)
	.loc	2 119 0 prologue_end    # /usr/lib/gcc/x86_64-linux-gnu/4.8/../../../../include/c++/4.8/bits/ios_base.h:119:0
.Ltmp538:
	orl	-4(%rsp), %esi
	movl	%esi, %eax
	ret
.Ltmp539:
.Ltmp540:
	.size	_ZStorSt13_Ios_OpenmodeS_, .Ltmp540-_ZStorSt13_Ios_OpenmodeS_
.Lfunc_end43:
	.cfi_endproc

	.section	.text._ZNSt8_Rb_treeISsSt4pairIKSsP12netlist_elemESt10_Select1stIS4_ESt4lessISsESaIS4_EE4findERS1_,"axG",@progbits,_ZNSt8_Rb_treeISsSt4pairIKSsP12netlist_elemESt10_Select1stIS4_ESt4lessISsESaIS4_EE4findERS1_,comdat
	.weak	_ZNSt8_Rb_treeISsSt4pairIKSsP12netlist_elemESt10_Select1stIS4_ESt4lessISsESaIS4_EE4findERS1_
	.align	16, 0x90
	.type	_ZNSt8_Rb_treeISsSt4pairIKSsP12netlist_elemESt10_Select1stIS4_ESt4lessISsESaIS4_EE4findERS1_,@function
_ZNSt8_Rb_treeISsSt4pairIKSsP12netlist_elemESt10_Select1stIS4_ESt4lessISsESaIS4_EE4findERS1_: # @_ZNSt8_Rb_treeISsSt4pairIKSsP12netlist_elemESt10_Select1stIS4_ESt4lessISsESaIS4_EE4findERS1_
	.cfi_startproc
.Lfunc_begin44:
	.loc	25 1791 0               # /usr/lib/gcc/x86_64-linux-gnu/4.8/../../../../include/c++/4.8/bits/stl_tree.h:1791:0
# BB#0:                                 # %entry
	pushq	%r14
.Ltmp544:
	.cfi_def_cfa_offset 16
	pushq	%rbx
.Ltmp545:
	.cfi_def_cfa_offset 24
	subq	$40, %rsp
.Ltmp546:
	.cfi_def_cfa_offset 64
.Ltmp547:
	.cfi_offset %rbx, -24
.Ltmp548:
	.cfi_offset %r14, -16
	movq	%rdi, 24(%rsp)
	movq	%rsi, 16(%rsp)
	movq	24(%rsp), %rbx
	.loc	25 1792 0 prologue_end  # /usr/lib/gcc/x86_64-linux-gnu/4.8/../../../../include/c++/4.8/bits/stl_tree.h:1792:0
.Ltmp549:
	movq	%rbx, %rdi
	callq	_ZNSt8_Rb_treeISsSt4pairIKSsP12netlist_elemESt10_Select1stIS4_ESt4lessISsESaIS4_EE8_M_beginEv
	movq	%rax, %r14
	movq	%rbx, %rdi
	callq	_ZNSt8_Rb_treeISsSt4pairIKSsP12netlist_elemESt10_Select1stIS4_ESt4lessISsESaIS4_EE6_M_endEv
	movq	16(%rsp), %rcx
	movq	%rbx, %rdi
	movq	%r14, %rsi
	movq	%rax, %rdx
	callq	_ZNSt8_Rb_treeISsSt4pairIKSsP12netlist_elemESt10_Select1stIS4_ESt4lessISsESaIS4_EE14_M_lower_boundEPSt13_Rb_tree_nodeIS4_ESD_RS1_
	movq	%rax, 8(%rsp)
	.loc	25 1793 0               # /usr/lib/gcc/x86_64-linux-gnu/4.8/../../../../include/c++/4.8/bits/stl_tree.h:1793:0
	movq	%rbx, %rdi
	callq	_ZNSt8_Rb_treeISsSt4pairIKSsP12netlist_elemESt10_Select1stIS4_ESt4lessISsESaIS4_EE3endEv
	leaq	8(%rsp), %rdi
	leaq	(%rsp), %rsi
	movq	%rax, (%rsp)
	callq	_ZNKSt17_Rb_tree_iteratorISt4pairIKSsP12netlist_elemEEeqERKS5_
	testb	%al, %al
	jne	.LBB44_2
# BB#1:                                 # %lor.lhs.false
	.loc	25 1794 0               # /usr/lib/gcc/x86_64-linux-gnu/4.8/../../../../include/c++/4.8/bits/stl_tree.h:1794:0
	movq	16(%rsp), %r14
	.loc	25 1795 0               # /usr/lib/gcc/x86_64-linux-gnu/4.8/../../../../include/c++/4.8/bits/stl_tree.h:1795:0
	movq	8(%rsp), %rdi
	callq	_ZNSt8_Rb_treeISsSt4pairIKSsP12netlist_elemESt10_Select1stIS4_ESt4lessISsESaIS4_EE6_S_keyEPKSt18_Rb_tree_node_base
	movq	%rbx, %rdi
	movq	%r14, %rsi
	movq	%rax, %rdx
	callq	_ZNKSt4lessISsEclERKSsS2_
	cmpb	$1, %al
	jne	.LBB44_3
.LBB44_2:                               # %cond.true
	movq	%rbx, %rdi
	callq	_ZNSt8_Rb_treeISsSt4pairIKSsP12netlist_elemESt10_Select1stIS4_ESt4lessISsESaIS4_EE3endEv
	jmp	.LBB44_4
.LBB44_3:                               # %cond.false
	movq	8(%rsp), %rax
.LBB44_4:                               # %cond.false
	movq	%rax, 32(%rsp)
	movq	32(%rsp), %rax
	addq	$40, %rsp
	popq	%rbx
	popq	%r14
	ret
.Ltmp550:
.Ltmp551:
	.size	_ZNSt8_Rb_treeISsSt4pairIKSsP12netlist_elemESt10_Select1stIS4_ESt4lessISsESaIS4_EE4findERS1_, .Ltmp551-_ZNSt8_Rb_treeISsSt4pairIKSsP12netlist_elemESt10_Select1stIS4_ESt4lessISsESaIS4_EE4findERS1_
.Lfunc_end44:
	.cfi_endproc

	.section	.text._ZNSt8_Rb_treeISsSt4pairIKSsP12netlist_elemESt10_Select1stIS4_ESt4lessISsESaIS4_EE14_M_lower_boundEPSt13_Rb_tree_nodeIS4_ESD_RS1_,"axG",@progbits,_ZNSt8_Rb_treeISsSt4pairIKSsP12netlist_elemESt10_Select1stIS4_ESt4lessISsESaIS4_EE14_M_lower_boundEPSt13_Rb_tree_nodeIS4_ESD_RS1_,comdat
	.weak	_ZNSt8_Rb_treeISsSt4pairIKSsP12netlist_elemESt10_Select1stIS4_ESt4lessISsESaIS4_EE14_M_lower_boundEPSt13_Rb_tree_nodeIS4_ESD_RS1_
	.align	16, 0x90
	.type	_ZNSt8_Rb_treeISsSt4pairIKSsP12netlist_elemESt10_Select1stIS4_ESt4lessISsESaIS4_EE14_M_lower_boundEPSt13_Rb_tree_nodeIS4_ESD_RS1_,@function
_ZNSt8_Rb_treeISsSt4pairIKSsP12netlist_elemESt10_Select1stIS4_ESt4lessISsESaIS4_EE14_M_lower_boundEPSt13_Rb_tree_nodeIS4_ESD_RS1_: # @_ZNSt8_Rb_treeISsSt4pairIKSsP12netlist_elemESt10_Select1stIS4_ESt4lessISsESaIS4_EE14_M_lower_boundEPSt13_Rb_tree_nodeIS4_ESD_RS1_
	.cfi_startproc
.Lfunc_begin45:
	.loc	25 1139 0               # /usr/lib/gcc/x86_64-linux-gnu/4.8/../../../../include/c++/4.8/bits/stl_tree.h:1139:0
# BB#0:                                 # %entry
	pushq	%rbx
.Ltmp554:
	.cfi_def_cfa_offset 16
	subq	$48, %rsp
.Ltmp555:
	.cfi_def_cfa_offset 64
.Ltmp556:
	.cfi_offset %rbx, -16
	movq	%rdi, 32(%rsp)
	movq	%rsi, 24(%rsp)
	movq	%rdx, 16(%rsp)
	movq	%rcx, 8(%rsp)
	movq	32(%rsp), %rbx
	jmp	.LBB45_1
	.align	16, 0x90
.LBB45_3:                               # %if.then
                                        #   in Loop: Header=BB45_1 Depth=1
	.loc	25 1142 0 prologue_end  # /usr/lib/gcc/x86_64-linux-gnu/4.8/../../../../include/c++/4.8/bits/stl_tree.h:1142:0
.Ltmp557:
	movq	24(%rsp), %rax
	movq	%rax, 16(%rsp)
	movq	24(%rsp), %rdi
	callq	_ZNSt8_Rb_treeISsSt4pairIKSsP12netlist_elemESt10_Select1stIS4_ESt4lessISsESaIS4_EE7_S_leftEPSt18_Rb_tree_node_base
	movq	%rax, 24(%rsp)
.LBB45_1:                               # %while.cond
                                        # =>This Inner Loop Header: Depth=1
	.loc	25 1140 0               # /usr/lib/gcc/x86_64-linux-gnu/4.8/../../../../include/c++/4.8/bits/stl_tree.h:1140:0
	cmpq	$0, 24(%rsp)
	je	.LBB45_5
# BB#2:                                 # %while.body
                                        #   in Loop: Header=BB45_1 Depth=1
	.loc	25 1141 0               # /usr/lib/gcc/x86_64-linux-gnu/4.8/../../../../include/c++/4.8/bits/stl_tree.h:1141:0
	movq	24(%rsp), %rdi
	callq	_ZNSt8_Rb_treeISsSt4pairIKSsP12netlist_elemESt10_Select1stIS4_ESt4lessISsESaIS4_EE6_S_keyEPKSt13_Rb_tree_nodeIS4_E
	movq	8(%rsp), %rdx
	movq	%rbx, %rdi
	movq	%rax, %rsi
	callq	_ZNKSt4lessISsEclERKSsS2_
	testb	%al, %al
	je	.LBB45_3
# BB#4:                                 # %if.else
                                        #   in Loop: Header=BB45_1 Depth=1
	.loc	25 1144 0               # /usr/lib/gcc/x86_64-linux-gnu/4.8/../../../../include/c++/4.8/bits/stl_tree.h:1144:0
	movq	24(%rsp), %rdi
	callq	_ZNSt8_Rb_treeISsSt4pairIKSsP12netlist_elemESt10_Select1stIS4_ESt4lessISsESaIS4_EE8_S_rightEPSt18_Rb_tree_node_base
	movq	%rax, 24(%rsp)
	jmp	.LBB45_1
.LBB45_5:                               # %while.end
	.loc	25 1145 0               # /usr/lib/gcc/x86_64-linux-gnu/4.8/../../../../include/c++/4.8/bits/stl_tree.h:1145:0
	movq	16(%rsp), %rsi
	leaq	40(%rsp), %rdi
	callq	_ZNSt17_Rb_tree_iteratorISt4pairIKSsP12netlist_elemEEC1EPSt13_Rb_tree_nodeIS4_E
	movq	40(%rsp), %rax
	addq	$48, %rsp
	popq	%rbx
	ret
.Ltmp558:
.Ltmp559:
	.size	_ZNSt8_Rb_treeISsSt4pairIKSsP12netlist_elemESt10_Select1stIS4_ESt4lessISsESaIS4_EE14_M_lower_boundEPSt13_Rb_tree_nodeIS4_ESD_RS1_, .Ltmp559-_ZNSt8_Rb_treeISsSt4pairIKSsP12netlist_elemESt10_Select1stIS4_ESt4lessISsESaIS4_EE14_M_lower_boundEPSt13_Rb_tree_nodeIS4_ESD_RS1_
.Lfunc_end45:
	.cfi_endproc

	.section	.text._ZNSt8_Rb_treeISsSt4pairIKSsP12netlist_elemESt10_Select1stIS4_ESt4lessISsESaIS4_EE8_M_beginEv,"axG",@progbits,_ZNSt8_Rb_treeISsSt4pairIKSsP12netlist_elemESt10_Select1stIS4_ESt4lessISsESaIS4_EE8_M_beginEv,comdat
	.weak	_ZNSt8_Rb_treeISsSt4pairIKSsP12netlist_elemESt10_Select1stIS4_ESt4lessISsESaIS4_EE8_M_beginEv
	.align	16, 0x90
	.type	_ZNSt8_Rb_treeISsSt4pairIKSsP12netlist_elemESt10_Select1stIS4_ESt4lessISsESaIS4_EE8_M_beginEv,@function
_ZNSt8_Rb_treeISsSt4pairIKSsP12netlist_elemESt10_Select1stIS4_ESt4lessISsESaIS4_EE8_M_beginEv: # @_ZNSt8_Rb_treeISsSt4pairIKSsP12netlist_elemESt10_Select1stIS4_ESt4lessISsESaIS4_EE8_M_beginEv
	.cfi_startproc
.Lfunc_begin46:
	.loc	25 502 0                # /usr/lib/gcc/x86_64-linux-gnu/4.8/../../../../include/c++/4.8/bits/stl_tree.h:502:0
# BB#0:                                 # %entry
	movq	%rdi, -8(%rsp)
	.loc	25 502 0 prologue_end   # /usr/lib/gcc/x86_64-linux-gnu/4.8/../../../../include/c++/4.8/bits/stl_tree.h:502:0
.Ltmp560:
	movq	16(%rdi), %rax
	ret
.Ltmp561:
.Ltmp562:
	.size	_ZNSt8_Rb_treeISsSt4pairIKSsP12netlist_elemESt10_Select1stIS4_ESt4lessISsESaIS4_EE8_M_beginEv, .Ltmp562-_ZNSt8_Rb_treeISsSt4pairIKSsP12netlist_elemESt10_Select1stIS4_ESt4lessISsESaIS4_EE8_M_beginEv
.Lfunc_end46:
	.cfi_endproc

	.section	.text._ZNSt8_Rb_treeISsSt4pairIKSsP12netlist_elemESt10_Select1stIS4_ESt4lessISsESaIS4_EE6_M_endEv,"axG",@progbits,_ZNSt8_Rb_treeISsSt4pairIKSsP12netlist_elemESt10_Select1stIS4_ESt4lessISsESaIS4_EE6_M_endEv,comdat
	.weak	_ZNSt8_Rb_treeISsSt4pairIKSsP12netlist_elemESt10_Select1stIS4_ESt4lessISsESaIS4_EE6_M_endEv
	.align	16, 0x90
	.type	_ZNSt8_Rb_treeISsSt4pairIKSsP12netlist_elemESt10_Select1stIS4_ESt4lessISsESaIS4_EE6_M_endEv,@function
_ZNSt8_Rb_treeISsSt4pairIKSsP12netlist_elemESt10_Select1stIS4_ESt4lessISsESaIS4_EE6_M_endEv: # @_ZNSt8_Rb_treeISsSt4pairIKSsP12netlist_elemESt10_Select1stIS4_ESt4lessISsESaIS4_EE6_M_endEv
	.cfi_startproc
.Lfunc_begin47:
	.loc	25 513 0                # /usr/lib/gcc/x86_64-linux-gnu/4.8/../../../../include/c++/4.8/bits/stl_tree.h:513:0
# BB#0:                                 # %entry
	movq	%rdi, -8(%rsp)
	.loc	25 513 0 prologue_end   # /usr/lib/gcc/x86_64-linux-gnu/4.8/../../../../include/c++/4.8/bits/stl_tree.h:513:0
.Ltmp563:
	leaq	8(%rdi), %rax
	ret
.Ltmp564:
.Ltmp565:
	.size	_ZNSt8_Rb_treeISsSt4pairIKSsP12netlist_elemESt10_Select1stIS4_ESt4lessISsESaIS4_EE6_M_endEv, .Ltmp565-_ZNSt8_Rb_treeISsSt4pairIKSsP12netlist_elemESt10_Select1stIS4_ESt4lessISsESaIS4_EE6_M_endEv
.Lfunc_end47:
	.cfi_endproc

	.section	.text._ZNSt8_Rb_treeISsSt4pairIKSsP12netlist_elemESt10_Select1stIS4_ESt4lessISsESaIS4_EE3endEv,"axG",@progbits,_ZNSt8_Rb_treeISsSt4pairIKSsP12netlist_elemESt10_Select1stIS4_ESt4lessISsESaIS4_EE3endEv,comdat
	.weak	_ZNSt8_Rb_treeISsSt4pairIKSsP12netlist_elemESt10_Select1stIS4_ESt4lessISsESaIS4_EE3endEv
	.align	16, 0x90
	.type	_ZNSt8_Rb_treeISsSt4pairIKSsP12netlist_elemESt10_Select1stIS4_ESt4lessISsESaIS4_EE3endEv,@function
_ZNSt8_Rb_treeISsSt4pairIKSsP12netlist_elemESt10_Select1stIS4_ESt4lessISsESaIS4_EE3endEv: # @_ZNSt8_Rb_treeISsSt4pairIKSsP12netlist_elemESt10_Select1stIS4_ESt4lessISsESaIS4_EE3endEv
	.cfi_startproc
.Lfunc_begin48:
	.loc	25 697 0                # /usr/lib/gcc/x86_64-linux-gnu/4.8/../../../../include/c++/4.8/bits/stl_tree.h:697:0
# BB#0:                                 # %entry
	subq	$24, %rsp
.Ltmp567:
	.cfi_def_cfa_offset 32
	movq	%rdi, 8(%rsp)
	.loc	25 697 0 prologue_end   # /usr/lib/gcc/x86_64-linux-gnu/4.8/../../../../include/c++/4.8/bits/stl_tree.h:697:0
.Ltmp568:
	leaq	8(%rdi), %rsi
	leaq	16(%rsp), %rdi
	callq	_ZNSt17_Rb_tree_iteratorISt4pairIKSsP12netlist_elemEEC1EPSt13_Rb_tree_nodeIS4_E
	movq	16(%rsp), %rax
	addq	$24, %rsp
	ret
.Ltmp569:
.Ltmp570:
	.size	_ZNSt8_Rb_treeISsSt4pairIKSsP12netlist_elemESt10_Select1stIS4_ESt4lessISsESaIS4_EE3endEv, .Ltmp570-_ZNSt8_Rb_treeISsSt4pairIKSsP12netlist_elemESt10_Select1stIS4_ESt4lessISsESaIS4_EE3endEv
.Lfunc_end48:
	.cfi_endproc

	.section	.text._ZNKSt4lessISsEclERKSsS2_,"axG",@progbits,_ZNKSt4lessISsEclERKSsS2_,comdat
	.weak	_ZNKSt4lessISsEclERKSsS2_
	.align	16, 0x90
	.type	_ZNKSt4lessISsEclERKSsS2_,@function
_ZNKSt4lessISsEclERKSsS2_:              # @_ZNKSt4lessISsEclERKSsS2_
	.cfi_startproc
.Lfunc_begin49:
	.loc	27 235 0                # /usr/lib/gcc/x86_64-linux-gnu/4.8/../../../../include/c++/4.8/bits/stl_function.h:235:0
# BB#0:                                 # %entry
	subq	$24, %rsp
.Ltmp572:
	.cfi_def_cfa_offset 32
	movq	%rdi, 16(%rsp)
	movq	%rsi, 8(%rsp)
	movq	%rdx, (%rsp)
	.loc	27 235 0 prologue_end   # /usr/lib/gcc/x86_64-linux-gnu/4.8/../../../../include/c++/4.8/bits/stl_function.h:235:0
.Ltmp573:
	movq	8(%rsp), %rdi
	movq	%rdx, %rsi
	callq	_ZStltIcSt11char_traitsIcESaIcEEbRKSbIT_T0_T1_ES8_
	addq	$24, %rsp
	ret
.Ltmp574:
.Ltmp575:
	.size	_ZNKSt4lessISsEclERKSsS2_, .Ltmp575-_ZNKSt4lessISsEclERKSsS2_
.Lfunc_end49:
	.cfi_endproc

	.section	.text._ZNSt8_Rb_treeISsSt4pairIKSsP12netlist_elemESt10_Select1stIS4_ESt4lessISsESaIS4_EE6_S_keyEPKSt18_Rb_tree_node_base,"axG",@progbits,_ZNSt8_Rb_treeISsSt4pairIKSsP12netlist_elemESt10_Select1stIS4_ESt4lessISsESaIS4_EE6_S_keyEPKSt18_Rb_tree_node_base,comdat
	.weak	_ZNSt8_Rb_treeISsSt4pairIKSsP12netlist_elemESt10_Select1stIS4_ESt4lessISsESaIS4_EE6_S_keyEPKSt18_Rb_tree_node_base
	.align	16, 0x90
	.type	_ZNSt8_Rb_treeISsSt4pairIKSsP12netlist_elemESt10_Select1stIS4_ESt4lessISsESaIS4_EE6_S_keyEPKSt18_Rb_tree_node_base,@function
_ZNSt8_Rb_treeISsSt4pairIKSsP12netlist_elemESt10_Select1stIS4_ESt4lessISsESaIS4_EE6_S_keyEPKSt18_Rb_tree_node_base: # @_ZNSt8_Rb_treeISsSt4pairIKSsP12netlist_elemESt10_Select1stIS4_ESt4lessISsESaIS4_EE6_S_keyEPKSt18_Rb_tree_node_base
	.cfi_startproc
.Lfunc_begin50:
	.loc	25 549 0                # /usr/lib/gcc/x86_64-linux-gnu/4.8/../../../../include/c++/4.8/bits/stl_tree.h:549:0
# BB#0:                                 # %entry
	subq	$24, %rsp
.Ltmp577:
	.cfi_def_cfa_offset 32
	movq	%rdi, 16(%rsp)
	.loc	25 549 0 prologue_end   # /usr/lib/gcc/x86_64-linux-gnu/4.8/../../../../include/c++/4.8/bits/stl_tree.h:549:0
.Ltmp578:
	callq	_ZNSt8_Rb_treeISsSt4pairIKSsP12netlist_elemESt10_Select1stIS4_ESt4lessISsESaIS4_EE8_S_valueEPKSt18_Rb_tree_node_base
	leaq	8(%rsp), %rdi
	movq	%rax, %rsi
	callq	_ZNKSt10_Select1stISt4pairIKSsP12netlist_elemEEclERKS4_
	addq	$24, %rsp
	ret
.Ltmp579:
.Ltmp580:
	.size	_ZNSt8_Rb_treeISsSt4pairIKSsP12netlist_elemESt10_Select1stIS4_ESt4lessISsESaIS4_EE6_S_keyEPKSt18_Rb_tree_node_base, .Ltmp580-_ZNSt8_Rb_treeISsSt4pairIKSsP12netlist_elemESt10_Select1stIS4_ESt4lessISsESaIS4_EE6_S_keyEPKSt18_Rb_tree_node_base
.Lfunc_end50:
	.cfi_endproc

	.section	.text._ZNKSt10_Select1stISt4pairIKSsP12netlist_elemEEclERKS4_,"axG",@progbits,_ZNKSt10_Select1stISt4pairIKSsP12netlist_elemEEclERKS4_,comdat
	.weak	_ZNKSt10_Select1stISt4pairIKSsP12netlist_elemEEclERKS4_
	.align	16, 0x90
	.type	_ZNKSt10_Select1stISt4pairIKSsP12netlist_elemEEclERKS4_,@function
_ZNKSt10_Select1stISt4pairIKSsP12netlist_elemEEclERKS4_: # @_ZNKSt10_Select1stISt4pairIKSsP12netlist_elemEEclERKS4_
	.cfi_startproc
.Lfunc_begin51:
	.loc	27 495 0                # /usr/lib/gcc/x86_64-linux-gnu/4.8/../../../../include/c++/4.8/bits/stl_function.h:495:0
# BB#0:                                 # %entry
	movq	%rdi, -8(%rsp)
	movq	%rsi, -16(%rsp)
	.loc	27 495 0 prologue_end   # /usr/lib/gcc/x86_64-linux-gnu/4.8/../../../../include/c++/4.8/bits/stl_function.h:495:0
.Ltmp581:
	movq	%rsi, %rax
	ret
.Ltmp582:
.Ltmp583:
	.size	_ZNKSt10_Select1stISt4pairIKSsP12netlist_elemEEclERKS4_, .Ltmp583-_ZNKSt10_Select1stISt4pairIKSsP12netlist_elemEEclERKS4_
.Lfunc_end51:
	.cfi_endproc

	.section	.text._ZNSt8_Rb_treeISsSt4pairIKSsP12netlist_elemESt10_Select1stIS4_ESt4lessISsESaIS4_EE8_S_valueEPKSt18_Rb_tree_node_base,"axG",@progbits,_ZNSt8_Rb_treeISsSt4pairIKSsP12netlist_elemESt10_Select1stIS4_ESt4lessISsESaIS4_EE8_S_valueEPKSt18_Rb_tree_node_base,comdat
	.weak	_ZNSt8_Rb_treeISsSt4pairIKSsP12netlist_elemESt10_Select1stIS4_ESt4lessISsESaIS4_EE8_S_valueEPKSt18_Rb_tree_node_base
	.align	16, 0x90
	.type	_ZNSt8_Rb_treeISsSt4pairIKSsP12netlist_elemESt10_Select1stIS4_ESt4lessISsESaIS4_EE8_S_valueEPKSt18_Rb_tree_node_base,@function
_ZNSt8_Rb_treeISsSt4pairIKSsP12netlist_elemESt10_Select1stIS4_ESt4lessISsESaIS4_EE8_S_valueEPKSt18_Rb_tree_node_base: # @_ZNSt8_Rb_treeISsSt4pairIKSsP12netlist_elemESt10_Select1stIS4_ESt4lessISsESaIS4_EE8_S_valueEPKSt18_Rb_tree_node_base
	.cfi_startproc
.Lfunc_begin52:
	.loc	25 545 0                # /usr/lib/gcc/x86_64-linux-gnu/4.8/../../../../include/c++/4.8/bits/stl_tree.h:545:0
# BB#0:                                 # %entry
	movq	%rdi, -8(%rsp)
	.loc	25 545 0 prologue_end   # /usr/lib/gcc/x86_64-linux-gnu/4.8/../../../../include/c++/4.8/bits/stl_tree.h:545:0
.Ltmp584:
	leaq	32(%rdi), %rax
	ret
.Ltmp585:
.Ltmp586:
	.size	_ZNSt8_Rb_treeISsSt4pairIKSsP12netlist_elemESt10_Select1stIS4_ESt4lessISsESaIS4_EE8_S_valueEPKSt18_Rb_tree_node_base, .Ltmp586-_ZNSt8_Rb_treeISsSt4pairIKSsP12netlist_elemESt10_Select1stIS4_ESt4lessISsESaIS4_EE8_S_valueEPKSt18_Rb_tree_node_base
.Lfunc_end52:
	.cfi_endproc

	.section	.text._ZStltIcSt11char_traitsIcESaIcEEbRKSbIT_T0_T1_ES8_,"axG",@progbits,_ZStltIcSt11char_traitsIcESaIcEEbRKSbIT_T0_T1_ES8_,comdat
	.weak	_ZStltIcSt11char_traitsIcESaIcEEbRKSbIT_T0_T1_ES8_
	.align	16, 0x90
	.type	_ZStltIcSt11char_traitsIcESaIcEEbRKSbIT_T0_T1_ES8_,@function
_ZStltIcSt11char_traitsIcESaIcEEbRKSbIT_T0_T1_ES8_: # @_ZStltIcSt11char_traitsIcESaIcEEbRKSbIT_T0_T1_ES8_
	.cfi_startproc
.Lfunc_begin53:
	.loc	6 2570 0                # /usr/lib/gcc/x86_64-linux-gnu/4.8/../../../../include/c++/4.8/bits/basic_string.h:2570:0
# BB#0:                                 # %entry
	subq	$24, %rsp
.Ltmp588:
	.cfi_def_cfa_offset 32
	movq	%rdi, 16(%rsp)
	movq	%rsi, 8(%rsp)
	.loc	6 2570 0 prologue_end   # /usr/lib/gcc/x86_64-linux-gnu/4.8/../../../../include/c++/4.8/bits/basic_string.h:2570:0
.Ltmp589:
	movq	16(%rsp), %rdi
	callq	_ZNKSs7compareERKSs
	shrl	$31, %eax
                                        # kill: AL<def> AL<kill> EAX<kill>
	addq	$24, %rsp
	ret
.Ltmp590:
.Ltmp591:
	.size	_ZStltIcSt11char_traitsIcESaIcEEbRKSbIT_T0_T1_ES8_, .Ltmp591-_ZStltIcSt11char_traitsIcESaIcEEbRKSbIT_T0_T1_ES8_
.Lfunc_end53:
	.cfi_endproc

	.section	.text._ZNSt17_Rb_tree_iteratorISt4pairIKSsP12netlist_elemEEC1EPSt13_Rb_tree_nodeIS4_E,"axG",@progbits,_ZNSt17_Rb_tree_iteratorISt4pairIKSsP12netlist_elemEEC1EPSt13_Rb_tree_nodeIS4_E,comdat
	.weak	_ZNSt17_Rb_tree_iteratorISt4pairIKSsP12netlist_elemEEC1EPSt13_Rb_tree_nodeIS4_E
	.align	16, 0x90
	.type	_ZNSt17_Rb_tree_iteratorISt4pairIKSsP12netlist_elemEEC1EPSt13_Rb_tree_nodeIS4_E,@function
_ZNSt17_Rb_tree_iteratorISt4pairIKSsP12netlist_elemEEC1EPSt13_Rb_tree_nodeIS4_E: # @_ZNSt17_Rb_tree_iteratorISt4pairIKSsP12netlist_elemEEC1EPSt13_Rb_tree_nodeIS4_E
	.cfi_startproc
.Lfunc_begin54:
	.loc	25 175 0                # /usr/lib/gcc/x86_64-linux-gnu/4.8/../../../../include/c++/4.8/bits/stl_tree.h:175:0
# BB#0:                                 # %entry
	subq	$24, %rsp
.Ltmp593:
	.cfi_def_cfa_offset 32
	movq	%rdi, 16(%rsp)
	movq	%rsi, 8(%rsp)
	movq	16(%rsp), %rdi
	.loc	25 175 0 prologue_end   # /usr/lib/gcc/x86_64-linux-gnu/4.8/../../../../include/c++/4.8/bits/stl_tree.h:175:0
.Ltmp594:
	callq	_ZNSt17_Rb_tree_iteratorISt4pairIKSsP12netlist_elemEEC2EPSt13_Rb_tree_nodeIS4_E
	addq	$24, %rsp
	ret
.Ltmp595:
.Ltmp596:
	.size	_ZNSt17_Rb_tree_iteratorISt4pairIKSsP12netlist_elemEEC1EPSt13_Rb_tree_nodeIS4_E, .Ltmp596-_ZNSt17_Rb_tree_iteratorISt4pairIKSsP12netlist_elemEEC1EPSt13_Rb_tree_nodeIS4_E
.Lfunc_end54:
	.cfi_endproc

	.section	.text._ZNSt17_Rb_tree_iteratorISt4pairIKSsP12netlist_elemEEC2EPSt13_Rb_tree_nodeIS4_E,"axG",@progbits,_ZNSt17_Rb_tree_iteratorISt4pairIKSsP12netlist_elemEEC2EPSt13_Rb_tree_nodeIS4_E,comdat
	.weak	_ZNSt17_Rb_tree_iteratorISt4pairIKSsP12netlist_elemEEC2EPSt13_Rb_tree_nodeIS4_E
	.align	16, 0x90
	.type	_ZNSt17_Rb_tree_iteratorISt4pairIKSsP12netlist_elemEEC2EPSt13_Rb_tree_nodeIS4_E,@function
_ZNSt17_Rb_tree_iteratorISt4pairIKSsP12netlist_elemEEC2EPSt13_Rb_tree_nodeIS4_E: # @_ZNSt17_Rb_tree_iteratorISt4pairIKSsP12netlist_elemEEC2EPSt13_Rb_tree_nodeIS4_E
	.cfi_startproc
.Lfunc_begin55:
	.loc	25 175 0                # /usr/lib/gcc/x86_64-linux-gnu/4.8/../../../../include/c++/4.8/bits/stl_tree.h:175:0
# BB#0:                                 # %entry
	movq	%rdi, -8(%rsp)
	movq	%rsi, -16(%rsp)
	movq	-8(%rsp), %rax
	.loc	25 175 0 prologue_end   # /usr/lib/gcc/x86_64-linux-gnu/4.8/../../../../include/c++/4.8/bits/stl_tree.h:175:0
.Ltmp597:
	movq	%rsi, (%rax)
	.loc	25 175 0                # /usr/lib/gcc/x86_64-linux-gnu/4.8/../../../../include/c++/4.8/bits/stl_tree.h:175:0
.Ltmp598:
	ret
.Ltmp599:
.Ltmp600:
	.size	_ZNSt17_Rb_tree_iteratorISt4pairIKSsP12netlist_elemEEC2EPSt13_Rb_tree_nodeIS4_E, .Ltmp600-_ZNSt17_Rb_tree_iteratorISt4pairIKSsP12netlist_elemEEC2EPSt13_Rb_tree_nodeIS4_E
.Lfunc_end55:
	.cfi_endproc

	.section	.text._ZNSt8_Rb_treeISsSt4pairIKSsP12netlist_elemESt10_Select1stIS4_ESt4lessISsESaIS4_EE6_S_keyEPKSt13_Rb_tree_nodeIS4_E,"axG",@progbits,_ZNSt8_Rb_treeISsSt4pairIKSsP12netlist_elemESt10_Select1stIS4_ESt4lessISsESaIS4_EE6_S_keyEPKSt13_Rb_tree_nodeIS4_E,comdat
	.weak	_ZNSt8_Rb_treeISsSt4pairIKSsP12netlist_elemESt10_Select1stIS4_ESt4lessISsESaIS4_EE6_S_keyEPKSt13_Rb_tree_nodeIS4_E
	.align	16, 0x90
	.type	_ZNSt8_Rb_treeISsSt4pairIKSsP12netlist_elemESt10_Select1stIS4_ESt4lessISsESaIS4_EE6_S_keyEPKSt13_Rb_tree_nodeIS4_E,@function
_ZNSt8_Rb_treeISsSt4pairIKSsP12netlist_elemESt10_Select1stIS4_ESt4lessISsESaIS4_EE6_S_keyEPKSt13_Rb_tree_nodeIS4_E: # @_ZNSt8_Rb_treeISsSt4pairIKSsP12netlist_elemESt10_Select1stIS4_ESt4lessISsESaIS4_EE6_S_keyEPKSt13_Rb_tree_nodeIS4_E
	.cfi_startproc
.Lfunc_begin56:
	.loc	25 525 0                # /usr/lib/gcc/x86_64-linux-gnu/4.8/../../../../include/c++/4.8/bits/stl_tree.h:525:0
# BB#0:                                 # %entry
	subq	$24, %rsp
.Ltmp602:
	.cfi_def_cfa_offset 32
	movq	%rdi, 16(%rsp)
	.loc	25 525 0 prologue_end   # /usr/lib/gcc/x86_64-linux-gnu/4.8/../../../../include/c++/4.8/bits/stl_tree.h:525:0
.Ltmp603:
	callq	_ZNSt8_Rb_treeISsSt4pairIKSsP12netlist_elemESt10_Select1stIS4_ESt4lessISsESaIS4_EE8_S_valueEPKSt13_Rb_tree_nodeIS4_E
	leaq	8(%rsp), %rdi
	movq	%rax, %rsi
	callq	_ZNKSt10_Select1stISt4pairIKSsP12netlist_elemEEclERKS4_
	addq	$24, %rsp
	ret
.Ltmp604:
.Ltmp605:
	.size	_ZNSt8_Rb_treeISsSt4pairIKSsP12netlist_elemESt10_Select1stIS4_ESt4lessISsESaIS4_EE6_S_keyEPKSt13_Rb_tree_nodeIS4_E, .Ltmp605-_ZNSt8_Rb_treeISsSt4pairIKSsP12netlist_elemESt10_Select1stIS4_ESt4lessISsESaIS4_EE6_S_keyEPKSt13_Rb_tree_nodeIS4_E
.Lfunc_end56:
	.cfi_endproc

	.section	.text._ZNSt8_Rb_treeISsSt4pairIKSsP12netlist_elemESt10_Select1stIS4_ESt4lessISsESaIS4_EE7_S_leftEPSt18_Rb_tree_node_base,"axG",@progbits,_ZNSt8_Rb_treeISsSt4pairIKSsP12netlist_elemESt10_Select1stIS4_ESt4lessISsESaIS4_EE7_S_leftEPSt18_Rb_tree_node_base,comdat
	.weak	_ZNSt8_Rb_treeISsSt4pairIKSsP12netlist_elemESt10_Select1stIS4_ESt4lessISsESaIS4_EE7_S_leftEPSt18_Rb_tree_node_base
	.align	16, 0x90
	.type	_ZNSt8_Rb_treeISsSt4pairIKSsP12netlist_elemESt10_Select1stIS4_ESt4lessISsESaIS4_EE7_S_leftEPSt18_Rb_tree_node_base,@function
_ZNSt8_Rb_treeISsSt4pairIKSsP12netlist_elemESt10_Select1stIS4_ESt4lessISsESaIS4_EE7_S_leftEPSt18_Rb_tree_node_base: # @_ZNSt8_Rb_treeISsSt4pairIKSsP12netlist_elemESt10_Select1stIS4_ESt4lessISsESaIS4_EE7_S_leftEPSt18_Rb_tree_node_base
	.cfi_startproc
.Lfunc_begin57:
	.loc	25 529 0                # /usr/lib/gcc/x86_64-linux-gnu/4.8/../../../../include/c++/4.8/bits/stl_tree.h:529:0
# BB#0:                                 # %entry
	movq	%rdi, -8(%rsp)
	.loc	25 529 0 prologue_end   # /usr/lib/gcc/x86_64-linux-gnu/4.8/../../../../include/c++/4.8/bits/stl_tree.h:529:0
.Ltmp606:
	movq	16(%rdi), %rax
	ret
.Ltmp607:
.Ltmp608:
	.size	_ZNSt8_Rb_treeISsSt4pairIKSsP12netlist_elemESt10_Select1stIS4_ESt4lessISsESaIS4_EE7_S_leftEPSt18_Rb_tree_node_base, .Ltmp608-_ZNSt8_Rb_treeISsSt4pairIKSsP12netlist_elemESt10_Select1stIS4_ESt4lessISsESaIS4_EE7_S_leftEPSt18_Rb_tree_node_base
.Lfunc_end57:
	.cfi_endproc

	.section	.text._ZNSt8_Rb_treeISsSt4pairIKSsP12netlist_elemESt10_Select1stIS4_ESt4lessISsESaIS4_EE8_S_rightEPSt18_Rb_tree_node_base,"axG",@progbits,_ZNSt8_Rb_treeISsSt4pairIKSsP12netlist_elemESt10_Select1stIS4_ESt4lessISsESaIS4_EE8_S_rightEPSt18_Rb_tree_node_base,comdat
	.weak	_ZNSt8_Rb_treeISsSt4pairIKSsP12netlist_elemESt10_Select1stIS4_ESt4lessISsESaIS4_EE8_S_rightEPSt18_Rb_tree_node_base
	.align	16, 0x90
	.type	_ZNSt8_Rb_treeISsSt4pairIKSsP12netlist_elemESt10_Select1stIS4_ESt4lessISsESaIS4_EE8_S_rightEPSt18_Rb_tree_node_base,@function
_ZNSt8_Rb_treeISsSt4pairIKSsP12netlist_elemESt10_Select1stIS4_ESt4lessISsESaIS4_EE8_S_rightEPSt18_Rb_tree_node_base: # @_ZNSt8_Rb_treeISsSt4pairIKSsP12netlist_elemESt10_Select1stIS4_ESt4lessISsESaIS4_EE8_S_rightEPSt18_Rb_tree_node_base
	.cfi_startproc
.Lfunc_begin58:
	.loc	25 537 0                # /usr/lib/gcc/x86_64-linux-gnu/4.8/../../../../include/c++/4.8/bits/stl_tree.h:537:0
# BB#0:                                 # %entry
	movq	%rdi, -8(%rsp)
	.loc	25 537 0 prologue_end   # /usr/lib/gcc/x86_64-linux-gnu/4.8/../../../../include/c++/4.8/bits/stl_tree.h:537:0
.Ltmp609:
	movq	24(%rdi), %rax
	ret
.Ltmp610:
.Ltmp611:
	.size	_ZNSt8_Rb_treeISsSt4pairIKSsP12netlist_elemESt10_Select1stIS4_ESt4lessISsESaIS4_EE8_S_rightEPSt18_Rb_tree_node_base, .Ltmp611-_ZNSt8_Rb_treeISsSt4pairIKSsP12netlist_elemESt10_Select1stIS4_ESt4lessISsESaIS4_EE8_S_rightEPSt18_Rb_tree_node_base
.Lfunc_end58:
	.cfi_endproc

	.section	.text._ZNSt8_Rb_treeISsSt4pairIKSsP12netlist_elemESt10_Select1stIS4_ESt4lessISsESaIS4_EE8_S_valueEPKSt13_Rb_tree_nodeIS4_E,"axG",@progbits,_ZNSt8_Rb_treeISsSt4pairIKSsP12netlist_elemESt10_Select1stIS4_ESt4lessISsESaIS4_EE8_S_valueEPKSt13_Rb_tree_nodeIS4_E,comdat
	.weak	_ZNSt8_Rb_treeISsSt4pairIKSsP12netlist_elemESt10_Select1stIS4_ESt4lessISsESaIS4_EE8_S_valueEPKSt13_Rb_tree_nodeIS4_E
	.align	16, 0x90
	.type	_ZNSt8_Rb_treeISsSt4pairIKSsP12netlist_elemESt10_Select1stIS4_ESt4lessISsESaIS4_EE8_S_valueEPKSt13_Rb_tree_nodeIS4_E,@function
_ZNSt8_Rb_treeISsSt4pairIKSsP12netlist_elemESt10_Select1stIS4_ESt4lessISsESaIS4_EE8_S_valueEPKSt13_Rb_tree_nodeIS4_E: # @_ZNSt8_Rb_treeISsSt4pairIKSsP12netlist_elemESt10_Select1stIS4_ESt4lessISsESaIS4_EE8_S_valueEPKSt13_Rb_tree_nodeIS4_E
	.cfi_startproc
.Lfunc_begin59:
	.loc	25 521 0                # /usr/lib/gcc/x86_64-linux-gnu/4.8/../../../../include/c++/4.8/bits/stl_tree.h:521:0
# BB#0:                                 # %entry
	movq	%rdi, -8(%rsp)
	.loc	25 521 0 prologue_end   # /usr/lib/gcc/x86_64-linux-gnu/4.8/../../../../include/c++/4.8/bits/stl_tree.h:521:0
.Ltmp612:
	leaq	32(%rdi), %rax
	ret
.Ltmp613:
.Ltmp614:
	.size	_ZNSt8_Rb_treeISsSt4pairIKSsP12netlist_elemESt10_Select1stIS4_ESt4lessISsESaIS4_EE8_S_valueEPKSt13_Rb_tree_nodeIS4_E, .Ltmp614-_ZNSt8_Rb_treeISsSt4pairIKSsP12netlist_elemESt10_Select1stIS4_ESt4lessISsESaIS4_EE8_S_valueEPKSt13_Rb_tree_nodeIS4_E
.Lfunc_end59:
	.cfi_endproc

	.section	.text._ZN9__gnu_cxx14__alloc_traitsISaIP12netlist_elemEE9constructIS2_EEvRS3_PS2_RKT_,"axG",@progbits,_ZN9__gnu_cxx14__alloc_traitsISaIP12netlist_elemEE9constructIS2_EEvRS3_PS2_RKT_,comdat
	.weak	_ZN9__gnu_cxx14__alloc_traitsISaIP12netlist_elemEE9constructIS2_EEvRS3_PS2_RKT_
	.align	16, 0x90
	.type	_ZN9__gnu_cxx14__alloc_traitsISaIP12netlist_elemEE9constructIS2_EEvRS3_PS2_RKT_,@function
_ZN9__gnu_cxx14__alloc_traitsISaIP12netlist_elemEE9constructIS2_EEvRS3_PS2_RKT_: # @_ZN9__gnu_cxx14__alloc_traitsISaIP12netlist_elemEE9constructIS2_EEvRS3_PS2_RKT_
	.cfi_startproc
.Lfunc_begin60:
	.loc	21 215 0                # /usr/lib/gcc/x86_64-linux-gnu/4.8/../../../../include/c++/4.8/ext/alloc_traits.h:215:0
# BB#0:                                 # %entry
	subq	$24, %rsp
.Ltmp616:
	.cfi_def_cfa_offset 32
	movq	%rdi, 16(%rsp)
	movq	%rsi, 8(%rsp)
	movq	%rdx, (%rsp)
	.loc	21 215 0 prologue_end   # /usr/lib/gcc/x86_64-linux-gnu/4.8/../../../../include/c++/4.8/ext/alloc_traits.h:215:0
.Ltmp617:
	movq	8(%rsp), %rsi
	movq	16(%rsp), %rdi
	callq	_ZN9__gnu_cxx13new_allocatorIP12netlist_elemE9constructEPS2_RKS2_
	addq	$24, %rsp
	ret
.Ltmp618:
.Ltmp619:
	.size	_ZN9__gnu_cxx14__alloc_traitsISaIP12netlist_elemEE9constructIS2_EEvRS3_PS2_RKT_, .Ltmp619-_ZN9__gnu_cxx14__alloc_traitsISaIP12netlist_elemEE9constructIS2_EEvRS3_PS2_RKT_
.Lfunc_end60:
	.cfi_endproc

	.section	.text._ZNSt6vectorIP12netlist_elemSaIS1_EE13_M_insert_auxEN9__gnu_cxx17__normal_iteratorIPS1_S3_EERKS1_,"axG",@progbits,_ZNSt6vectorIP12netlist_elemSaIS1_EE13_M_insert_auxEN9__gnu_cxx17__normal_iteratorIPS1_S3_EERKS1_,comdat
	.weak	_ZNSt6vectorIP12netlist_elemSaIS1_EE13_M_insert_auxEN9__gnu_cxx17__normal_iteratorIPS1_S3_EERKS1_
	.align	16, 0x90
	.type	_ZNSt6vectorIP12netlist_elemSaIS1_EE13_M_insert_auxEN9__gnu_cxx17__normal_iteratorIPS1_S3_EERKS1_,@function
_ZNSt6vectorIP12netlist_elemSaIS1_EE13_M_insert_auxEN9__gnu_cxx17__normal_iteratorIPS1_S3_EERKS1_: # @_ZNSt6vectorIP12netlist_elemSaIS1_EE13_M_insert_auxEN9__gnu_cxx17__normal_iteratorIPS1_S3_EERKS1_
	.cfi_startproc
	.cfi_personality 3, __gxx_personality_v0
.Leh_func_begin61:
	.cfi_lsda 3, .Lexception61
.Lfunc_begin61:
	.loc	20 321 0                # /usr/lib/gcc/x86_64-linux-gnu/4.8/../../../../include/c++/4.8/bits/stl_vector.h:321:0
# BB#0:                                 # %entry
	pushq	%r15
.Ltmp654:
	.cfi_def_cfa_offset 16
	pushq	%r14
.Ltmp655:
	.cfi_def_cfa_offset 24
	pushq	%r12
.Ltmp656:
	.cfi_def_cfa_offset 32
	pushq	%rbx
.Ltmp657:
	.cfi_def_cfa_offset 40
	subq	$88, %rsp
.Ltmp658:
	.cfi_def_cfa_offset 128
.Ltmp659:
	.cfi_offset %rbx, -40
.Ltmp660:
	.cfi_offset %r12, -32
.Ltmp661:
	.cfi_offset %r14, -24
.Ltmp662:
	.cfi_offset %r15, -16
	movq	%rdi, 80(%rsp)
	movq	%rsi, 72(%rsp)
	movq	%rdx, 64(%rsp)
	movq	80(%rsp), %rbx
	.file	55 "/usr/lib/gcc/x86_64-linux-gnu/4.8/../../../../include/c++/4.8/bits/vector.tcc"
	.loc	55 322 0 prologue_end   # /usr/lib/gcc/x86_64-linux-gnu/4.8/../../../../include/c++/4.8/bits/vector.tcc:322:0
.Ltmp663:
	movq	8(%rbx), %rax
	cmpq	16(%rbx), %rax
	je	.LBB61_2
# BB#1:                                 # %if.then
	.loc	55 324 0                # /usr/lib/gcc/x86_64-linux-gnu/4.8/../../../../include/c++/4.8/bits/vector.tcc:324:0
.Ltmp664:
	movq	8(%rbx), %rsi
	movq	%rbx, %rdi
	leaq	-8(%rsi), %rdx
	callq	_ZN9__gnu_cxx14__alloc_traitsISaIP12netlist_elemEE9constructIS2_EEvRS3_PS2_RKT_
	.loc	55 327 0                # /usr/lib/gcc/x86_64-linux-gnu/4.8/../../../../include/c++/4.8/bits/vector.tcc:327:0
	addq	$8, 8(%rbx)
	.loc	55 329 0                # /usr/lib/gcc/x86_64-linux-gnu/4.8/../../../../include/c++/4.8/bits/vector.tcc:329:0
	movq	64(%rsp), %rax
.Ltmp665:
	#DEBUG_VALUE: __x_copy <- [%rsp+$56]+$0
	movq	(%rax), %rax
	leaq	72(%rsp), %r14
	movq	%rax, 56(%rsp)
	.loc	55 331 0                # /usr/lib/gcc/x86_64-linux-gnu/4.8/../../../../include/c++/4.8/bits/vector.tcc:331:0
	movq	%r14, %rdi
	callq	_ZNK9__gnu_cxx17__normal_iteratorIPP12netlist_elemSt6vectorIS2_SaIS2_EEE4baseEv
	movq	(%rax), %rdi
	movq	8(%rbx), %rdx
	leaq	-16(%rdx), %rsi
	addq	$-8, %rdx
	callq	_ZSt13copy_backwardIPP12netlist_elemS2_ET0_T_S4_S3_
	.loc	55 335 0                # /usr/lib/gcc/x86_64-linux-gnu/4.8/../../../../include/c++/4.8/bits/vector.tcc:335:0
	movq	56(%rsp), %rbx
	movq	%r14, %rdi
	callq	_ZNK9__gnu_cxx17__normal_iteratorIPP12netlist_elemSt6vectorIS2_SaIS2_EEEdeEv
	movq	%rbx, (%rax)
	jmp	.LBB61_10
.Ltmp666:
.LBB61_2:                               # %if.else
	#DEBUG_VALUE: __len <- [%rsp+$48]+$0
	.loc	55 343 0                # /usr/lib/gcc/x86_64-linux-gnu/4.8/../../../../include/c++/4.8/bits/vector.tcc:343:0
	movq	%rbx, %rdi
	movl	$1, %esi
	movl	$.L.str7, %edx
	callq	_ZNKSt6vectorIP12netlist_elemSaIS1_EE12_M_check_lenEmPKc
	movq	%rax, 48(%rsp)
.Ltmp667:
	#DEBUG_VALUE: __elems_before <- [%rsp+$40]+$0
	.loc	55 344 0                # /usr/lib/gcc/x86_64-linux-gnu/4.8/../../../../include/c++/4.8/bits/vector.tcc:344:0
	movq	%rbx, %rdi
	callq	_ZNSt6vectorIP12netlist_elemSaIS1_EE5beginEv
	movq	%rax, 32(%rsp)
	leaq	72(%rsp), %rdi
	leaq	32(%rsp), %rsi
	callq	_ZN9__gnu_cxxmiIPP12netlist_elemSt6vectorIS2_SaIS2_EEEENS_17__normal_iteratorIT_T0_E15difference_typeERKSA_SD_
	movq	%rax, 40(%rsp)
	.loc	55 345 0                # /usr/lib/gcc/x86_64-linux-gnu/4.8/../../../../include/c++/4.8/bits/vector.tcc:345:0
	movq	48(%rsp), %rsi
.Ltmp668:
	#DEBUG_VALUE: __new_start <- [%rsp+$24]+$0
	movq	%rbx, %rdi
	callq	_ZNSt12_Vector_baseIP12netlist_elemSaIS1_EE11_M_allocateEm
	movq	%rax, 24(%rsp)
	.loc	55 346 0                # /usr/lib/gcc/x86_64-linux-gnu/4.8/../../../../include/c++/4.8/bits/vector.tcc:346:0
	movq	%rax, 16(%rsp)
.Ltmp669:
	#DEBUG_VALUE: __new_finish <- [%rsp+$16]+$0
	.loc	55 353 0                # /usr/lib/gcc/x86_64-linux-gnu/4.8/../../../../include/c++/4.8/bits/vector.tcc:353:0
	movq	40(%rsp), %rsi
	shlq	$3, %rsi
	addq	24(%rsp), %rsi
	movq	64(%rsp), %rdx
.Ltmp620:
	movq	%rbx, %rdi
	callq	_ZN9__gnu_cxx14__alloc_traitsISaIP12netlist_elemEE9constructIS2_EEvRS3_PS2_RKT_
.Ltmp621:
# BB#3:                                 # %invoke.cont
	.loc	55 360 0                # /usr/lib/gcc/x86_64-linux-gnu/4.8/../../../../include/c++/4.8/bits/vector.tcc:360:0
	movq	$0, 16(%rsp)
	.loc	55 363 0                # /usr/lib/gcc/x86_64-linux-gnu/4.8/../../../../include/c++/4.8/bits/vector.tcc:363:0
	movq	(%rbx), %r14
	.loc	55 364 0                # /usr/lib/gcc/x86_64-linux-gnu/4.8/../../../../include/c++/4.8/bits/vector.tcc:364:0
.Ltmp622:
	leaq	72(%rsp), %rdi
	callq	_ZNK9__gnu_cxx17__normal_iteratorIPP12netlist_elemSt6vectorIS2_SaIS2_EEE4baseEv
.Ltmp623:
# BB#4:                                 # %invoke.cont26
	movq	(%rax), %r15
	movq	24(%rsp), %r12
	.loc	55 365 0                # /usr/lib/gcc/x86_64-linux-gnu/4.8/../../../../include/c++/4.8/bits/vector.tcc:365:0
.Ltmp624:
	movq	%rbx, %rdi
	callq	_ZNSt12_Vector_baseIP12netlist_elemSaIS1_EE19_M_get_Tp_allocatorEv
.Ltmp625:
# BB#5:                                 # %invoke.cont28
.Ltmp626:
	movq	%r14, %rdi
	movq	%r15, %rsi
	movq	%r12, %rdx
	movq	%rax, %rcx
	callq	_ZSt34__uninitialized_move_if_noexcept_aIPP12netlist_elemS2_SaIS1_EET0_T_S5_S4_RT1_
.Ltmp627:
# BB#6:                                 # %invoke.cont30
	movq	%rax, 16(%rsp)
	.loc	55 367 0                # /usr/lib/gcc/x86_64-linux-gnu/4.8/../../../../include/c++/4.8/bits/vector.tcc:367:0
	addq	$8, %rax
	movq	%rax, 16(%rsp)
	.loc	55 371 0                # /usr/lib/gcc/x86_64-linux-gnu/4.8/../../../../include/c++/4.8/bits/vector.tcc:371:0
.Ltmp628:
	leaq	72(%rsp), %rdi
	callq	_ZNK9__gnu_cxx17__normal_iteratorIPP12netlist_elemSt6vectorIS2_SaIS2_EEE4baseEv
.Ltmp629:
# BB#7:                                 # %invoke.cont33
	movq	8(%rbx), %r14
	movq	(%rax), %r12
	movq	16(%rsp), %r15
	.loc	55 372 0                # /usr/lib/gcc/x86_64-linux-gnu/4.8/../../../../include/c++/4.8/bits/vector.tcc:372:0
.Ltmp630:
	movq	%rbx, %rdi
	callq	_ZNSt12_Vector_baseIP12netlist_elemSaIS1_EE19_M_get_Tp_allocatorEv
.Ltmp631:
# BB#8:                                 # %invoke.cont37
.Ltmp632:
	movq	%r12, %rdi
	movq	%r14, %rsi
	movq	%r15, %rdx
	movq	%rax, %rcx
	callq	_ZSt34__uninitialized_move_if_noexcept_aIPP12netlist_elemS2_SaIS1_EET0_T_S5_S4_RT1_
.Ltmp633:
# BB#9:                                 # %try.cont
	movq	%rax, 16(%rsp)
.Ltmp670:
	.loc	55 384 0                # /usr/lib/gcc/x86_64-linux-gnu/4.8/../../../../include/c++/4.8/bits/vector.tcc:384:0
	movq	(%rbx), %r14
	movq	8(%rbx), %r15
	.loc	55 385 0                # /usr/lib/gcc/x86_64-linux-gnu/4.8/../../../../include/c++/4.8/bits/vector.tcc:385:0
	movq	%rbx, %rdi
	callq	_ZNSt12_Vector_baseIP12netlist_elemSaIS1_EE19_M_get_Tp_allocatorEv
	movq	%r14, %rdi
	movq	%r15, %rsi
	movq	%rax, %rdx
	callq	_ZSt8_DestroyIPP12netlist_elemS1_EvT_S3_RSaIT0_E
	.loc	55 386 0                # /usr/lib/gcc/x86_64-linux-gnu/4.8/../../../../include/c++/4.8/bits/vector.tcc:386:0
	movq	(%rbx), %rsi
	movq	16(%rbx), %rdx
	subq	%rsi, %rdx
	sarq	$3, %rdx
	movq	%rbx, %rdi
	callq	_ZNSt12_Vector_baseIP12netlist_elemSaIS1_EE13_M_deallocateEPS1_m
	.loc	55 389 0                # /usr/lib/gcc/x86_64-linux-gnu/4.8/../../../../include/c++/4.8/bits/vector.tcc:389:0
	movq	24(%rsp), %rax
	movq	%rax, (%rbx)
	.loc	55 390 0                # /usr/lib/gcc/x86_64-linux-gnu/4.8/../../../../include/c++/4.8/bits/vector.tcc:390:0
	movq	16(%rsp), %rax
	movq	%rax, 8(%rbx)
	.loc	55 391 0                # /usr/lib/gcc/x86_64-linux-gnu/4.8/../../../../include/c++/4.8/bits/vector.tcc:391:0
	movq	48(%rsp), %rax
	shlq	$3, %rax
	addq	24(%rsp), %rax
	movq	%rax, 16(%rbx)
.Ltmp671:
.LBB61_10:                              # %if.end70
	.loc	55 393 0                # /usr/lib/gcc/x86_64-linux-gnu/4.8/../../../../include/c++/4.8/bits/vector.tcc:393:0
	addq	$88, %rsp
	popq	%rbx
	popq	%r12
	popq	%r14
	popq	%r15
	ret
.LBB61_11:                              # %catch
.Ltmp634:
	.loc	55 353 0                # /usr/lib/gcc/x86_64-linux-gnu/4.8/../../../../include/c++/4.8/bits/vector.tcc:353:0
.Ltmp672:
	movq	%rax, 8(%rsp)
	movl	%edx, 4(%rsp)
	.loc	55 373 0                # /usr/lib/gcc/x86_64-linux-gnu/4.8/../../../../include/c++/4.8/bits/vector.tcc:373:0
	movq	8(%rsp), %rdi
	callq	__cxa_begin_catch
.Ltmp673:
	.loc	55 376 0                # /usr/lib/gcc/x86_64-linux-gnu/4.8/../../../../include/c++/4.8/bits/vector.tcc:376:0
	cmpq	$0, 16(%rsp)
	je	.LBB61_12
# BB#13:                                # %if.else46
	.loc	55 380 0                # /usr/lib/gcc/x86_64-linux-gnu/4.8/../../../../include/c++/4.8/bits/vector.tcc:380:0
	movq	16(%rsp), %r14
	movq	24(%rsp), %r15
.Ltmp637:
	movq	%rbx, %rdi
	callq	_ZNSt12_Vector_baseIP12netlist_elemSaIS1_EE19_M_get_Tp_allocatorEv
.Ltmp638:
# BB#14:                                # %invoke.cont47
.Ltmp639:
	movq	%r15, %rdi
	movq	%r14, %rsi
	movq	%rax, %rdx
	callq	_ZSt8_DestroyIPP12netlist_elemS1_EvT_S3_RSaIT0_E
.Ltmp640:
	jmp	.LBB61_15
.LBB61_12:                              # %if.then41
	.loc	55 377 0                # /usr/lib/gcc/x86_64-linux-gnu/4.8/../../../../include/c++/4.8/bits/vector.tcc:377:0
	movq	40(%rsp), %rax
	movq	24(%rsp), %rcx
	leaq	(%rcx,%rax,8), %rsi
.Ltmp635:
	movq	%rbx, %rdi
	callq	_ZN9__gnu_cxx14__alloc_traitsISaIP12netlist_elemEE7destroyERS3_PS2_
.Ltmp636:
.LBB61_15:                              # %if.end
	.loc	55 381 0                # /usr/lib/gcc/x86_64-linux-gnu/4.8/../../../../include/c++/4.8/bits/vector.tcc:381:0
	movq	48(%rsp), %rdx
	movq	24(%rsp), %rsi
.Ltmp641:
	movq	%rbx, %rdi
	callq	_ZNSt12_Vector_baseIP12netlist_elemSaIS1_EE13_M_deallocateEPS1_m
.Ltmp642:
# BB#16:                                # %invoke.cont50
	.loc	55 382 0                # /usr/lib/gcc/x86_64-linux-gnu/4.8/../../../../include/c++/4.8/bits/vector.tcc:382:0
.Ltmp643:
	callq	__cxa_rethrow
.Ltmp644:
# BB#20:                                # %unreachable
.LBB61_17:                              # %lpad44
.Ltmp645:
	.loc	55 377 0                # /usr/lib/gcc/x86_64-linux-gnu/4.8/../../../../include/c++/4.8/bits/vector.tcc:377:0
	movq	%rax, 8(%rsp)
	movl	%edx, 4(%rsp)
	.loc	55 383 0                # /usr/lib/gcc/x86_64-linux-gnu/4.8/../../../../include/c++/4.8/bits/vector.tcc:383:0
.Ltmp646:
	callq	__cxa_end_catch
.Ltmp647:
# BB#18:                                # %eh.resume
	movq	8(%rsp), %rdi
	callq	_Unwind_Resume
.LBB61_19:                              # %terminate.lpad
.Ltmp648:
	callq	_ZSt9terminatev
.Ltmp674:
.Ltmp675:
	.size	_ZNSt6vectorIP12netlist_elemSaIS1_EE13_M_insert_auxEN9__gnu_cxx17__normal_iteratorIPS1_S3_EERKS1_, .Ltmp675-_ZNSt6vectorIP12netlist_elemSaIS1_EE13_M_insert_auxEN9__gnu_cxx17__normal_iteratorIPS1_S3_EERKS1_
.Lfunc_end61:
	.cfi_endproc
.Leh_func_end61:
	.section	.gcc_except_table,"a",@progbits
	.align	4
GCC_except_table61:
.Lexception61:
	.byte	255                     # @LPStart Encoding = omit
	.byte	3                       # @TType Encoding = udata4
	.asciz	 "\326\200\200"         # @TType base offset
	.byte	3                       # Call site Encoding = udata4
	.byte	78                      # Call site table length
.Lset94 = .Leh_func_begin61-.Leh_func_begin61 # >> Call Site 1 <<
	.long	.Lset94
.Lset95 = .Ltmp620-.Leh_func_begin61    #   Call between .Leh_func_begin61 and .Ltmp620
	.long	.Lset95
	.long	0                       #     has no landing pad
	.byte	0                       #   On action: cleanup
.Lset96 = .Ltmp620-.Leh_func_begin61    # >> Call Site 2 <<
	.long	.Lset96
.Lset97 = .Ltmp633-.Ltmp620             #   Call between .Ltmp620 and .Ltmp633
	.long	.Lset97
.Lset98 = .Ltmp634-.Leh_func_begin61    #     jumps to .Ltmp634
	.long	.Lset98
	.byte	1                       #   On action: 1
.Lset99 = .Ltmp633-.Leh_func_begin61    # >> Call Site 3 <<
	.long	.Lset99
.Lset100 = .Ltmp637-.Ltmp633            #   Call between .Ltmp633 and .Ltmp637
	.long	.Lset100
	.long	0                       #     has no landing pad
	.byte	0                       #   On action: cleanup
.Lset101 = .Ltmp637-.Leh_func_begin61   # >> Call Site 4 <<
	.long	.Lset101
.Lset102 = .Ltmp644-.Ltmp637            #   Call between .Ltmp637 and .Ltmp644
	.long	.Lset102
.Lset103 = .Ltmp645-.Leh_func_begin61   #     jumps to .Ltmp645
	.long	.Lset103
	.byte	0                       #   On action: cleanup
.Lset104 = .Ltmp646-.Leh_func_begin61   # >> Call Site 5 <<
	.long	.Lset104
.Lset105 = .Ltmp647-.Ltmp646            #   Call between .Ltmp646 and .Ltmp647
	.long	.Lset105
.Lset106 = .Ltmp648-.Leh_func_begin61   #     jumps to .Ltmp648
	.long	.Lset106
	.byte	1                       #   On action: 1
.Lset107 = .Ltmp647-.Leh_func_begin61   # >> Call Site 6 <<
	.long	.Lset107
.Lset108 = .Leh_func_end61-.Ltmp647     #   Call between .Ltmp647 and .Leh_func_end61
	.long	.Lset108
	.long	0                       #     has no landing pad
	.byte	0                       #   On action: cleanup
	.byte	1                       # >> Action Record 1 <<
                                        #   Catch TypeInfo 1
	.byte	0                       #   No further actions
                                        # >> Catch TypeInfos <<
	.long	0                       # TypeInfo 1
	.align	4

	.section	.text._ZNSt6vectorIP12netlist_elemSaIS1_EE3endEv,"axG",@progbits,_ZNSt6vectorIP12netlist_elemSaIS1_EE3endEv,comdat
	.weak	_ZNSt6vectorIP12netlist_elemSaIS1_EE3endEv
	.align	16, 0x90
	.type	_ZNSt6vectorIP12netlist_elemSaIS1_EE3endEv,@function
_ZNSt6vectorIP12netlist_elemSaIS1_EE3endEv: # @_ZNSt6vectorIP12netlist_elemSaIS1_EE3endEv
	.cfi_startproc
.Lfunc_begin62:
	.loc	20 557 0                # /usr/lib/gcc/x86_64-linux-gnu/4.8/../../../../include/c++/4.8/bits/stl_vector.h:557:0
# BB#0:                                 # %entry
	subq	$24, %rsp
.Ltmp677:
	.cfi_def_cfa_offset 32
	movq	%rdi, 8(%rsp)
	.loc	20 557 0 prologue_end   # /usr/lib/gcc/x86_64-linux-gnu/4.8/../../../../include/c++/4.8/bits/stl_vector.h:557:0
.Ltmp678:
	leaq	8(%rdi), %rsi
	leaq	16(%rsp), %rdi
	callq	_ZN9__gnu_cxx17__normal_iteratorIPP12netlist_elemSt6vectorIS2_SaIS2_EEEC1ERKS3_
	movq	16(%rsp), %rax
	addq	$24, %rsp
	ret
.Ltmp679:
.Ltmp680:
	.size	_ZNSt6vectorIP12netlist_elemSaIS1_EE3endEv, .Ltmp680-_ZNSt6vectorIP12netlist_elemSaIS1_EE3endEv
.Lfunc_end62:
	.cfi_endproc

	.section	.text._ZN9__gnu_cxx17__normal_iteratorIPP12netlist_elemSt6vectorIS2_SaIS2_EEEC1ERKS3_,"axG",@progbits,_ZN9__gnu_cxx17__normal_iteratorIPP12netlist_elemSt6vectorIS2_SaIS2_EEEC1ERKS3_,comdat
	.weak	_ZN9__gnu_cxx17__normal_iteratorIPP12netlist_elemSt6vectorIS2_SaIS2_EEEC1ERKS3_
	.align	16, 0x90
	.type	_ZN9__gnu_cxx17__normal_iteratorIPP12netlist_elemSt6vectorIS2_SaIS2_EEEC1ERKS3_,@function
_ZN9__gnu_cxx17__normal_iteratorIPP12netlist_elemSt6vectorIS2_SaIS2_EEEC1ERKS3_: # @_ZN9__gnu_cxx17__normal_iteratorIPP12netlist_elemSt6vectorIS2_SaIS2_EEEC1ERKS3_
	.cfi_startproc
.Lfunc_begin63:
	.loc	11 726 0                # /usr/lib/gcc/x86_64-linux-gnu/4.8/../../../../include/c++/4.8/bits/stl_iterator.h:726:0
# BB#0:                                 # %entry
	subq	$24, %rsp
.Ltmp682:
	.cfi_def_cfa_offset 32
	movq	%rdi, 16(%rsp)
	movq	%rsi, 8(%rsp)
	movq	16(%rsp), %rdi
	.loc	11 726 0 prologue_end   # /usr/lib/gcc/x86_64-linux-gnu/4.8/../../../../include/c++/4.8/bits/stl_iterator.h:726:0
.Ltmp683:
	callq	_ZN9__gnu_cxx17__normal_iteratorIPP12netlist_elemSt6vectorIS2_SaIS2_EEEC2ERKS3_
	addq	$24, %rsp
	ret
.Ltmp684:
.Ltmp685:
	.size	_ZN9__gnu_cxx17__normal_iteratorIPP12netlist_elemSt6vectorIS2_SaIS2_EEEC1ERKS3_, .Ltmp685-_ZN9__gnu_cxx17__normal_iteratorIPP12netlist_elemSt6vectorIS2_SaIS2_EEEC1ERKS3_
.Lfunc_end63:
	.cfi_endproc

	.section	.text._ZN9__gnu_cxx17__normal_iteratorIPP12netlist_elemSt6vectorIS2_SaIS2_EEEC2ERKS3_,"axG",@progbits,_ZN9__gnu_cxx17__normal_iteratorIPP12netlist_elemSt6vectorIS2_SaIS2_EEEC2ERKS3_,comdat
	.weak	_ZN9__gnu_cxx17__normal_iteratorIPP12netlist_elemSt6vectorIS2_SaIS2_EEEC2ERKS3_
	.align	16, 0x90
	.type	_ZN9__gnu_cxx17__normal_iteratorIPP12netlist_elemSt6vectorIS2_SaIS2_EEEC2ERKS3_,@function
_ZN9__gnu_cxx17__normal_iteratorIPP12netlist_elemSt6vectorIS2_SaIS2_EEEC2ERKS3_: # @_ZN9__gnu_cxx17__normal_iteratorIPP12netlist_elemSt6vectorIS2_SaIS2_EEEC2ERKS3_
	.cfi_startproc
.Lfunc_begin64:
	.loc	11 726 0                # /usr/lib/gcc/x86_64-linux-gnu/4.8/../../../../include/c++/4.8/bits/stl_iterator.h:726:0
# BB#0:                                 # %entry
	movq	%rdi, -8(%rsp)
	movq	%rsi, -16(%rsp)
	.loc	11 726 0 prologue_end   # /usr/lib/gcc/x86_64-linux-gnu/4.8/../../../../include/c++/4.8/bits/stl_iterator.h:726:0
.Ltmp686:
	movq	(%rsi), %rax
	movq	-8(%rsp), %rcx
	movq	%rax, (%rcx)
	.loc	11 726 0                # /usr/lib/gcc/x86_64-linux-gnu/4.8/../../../../include/c++/4.8/bits/stl_iterator.h:726:0
.Ltmp687:
	ret
.Ltmp688:
.Ltmp689:
	.size	_ZN9__gnu_cxx17__normal_iteratorIPP12netlist_elemSt6vectorIS2_SaIS2_EEEC2ERKS3_, .Ltmp689-_ZN9__gnu_cxx17__normal_iteratorIPP12netlist_elemSt6vectorIS2_SaIS2_EEEC2ERKS3_
.Lfunc_end64:
	.cfi_endproc

	.section	.text._ZSt13copy_backwardIPP12netlist_elemS2_ET0_T_S4_S3_,"axG",@progbits,_ZSt13copy_backwardIPP12netlist_elemS2_ET0_T_S4_S3_,comdat
	.weak	_ZSt13copy_backwardIPP12netlist_elemS2_ET0_T_S4_S3_
	.align	16, 0x90
	.type	_ZSt13copy_backwardIPP12netlist_elemS2_ET0_T_S4_S3_,@function
_ZSt13copy_backwardIPP12netlist_elemS2_ET0_T_S4_S3_: # @_ZSt13copy_backwardIPP12netlist_elemS2_ET0_T_S4_S3_
	.cfi_startproc
.Lfunc_begin65:
	.loc	32 620 0                # /usr/lib/gcc/x86_64-linux-gnu/4.8/../../../../include/c++/4.8/bits/stl_algobase.h:620:0
# BB#0:                                 # %entry
	pushq	%rbx
.Ltmp692:
	.cfi_def_cfa_offset 16
	subq	$32, %rsp
.Ltmp693:
	.cfi_def_cfa_offset 48
.Ltmp694:
	.cfi_offset %rbx, -16
	movq	%rdi, 24(%rsp)
	movq	%rsi, 16(%rsp)
	movq	%rdx, 8(%rsp)
	.loc	32 630 0 prologue_end   # /usr/lib/gcc/x86_64-linux-gnu/4.8/../../../../include/c++/4.8/bits/stl_algobase.h:630:0
.Ltmp695:
	movq	24(%rsp), %rdi
	callq	_ZSt12__miter_baseIPP12netlist_elemENSt11_Miter_baseIT_E13iterator_typeES4_
	movq	%rax, %rbx
	movq	16(%rsp), %rdi
	callq	_ZSt12__miter_baseIPP12netlist_elemENSt11_Miter_baseIT_E13iterator_typeES4_
	movq	8(%rsp), %rdx
	movq	%rbx, %rdi
	movq	%rax, %rsi
	callq	_ZSt23__copy_move_backward_a2ILb0EPP12netlist_elemS2_ET1_T0_S4_S3_
	addq	$32, %rsp
	popq	%rbx
	ret
.Ltmp696:
.Ltmp697:
	.size	_ZSt13copy_backwardIPP12netlist_elemS2_ET0_T_S4_S3_, .Ltmp697-_ZSt13copy_backwardIPP12netlist_elemS2_ET0_T_S4_S3_
.Lfunc_end65:
	.cfi_endproc

	.section	.text._ZNK9__gnu_cxx17__normal_iteratorIPP12netlist_elemSt6vectorIS2_SaIS2_EEE4baseEv,"axG",@progbits,_ZNK9__gnu_cxx17__normal_iteratorIPP12netlist_elemSt6vectorIS2_SaIS2_EEE4baseEv,comdat
	.weak	_ZNK9__gnu_cxx17__normal_iteratorIPP12netlist_elemSt6vectorIS2_SaIS2_EEE4baseEv
	.align	16, 0x90
	.type	_ZNK9__gnu_cxx17__normal_iteratorIPP12netlist_elemSt6vectorIS2_SaIS2_EEE4baseEv,@function
_ZNK9__gnu_cxx17__normal_iteratorIPP12netlist_elemSt6vectorIS2_SaIS2_EEE4baseEv: # @_ZNK9__gnu_cxx17__normal_iteratorIPP12netlist_elemSt6vectorIS2_SaIS2_EEE4baseEv
	.cfi_startproc
.Lfunc_begin66:
	.loc	11 791 0                # /usr/lib/gcc/x86_64-linux-gnu/4.8/../../../../include/c++/4.8/bits/stl_iterator.h:791:0
# BB#0:                                 # %entry
	movq	%rdi, -8(%rsp)
	.loc	11 791 0 prologue_end   # /usr/lib/gcc/x86_64-linux-gnu/4.8/../../../../include/c++/4.8/bits/stl_iterator.h:791:0
.Ltmp698:
	movq	%rdi, %rax
	ret
.Ltmp699:
.Ltmp700:
	.size	_ZNK9__gnu_cxx17__normal_iteratorIPP12netlist_elemSt6vectorIS2_SaIS2_EEE4baseEv, .Ltmp700-_ZNK9__gnu_cxx17__normal_iteratorIPP12netlist_elemSt6vectorIS2_SaIS2_EEE4baseEv
.Lfunc_end66:
	.cfi_endproc

	.section	.text._ZNK9__gnu_cxx17__normal_iteratorIPP12netlist_elemSt6vectorIS2_SaIS2_EEEdeEv,"axG",@progbits,_ZNK9__gnu_cxx17__normal_iteratorIPP12netlist_elemSt6vectorIS2_SaIS2_EEEdeEv,comdat
	.weak	_ZNK9__gnu_cxx17__normal_iteratorIPP12netlist_elemSt6vectorIS2_SaIS2_EEEdeEv
	.align	16, 0x90
	.type	_ZNK9__gnu_cxx17__normal_iteratorIPP12netlist_elemSt6vectorIS2_SaIS2_EEEdeEv,@function
_ZNK9__gnu_cxx17__normal_iteratorIPP12netlist_elemSt6vectorIS2_SaIS2_EEEdeEv: # @_ZNK9__gnu_cxx17__normal_iteratorIPP12netlist_elemSt6vectorIS2_SaIS2_EEEdeEv
	.cfi_startproc
.Lfunc_begin67:
	.loc	11 739 0                # /usr/lib/gcc/x86_64-linux-gnu/4.8/../../../../include/c++/4.8/bits/stl_iterator.h:739:0
# BB#0:                                 # %entry
	movq	%rdi, -8(%rsp)
	.loc	11 739 0 prologue_end   # /usr/lib/gcc/x86_64-linux-gnu/4.8/../../../../include/c++/4.8/bits/stl_iterator.h:739:0
.Ltmp701:
	movq	(%rdi), %rax
	ret
.Ltmp702:
.Ltmp703:
	.size	_ZNK9__gnu_cxx17__normal_iteratorIPP12netlist_elemSt6vectorIS2_SaIS2_EEEdeEv, .Ltmp703-_ZNK9__gnu_cxx17__normal_iteratorIPP12netlist_elemSt6vectorIS2_SaIS2_EEEdeEv
.Lfunc_end67:
	.cfi_endproc

	.section	.text._ZNKSt6vectorIP12netlist_elemSaIS1_EE12_M_check_lenEmPKc,"axG",@progbits,_ZNKSt6vectorIP12netlist_elemSaIS1_EE12_M_check_lenEmPKc,comdat
	.weak	_ZNKSt6vectorIP12netlist_elemSaIS1_EE12_M_check_lenEmPKc
	.align	16, 0x90
	.type	_ZNKSt6vectorIP12netlist_elemSaIS1_EE12_M_check_lenEmPKc,@function
_ZNKSt6vectorIP12netlist_elemSaIS1_EE12_M_check_lenEmPKc: # @_ZNKSt6vectorIP12netlist_elemSaIS1_EE12_M_check_lenEmPKc
	.cfi_startproc
.Lfunc_begin68:
	.loc	20 1337 0               # /usr/lib/gcc/x86_64-linux-gnu/4.8/../../../../include/c++/4.8/bits/stl_vector.h:1337:0
# BB#0:                                 # %entry
	pushq	%r14
.Ltmp707:
	.cfi_def_cfa_offset 16
	pushq	%rbx
.Ltmp708:
	.cfi_def_cfa_offset 24
	subq	$40, %rsp
.Ltmp709:
	.cfi_def_cfa_offset 64
.Ltmp710:
	.cfi_offset %rbx, -24
.Ltmp711:
	.cfi_offset %r14, -16
	movq	%rdi, 32(%rsp)
	movq	%rsi, 24(%rsp)
	movq	%rdx, 16(%rsp)
	movq	32(%rsp), %r14
	.loc	20 1338 0 prologue_end  # /usr/lib/gcc/x86_64-linux-gnu/4.8/../../../../include/c++/4.8/bits/stl_vector.h:1338:0
.Ltmp712:
	movq	%r14, %rdi
	callq	_ZNKSt6vectorIP12netlist_elemSaIS1_EE8max_sizeEv
	movq	%rax, %rbx
	movq	%r14, %rdi
	callq	_ZNKSt6vectorIP12netlist_elemSaIS1_EE4sizeEv
	subq	%rax, %rbx
	cmpq	24(%rsp), %rbx
	jb	.LBB68_6
# BB#1:                                 # %if.end
.Ltmp713:
	#DEBUG_VALUE: __len <- [%rsp+$8]+$0
	.loc	20 1341 0               # /usr/lib/gcc/x86_64-linux-gnu/4.8/../../../../include/c++/4.8/bits/stl_vector.h:1341:0
	movq	%r14, %rdi
	callq	_ZNKSt6vectorIP12netlist_elemSaIS1_EE4sizeEv
	movq	%rax, %rbx
	movq	%r14, %rdi
	callq	_ZNKSt6vectorIP12netlist_elemSaIS1_EE4sizeEv
	movq	%rax, (%rsp)
	leaq	(%rsp), %rdi
	leaq	24(%rsp), %rsi
	callq	_ZSt3maxImERKT_S2_S2_
	addq	(%rax), %rbx
	movq	%rbx, 8(%rsp)
	.loc	20 1342 0               # /usr/lib/gcc/x86_64-linux-gnu/4.8/../../../../include/c++/4.8/bits/stl_vector.h:1342:0
	movq	%r14, %rdi
	callq	_ZNKSt6vectorIP12netlist_elemSaIS1_EE4sizeEv
	.loc	20 1341 0               # /usr/lib/gcc/x86_64-linux-gnu/4.8/../../../../include/c++/4.8/bits/stl_vector.h:1341:0
	cmpq	%rax, %rbx
	jb	.LBB68_3
# BB#2:                                 # %lor.lhs.false
	.loc	20 1342 0               # /usr/lib/gcc/x86_64-linux-gnu/4.8/../../../../include/c++/4.8/bits/stl_vector.h:1342:0
	movq	8(%rsp), %rbx
	movq	%r14, %rdi
	callq	_ZNKSt6vectorIP12netlist_elemSaIS1_EE8max_sizeEv
	cmpq	%rax, %rbx
	jbe	.LBB68_4
.LBB68_3:                               # %cond.true
	movq	%r14, %rdi
	callq	_ZNKSt6vectorIP12netlist_elemSaIS1_EE8max_sizeEv
	jmp	.LBB68_5
.LBB68_4:                               # %cond.false
	movq	8(%rsp), %rax
.LBB68_5:                               # %cond.end
	addq	$40, %rsp
	popq	%rbx
	popq	%r14
	ret
.LBB68_6:                               # %if.then
	.loc	20 1339 0               # /usr/lib/gcc/x86_64-linux-gnu/4.8/../../../../include/c++/4.8/bits/stl_vector.h:1339:0
	movq	16(%rsp), %rdi
	callq	_ZSt20__throw_length_errorPKc
.Ltmp714:
.Ltmp715:
	.size	_ZNKSt6vectorIP12netlist_elemSaIS1_EE12_M_check_lenEmPKc, .Ltmp715-_ZNKSt6vectorIP12netlist_elemSaIS1_EE12_M_check_lenEmPKc
.Lfunc_end68:
	.cfi_endproc

	.section	.text._ZN9__gnu_cxxmiIPP12netlist_elemSt6vectorIS2_SaIS2_EEEENS_17__normal_iteratorIT_T0_E15difference_typeERKSA_SD_,"axG",@progbits,_ZN9__gnu_cxxmiIPP12netlist_elemSt6vectorIS2_SaIS2_EEEENS_17__normal_iteratorIT_T0_E15difference_typeERKSA_SD_,comdat
	.weak	_ZN9__gnu_cxxmiIPP12netlist_elemSt6vectorIS2_SaIS2_EEEENS_17__normal_iteratorIT_T0_E15difference_typeERKSA_SD_
	.align	16, 0x90
	.type	_ZN9__gnu_cxxmiIPP12netlist_elemSt6vectorIS2_SaIS2_EEEENS_17__normal_iteratorIT_T0_E15difference_typeERKSA_SD_,@function
_ZN9__gnu_cxxmiIPP12netlist_elemSt6vectorIS2_SaIS2_EEEENS_17__normal_iteratorIT_T0_E15difference_typeERKSA_SD_: # @_ZN9__gnu_cxxmiIPP12netlist_elemSt6vectorIS2_SaIS2_EEEENS_17__normal_iteratorIT_T0_E15difference_typeERKSA_SD_
	.cfi_startproc
.Lfunc_begin69:
	.loc	11 898 0                # /usr/lib/gcc/x86_64-linux-gnu/4.8/../../../../include/c++/4.8/bits/stl_iterator.h:898:0
# BB#0:                                 # %entry
	pushq	%rbx
.Ltmp718:
	.cfi_def_cfa_offset 16
	subq	$16, %rsp
.Ltmp719:
	.cfi_def_cfa_offset 32
.Ltmp720:
	.cfi_offset %rbx, -16
	movq	%rdi, 8(%rsp)
	movq	%rsi, (%rsp)
	.loc	11 898 0 prologue_end   # /usr/lib/gcc/x86_64-linux-gnu/4.8/../../../../include/c++/4.8/bits/stl_iterator.h:898:0
.Ltmp721:
	movq	8(%rsp), %rdi
	callq	_ZNK9__gnu_cxx17__normal_iteratorIPP12netlist_elemSt6vectorIS2_SaIS2_EEE4baseEv
	movq	(%rax), %rbx
	movq	(%rsp), %rdi
	callq	_ZNK9__gnu_cxx17__normal_iteratorIPP12netlist_elemSt6vectorIS2_SaIS2_EEE4baseEv
	subq	(%rax), %rbx
	sarq	$3, %rbx
	movq	%rbx, %rax
	addq	$16, %rsp
	popq	%rbx
	ret
.Ltmp722:
.Ltmp723:
	.size	_ZN9__gnu_cxxmiIPP12netlist_elemSt6vectorIS2_SaIS2_EEEENS_17__normal_iteratorIT_T0_E15difference_typeERKSA_SD_, .Ltmp723-_ZN9__gnu_cxxmiIPP12netlist_elemSt6vectorIS2_SaIS2_EEEENS_17__normal_iteratorIT_T0_E15difference_typeERKSA_SD_
.Lfunc_end69:
	.cfi_endproc

	.section	.text._ZNSt6vectorIP12netlist_elemSaIS1_EE5beginEv,"axG",@progbits,_ZNSt6vectorIP12netlist_elemSaIS1_EE5beginEv,comdat
	.weak	_ZNSt6vectorIP12netlist_elemSaIS1_EE5beginEv
	.align	16, 0x90
	.type	_ZNSt6vectorIP12netlist_elemSaIS1_EE5beginEv,@function
_ZNSt6vectorIP12netlist_elemSaIS1_EE5beginEv: # @_ZNSt6vectorIP12netlist_elemSaIS1_EE5beginEv
	.cfi_startproc
.Lfunc_begin70:
	.loc	20 539 0                # /usr/lib/gcc/x86_64-linux-gnu/4.8/../../../../include/c++/4.8/bits/stl_vector.h:539:0
# BB#0:                                 # %entry
	subq	$24, %rsp
.Ltmp725:
	.cfi_def_cfa_offset 32
	movq	%rdi, %rax
	movq	%rax, 8(%rsp)
	leaq	16(%rsp), %rdi
	.loc	20 539 0 prologue_end   # /usr/lib/gcc/x86_64-linux-gnu/4.8/../../../../include/c++/4.8/bits/stl_vector.h:539:0
.Ltmp726:
	movq	%rax, %rsi
	callq	_ZN9__gnu_cxx17__normal_iteratorIPP12netlist_elemSt6vectorIS2_SaIS2_EEEC1ERKS3_
	movq	16(%rsp), %rax
	addq	$24, %rsp
	ret
.Ltmp727:
.Ltmp728:
	.size	_ZNSt6vectorIP12netlist_elemSaIS1_EE5beginEv, .Ltmp728-_ZNSt6vectorIP12netlist_elemSaIS1_EE5beginEv
.Lfunc_end70:
	.cfi_endproc

	.section	.text._ZNSt12_Vector_baseIP12netlist_elemSaIS1_EE11_M_allocateEm,"axG",@progbits,_ZNSt12_Vector_baseIP12netlist_elemSaIS1_EE11_M_allocateEm,comdat
	.weak	_ZNSt12_Vector_baseIP12netlist_elemSaIS1_EE11_M_allocateEm
	.align	16, 0x90
	.type	_ZNSt12_Vector_baseIP12netlist_elemSaIS1_EE11_M_allocateEm,@function
_ZNSt12_Vector_baseIP12netlist_elemSaIS1_EE11_M_allocateEm: # @_ZNSt12_Vector_baseIP12netlist_elemSaIS1_EE11_M_allocateEm
	.cfi_startproc
.Lfunc_begin71:
	.loc	20 168 0                # /usr/lib/gcc/x86_64-linux-gnu/4.8/../../../../include/c++/4.8/bits/stl_vector.h:168:0
# BB#0:                                 # %entry
	subq	$24, %rsp
.Ltmp730:
	.cfi_def_cfa_offset 32
	movq	%rdi, 16(%rsp)
	movq	%rsi, 8(%rsp)
	testq	%rsi, %rsi
	je	.LBB71_1
# BB#2:                                 # %cond.true
	movq	16(%rsp), %rdi
	.loc	20 168 0 prologue_end   # /usr/lib/gcc/x86_64-linux-gnu/4.8/../../../../include/c++/4.8/bits/stl_vector.h:168:0
.Ltmp731:
	movq	8(%rsp), %rsi
	xorl	%edx, %edx
	callq	_ZN9__gnu_cxx13new_allocatorIP12netlist_elemE8allocateEmPKv
	addq	$24, %rsp
	ret
.LBB71_1:
	xorl	%eax, %eax
	addq	$24, %rsp
	ret
.Ltmp732:
.Ltmp733:
	.size	_ZNSt12_Vector_baseIP12netlist_elemSaIS1_EE11_M_allocateEm, .Ltmp733-_ZNSt12_Vector_baseIP12netlist_elemSaIS1_EE11_M_allocateEm
.Lfunc_end71:
	.cfi_endproc

	.section	.text._ZSt34__uninitialized_move_if_noexcept_aIPP12netlist_elemS2_SaIS1_EET0_T_S5_S4_RT1_,"axG",@progbits,_ZSt34__uninitialized_move_if_noexcept_aIPP12netlist_elemS2_SaIS1_EET0_T_S5_S4_RT1_,comdat
	.weak	_ZSt34__uninitialized_move_if_noexcept_aIPP12netlist_elemS2_SaIS1_EET0_T_S5_S4_RT1_
	.align	16, 0x90
	.type	_ZSt34__uninitialized_move_if_noexcept_aIPP12netlist_elemS2_SaIS1_EET0_T_S5_S4_RT1_,@function
_ZSt34__uninitialized_move_if_noexcept_aIPP12netlist_elemS2_SaIS1_EET0_T_S5_S4_RT1_: # @_ZSt34__uninitialized_move_if_noexcept_aIPP12netlist_elemS2_SaIS1_EET0_T_S5_S4_RT1_
	.cfi_startproc
.Lfunc_begin72:
	.loc	31 278 0                # /usr/lib/gcc/x86_64-linux-gnu/4.8/../../../../include/c++/4.8/bits/stl_uninitialized.h:278:0
# BB#0:                                 # %entry
	subq	$40, %rsp
.Ltmp735:
	.cfi_def_cfa_offset 48
	movq	%rdi, 32(%rsp)
	movq	%rsi, 24(%rsp)
	movq	%rdx, 16(%rsp)
	movq	%rcx, 8(%rsp)
	.loc	31 279 0 prologue_end   # /usr/lib/gcc/x86_64-linux-gnu/4.8/../../../../include/c++/4.8/bits/stl_uninitialized.h:279:0
.Ltmp736:
	movq	16(%rsp), %rdx
	movq	24(%rsp), %rsi
	movq	32(%rsp), %rdi
	callq	_ZSt22__uninitialized_copy_aIPP12netlist_elemS2_S1_ET0_T_S4_S3_RSaIT1_E
	addq	$40, %rsp
	ret
.Ltmp737:
.Ltmp738:
	.size	_ZSt34__uninitialized_move_if_noexcept_aIPP12netlist_elemS2_SaIS1_EET0_T_S5_S4_RT1_, .Ltmp738-_ZSt34__uninitialized_move_if_noexcept_aIPP12netlist_elemS2_SaIS1_EET0_T_S5_S4_RT1_
.Lfunc_end72:
	.cfi_endproc

	.section	.text._ZNSt12_Vector_baseIP12netlist_elemSaIS1_EE19_M_get_Tp_allocatorEv,"axG",@progbits,_ZNSt12_Vector_baseIP12netlist_elemSaIS1_EE19_M_get_Tp_allocatorEv,comdat
	.weak	_ZNSt12_Vector_baseIP12netlist_elemSaIS1_EE19_M_get_Tp_allocatorEv
	.align	16, 0x90
	.type	_ZNSt12_Vector_baseIP12netlist_elemSaIS1_EE19_M_get_Tp_allocatorEv,@function
_ZNSt12_Vector_baseIP12netlist_elemSaIS1_EE19_M_get_Tp_allocatorEv: # @_ZNSt12_Vector_baseIP12netlist_elemSaIS1_EE19_M_get_Tp_allocatorEv
	.cfi_startproc
.Lfunc_begin73:
	.loc	20 114 0                # /usr/lib/gcc/x86_64-linux-gnu/4.8/../../../../include/c++/4.8/bits/stl_vector.h:114:0
# BB#0:                                 # %entry
	movq	%rdi, -8(%rsp)
	.loc	20 114 0 prologue_end   # /usr/lib/gcc/x86_64-linux-gnu/4.8/../../../../include/c++/4.8/bits/stl_vector.h:114:0
.Ltmp739:
	movq	%rdi, %rax
	ret
.Ltmp740:
.Ltmp741:
	.size	_ZNSt12_Vector_baseIP12netlist_elemSaIS1_EE19_M_get_Tp_allocatorEv, .Ltmp741-_ZNSt12_Vector_baseIP12netlist_elemSaIS1_EE19_M_get_Tp_allocatorEv
.Lfunc_end73:
	.cfi_endproc

	.section	.text._ZN9__gnu_cxx14__alloc_traitsISaIP12netlist_elemEE7destroyERS3_PS2_,"axG",@progbits,_ZN9__gnu_cxx14__alloc_traitsISaIP12netlist_elemEE7destroyERS3_PS2_,comdat
	.weak	_ZN9__gnu_cxx14__alloc_traitsISaIP12netlist_elemEE7destroyERS3_PS2_
	.align	16, 0x90
	.type	_ZN9__gnu_cxx14__alloc_traitsISaIP12netlist_elemEE7destroyERS3_PS2_,@function
_ZN9__gnu_cxx14__alloc_traitsISaIP12netlist_elemEE7destroyERS3_PS2_: # @_ZN9__gnu_cxx14__alloc_traitsISaIP12netlist_elemEE7destroyERS3_PS2_
	.cfi_startproc
.Lfunc_begin74:
	.loc	21 218 0                # /usr/lib/gcc/x86_64-linux-gnu/4.8/../../../../include/c++/4.8/ext/alloc_traits.h:218:0
# BB#0:                                 # %entry
	subq	$24, %rsp
.Ltmp743:
	.cfi_def_cfa_offset 32
	movq	%rdi, 16(%rsp)
	movq	%rsi, 8(%rsp)
	.loc	21 218 0 prologue_end   # /usr/lib/gcc/x86_64-linux-gnu/4.8/../../../../include/c++/4.8/ext/alloc_traits.h:218:0
.Ltmp744:
	movq	16(%rsp), %rdi
	callq	_ZN9__gnu_cxx13new_allocatorIP12netlist_elemE7destroyEPS2_
	addq	$24, %rsp
	ret
.Ltmp745:
.Ltmp746:
	.size	_ZN9__gnu_cxx14__alloc_traitsISaIP12netlist_elemEE7destroyERS3_PS2_, .Ltmp746-_ZN9__gnu_cxx14__alloc_traitsISaIP12netlist_elemEE7destroyERS3_PS2_
.Lfunc_end74:
	.cfi_endproc

	.section	.text._ZSt8_DestroyIPP12netlist_elemS1_EvT_S3_RSaIT0_E,"axG",@progbits,_ZSt8_DestroyIPP12netlist_elemS1_EvT_S3_RSaIT0_E,comdat
	.weak	_ZSt8_DestroyIPP12netlist_elemS1_EvT_S3_RSaIT0_E
	.align	16, 0x90
	.type	_ZSt8_DestroyIPP12netlist_elemS1_EvT_S3_RSaIT0_E,@function
_ZSt8_DestroyIPP12netlist_elemS1_EvT_S3_RSaIT0_E: # @_ZSt8_DestroyIPP12netlist_elemS1_EvT_S3_RSaIT0_E
	.cfi_startproc
.Lfunc_begin75:
	.loc	30 150 0                # /usr/lib/gcc/x86_64-linux-gnu/4.8/../../../../include/c++/4.8/bits/stl_construct.h:150:0
# BB#0:                                 # %entry
	subq	$24, %rsp
.Ltmp748:
	.cfi_def_cfa_offset 32
	movq	%rdi, 16(%rsp)
	movq	%rsi, 8(%rsp)
	movq	%rdx, (%rsp)
	.loc	30 151 0 prologue_end   # /usr/lib/gcc/x86_64-linux-gnu/4.8/../../../../include/c++/4.8/bits/stl_construct.h:151:0
.Ltmp749:
	movq	8(%rsp), %rsi
	movq	16(%rsp), %rdi
	callq	_ZSt8_DestroyIPP12netlist_elemEvT_S3_
	.loc	30 152 0                # /usr/lib/gcc/x86_64-linux-gnu/4.8/../../../../include/c++/4.8/bits/stl_construct.h:152:0
	addq	$24, %rsp
	ret
.Ltmp750:
.Ltmp751:
	.size	_ZSt8_DestroyIPP12netlist_elemS1_EvT_S3_RSaIT0_E, .Ltmp751-_ZSt8_DestroyIPP12netlist_elemS1_EvT_S3_RSaIT0_E
.Lfunc_end75:
	.cfi_endproc

	.section	.text._ZNSt12_Vector_baseIP12netlist_elemSaIS1_EE13_M_deallocateEPS1_m,"axG",@progbits,_ZNSt12_Vector_baseIP12netlist_elemSaIS1_EE13_M_deallocateEPS1_m,comdat
	.weak	_ZNSt12_Vector_baseIP12netlist_elemSaIS1_EE13_M_deallocateEPS1_m
	.align	16, 0x90
	.type	_ZNSt12_Vector_baseIP12netlist_elemSaIS1_EE13_M_deallocateEPS1_m,@function
_ZNSt12_Vector_baseIP12netlist_elemSaIS1_EE13_M_deallocateEPS1_m: # @_ZNSt12_Vector_baseIP12netlist_elemSaIS1_EE13_M_deallocateEPS1_m
	.cfi_startproc
.Lfunc_begin76:
	.loc	20 172 0                # /usr/lib/gcc/x86_64-linux-gnu/4.8/../../../../include/c++/4.8/bits/stl_vector.h:172:0
# BB#0:                                 # %entry
	subq	$24, %rsp
.Ltmp753:
	.cfi_def_cfa_offset 32
	movq	%rdi, 16(%rsp)
	movq	%rsi, 8(%rsp)
	movq	%rdx, (%rsp)
	.loc	20 173 0 prologue_end   # /usr/lib/gcc/x86_64-linux-gnu/4.8/../../../../include/c++/4.8/bits/stl_vector.h:173:0
.Ltmp754:
	cmpq	$0, 8(%rsp)
	je	.LBB76_2
# BB#1:                                 # %if.then
	movq	16(%rsp), %rdi
	.loc	20 174 0                # /usr/lib/gcc/x86_64-linux-gnu/4.8/../../../../include/c++/4.8/bits/stl_vector.h:174:0
	movq	(%rsp), %rdx
	movq	8(%rsp), %rsi
	callq	_ZN9__gnu_cxx13new_allocatorIP12netlist_elemE10deallocateEPS2_m
.LBB76_2:                               # %if.end
	.loc	20 175 0                # /usr/lib/gcc/x86_64-linux-gnu/4.8/../../../../include/c++/4.8/bits/stl_vector.h:175:0
	addq	$24, %rsp
	ret
.Ltmp755:
.Ltmp756:
	.size	_ZNSt12_Vector_baseIP12netlist_elemSaIS1_EE13_M_deallocateEPS1_m, .Ltmp756-_ZNSt12_Vector_baseIP12netlist_elemSaIS1_EE13_M_deallocateEPS1_m
.Lfunc_end76:
	.cfi_endproc

	.section	.text._ZN9__gnu_cxx13new_allocatorIP12netlist_elemE10deallocateEPS2_m,"axG",@progbits,_ZN9__gnu_cxx13new_allocatorIP12netlist_elemE10deallocateEPS2_m,comdat
	.weak	_ZN9__gnu_cxx13new_allocatorIP12netlist_elemE10deallocateEPS2_m
	.align	16, 0x90
	.type	_ZN9__gnu_cxx13new_allocatorIP12netlist_elemE10deallocateEPS2_m,@function
_ZN9__gnu_cxx13new_allocatorIP12netlist_elemE10deallocateEPS2_m: # @_ZN9__gnu_cxx13new_allocatorIP12netlist_elemE10deallocateEPS2_m
	.cfi_startproc
.Lfunc_begin77:
	.loc	9 110 0                 # /usr/lib/gcc/x86_64-linux-gnu/4.8/../../../../include/c++/4.8/ext/new_allocator.h:110:0
# BB#0:                                 # %entry
	subq	$24, %rsp
.Ltmp758:
	.cfi_def_cfa_offset 32
	movq	%rdi, 16(%rsp)
	movq	%rsi, 8(%rsp)
	movq	%rdx, (%rsp)
	.loc	9 110 0 prologue_end    # /usr/lib/gcc/x86_64-linux-gnu/4.8/../../../../include/c++/4.8/ext/new_allocator.h:110:0
.Ltmp759:
	movq	8(%rsp), %rdi
	callq	_ZdlPv
	addq	$24, %rsp
	ret
.Ltmp760:
.Ltmp761:
	.size	_ZN9__gnu_cxx13new_allocatorIP12netlist_elemE10deallocateEPS2_m, .Ltmp761-_ZN9__gnu_cxx13new_allocatorIP12netlist_elemE10deallocateEPS2_m
.Lfunc_end77:
	.cfi_endproc

	.section	.text._ZSt8_DestroyIPP12netlist_elemEvT_S3_,"axG",@progbits,_ZSt8_DestroyIPP12netlist_elemEvT_S3_,comdat
	.weak	_ZSt8_DestroyIPP12netlist_elemEvT_S3_
	.align	16, 0x90
	.type	_ZSt8_DestroyIPP12netlist_elemEvT_S3_,@function
_ZSt8_DestroyIPP12netlist_elemEvT_S3_:  # @_ZSt8_DestroyIPP12netlist_elemEvT_S3_
	.cfi_startproc
.Lfunc_begin78:
	.loc	30 123 0                # /usr/lib/gcc/x86_64-linux-gnu/4.8/../../../../include/c++/4.8/bits/stl_construct.h:123:0
# BB#0:                                 # %entry
	subq	$24, %rsp
.Ltmp763:
	.cfi_def_cfa_offset 32
	movq	%rdi, 16(%rsp)
	movq	%rsi, 8(%rsp)
	.loc	30 126 0 prologue_end   # /usr/lib/gcc/x86_64-linux-gnu/4.8/../../../../include/c++/4.8/bits/stl_construct.h:126:0
.Ltmp764:
	movq	16(%rsp), %rdi
	callq	_ZNSt12_Destroy_auxILb1EE9__destroyIPP12netlist_elemEEvT_S5_
	.loc	30 128 0                # /usr/lib/gcc/x86_64-linux-gnu/4.8/../../../../include/c++/4.8/bits/stl_construct.h:128:0
	addq	$24, %rsp
	ret
.Ltmp765:
.Ltmp766:
	.size	_ZSt8_DestroyIPP12netlist_elemEvT_S3_, .Ltmp766-_ZSt8_DestroyIPP12netlist_elemEvT_S3_
.Lfunc_end78:
	.cfi_endproc

	.section	.text._ZNSt12_Destroy_auxILb1EE9__destroyIPP12netlist_elemEEvT_S5_,"axG",@progbits,_ZNSt12_Destroy_auxILb1EE9__destroyIPP12netlist_elemEEvT_S5_,comdat
	.weak	_ZNSt12_Destroy_auxILb1EE9__destroyIPP12netlist_elemEEvT_S5_
	.align	16, 0x90
	.type	_ZNSt12_Destroy_auxILb1EE9__destroyIPP12netlist_elemEEvT_S5_,@function
_ZNSt12_Destroy_auxILb1EE9__destroyIPP12netlist_elemEEvT_S5_: # @_ZNSt12_Destroy_auxILb1EE9__destroyIPP12netlist_elemEEvT_S5_
	.cfi_startproc
.Lfunc_begin79:
	.loc	30 112 0                # /usr/lib/gcc/x86_64-linux-gnu/4.8/../../../../include/c++/4.8/bits/stl_construct.h:112:0
# BB#0:                                 # %entry
	movq	%rdi, -8(%rsp)
	movq	%rsi, -16(%rsp)
	.loc	30 112 0 prologue_end   # /usr/lib/gcc/x86_64-linux-gnu/4.8/../../../../include/c++/4.8/bits/stl_construct.h:112:0
.Ltmp767:
	ret
.Ltmp768:
.Ltmp769:
	.size	_ZNSt12_Destroy_auxILb1EE9__destroyIPP12netlist_elemEEvT_S5_, .Ltmp769-_ZNSt12_Destroy_auxILb1EE9__destroyIPP12netlist_elemEEvT_S5_
.Lfunc_end79:
	.cfi_endproc

	.section	.text._ZN9__gnu_cxx13new_allocatorIP12netlist_elemE7destroyEPS2_,"axG",@progbits,_ZN9__gnu_cxx13new_allocatorIP12netlist_elemE7destroyEPS2_,comdat
	.weak	_ZN9__gnu_cxx13new_allocatorIP12netlist_elemE7destroyEPS2_
	.align	16, 0x90
	.type	_ZN9__gnu_cxx13new_allocatorIP12netlist_elemE7destroyEPS2_,@function
_ZN9__gnu_cxx13new_allocatorIP12netlist_elemE7destroyEPS2_: # @_ZN9__gnu_cxx13new_allocatorIP12netlist_elemE7destroyEPS2_
	.cfi_startproc
.Lfunc_begin80:
	.loc	9 133 0                 # /usr/lib/gcc/x86_64-linux-gnu/4.8/../../../../include/c++/4.8/ext/new_allocator.h:133:0
# BB#0:                                 # %entry
	movq	%rdi, -8(%rsp)
	movq	%rsi, -16(%rsp)
	.loc	9 133 0 prologue_end    # /usr/lib/gcc/x86_64-linux-gnu/4.8/../../../../include/c++/4.8/ext/new_allocator.h:133:0
.Ltmp770:
	ret
.Ltmp771:
.Ltmp772:
	.size	_ZN9__gnu_cxx13new_allocatorIP12netlist_elemE7destroyEPS2_, .Ltmp772-_ZN9__gnu_cxx13new_allocatorIP12netlist_elemE7destroyEPS2_
.Lfunc_end80:
	.cfi_endproc

	.section	.text._ZSt22__uninitialized_copy_aIPP12netlist_elemS2_S1_ET0_T_S4_S3_RSaIT1_E,"axG",@progbits,_ZSt22__uninitialized_copy_aIPP12netlist_elemS2_S1_ET0_T_S4_S3_RSaIT1_E,comdat
	.weak	_ZSt22__uninitialized_copy_aIPP12netlist_elemS2_S1_ET0_T_S4_S3_RSaIT1_E
	.align	16, 0x90
	.type	_ZSt22__uninitialized_copy_aIPP12netlist_elemS2_S1_ET0_T_S4_S3_RSaIT1_E,@function
_ZSt22__uninitialized_copy_aIPP12netlist_elemS2_S1_ET0_T_S4_S3_RSaIT1_E: # @_ZSt22__uninitialized_copy_aIPP12netlist_elemS2_S1_ET0_T_S4_S3_RSaIT1_E
	.cfi_startproc
.Lfunc_begin81:
	.loc	31 258 0                # /usr/lib/gcc/x86_64-linux-gnu/4.8/../../../../include/c++/4.8/bits/stl_uninitialized.h:258:0
# BB#0:                                 # %entry
	subq	$40, %rsp
.Ltmp774:
	.cfi_def_cfa_offset 48
	movq	%rdi, 32(%rsp)
	movq	%rsi, 24(%rsp)
	movq	%rdx, 16(%rsp)
	movq	%rcx, 8(%rsp)
	.loc	31 258 0 prologue_end   # /usr/lib/gcc/x86_64-linux-gnu/4.8/../../../../include/c++/4.8/bits/stl_uninitialized.h:258:0
.Ltmp775:
	movq	16(%rsp), %rdx
	movq	24(%rsp), %rsi
	movq	32(%rsp), %rdi
	callq	_ZSt18uninitialized_copyIPP12netlist_elemS2_ET0_T_S4_S3_
	addq	$40, %rsp
	ret
.Ltmp776:
.Ltmp777:
	.size	_ZSt22__uninitialized_copy_aIPP12netlist_elemS2_S1_ET0_T_S4_S3_RSaIT1_E, .Ltmp777-_ZSt22__uninitialized_copy_aIPP12netlist_elemS2_S1_ET0_T_S4_S3_RSaIT1_E
.Lfunc_end81:
	.cfi_endproc

	.section	.text._ZSt18uninitialized_copyIPP12netlist_elemS2_ET0_T_S4_S3_,"axG",@progbits,_ZSt18uninitialized_copyIPP12netlist_elemS2_ET0_T_S4_S3_,comdat
	.weak	_ZSt18uninitialized_copyIPP12netlist_elemS2_ET0_T_S4_S3_
	.align	16, 0x90
	.type	_ZSt18uninitialized_copyIPP12netlist_elemS2_ET0_T_S4_S3_,@function
_ZSt18uninitialized_copyIPP12netlist_elemS2_ET0_T_S4_S3_: # @_ZSt18uninitialized_copyIPP12netlist_elemS2_ET0_T_S4_S3_
	.cfi_startproc
.Lfunc_begin82:
	.loc	31 109 0                # /usr/lib/gcc/x86_64-linux-gnu/4.8/../../../../include/c++/4.8/bits/stl_uninitialized.h:109:0
# BB#0:                                 # %entry
	subq	$24, %rsp
.Ltmp779:
	.cfi_def_cfa_offset 32
	movq	%rdi, 16(%rsp)
	movq	%rsi, 8(%rsp)
	movq	%rdx, (%rsp)
	.loc	31 115 0 prologue_end   # /usr/lib/gcc/x86_64-linux-gnu/4.8/../../../../include/c++/4.8/bits/stl_uninitialized.h:115:0
.Ltmp780:
	movq	8(%rsp), %rsi
	movq	16(%rsp), %rdi
	callq	_ZNSt20__uninitialized_copyILb1EE13__uninit_copyIPP12netlist_elemS4_EET0_T_S6_S5_
	addq	$24, %rsp
	ret
.Ltmp781:
.Ltmp782:
	.size	_ZSt18uninitialized_copyIPP12netlist_elemS2_ET0_T_S4_S3_, .Ltmp782-_ZSt18uninitialized_copyIPP12netlist_elemS2_ET0_T_S4_S3_
.Lfunc_end82:
	.cfi_endproc

	.section	.text._ZNSt20__uninitialized_copyILb1EE13__uninit_copyIPP12netlist_elemS4_EET0_T_S6_S5_,"axG",@progbits,_ZNSt20__uninitialized_copyILb1EE13__uninit_copyIPP12netlist_elemS4_EET0_T_S6_S5_,comdat
	.weak	_ZNSt20__uninitialized_copyILb1EE13__uninit_copyIPP12netlist_elemS4_EET0_T_S6_S5_
	.align	16, 0x90
	.type	_ZNSt20__uninitialized_copyILb1EE13__uninit_copyIPP12netlist_elemS4_EET0_T_S6_S5_,@function
_ZNSt20__uninitialized_copyILb1EE13__uninit_copyIPP12netlist_elemS4_EET0_T_S6_S5_: # @_ZNSt20__uninitialized_copyILb1EE13__uninit_copyIPP12netlist_elemS4_EET0_T_S6_S5_
	.cfi_startproc
.Lfunc_begin83:
	.loc	31 93 0                 # /usr/lib/gcc/x86_64-linux-gnu/4.8/../../../../include/c++/4.8/bits/stl_uninitialized.h:93:0
# BB#0:                                 # %entry
	subq	$24, %rsp
.Ltmp784:
	.cfi_def_cfa_offset 32
	movq	%rdi, 16(%rsp)
	movq	%rsi, 8(%rsp)
	movq	%rdx, (%rsp)
	.loc	31 93 0 prologue_end    # /usr/lib/gcc/x86_64-linux-gnu/4.8/../../../../include/c++/4.8/bits/stl_uninitialized.h:93:0
.Ltmp785:
	movq	8(%rsp), %rsi
	movq	16(%rsp), %rdi
	callq	_ZSt4copyIPP12netlist_elemS2_ET0_T_S4_S3_
	addq	$24, %rsp
	ret
.Ltmp786:
.Ltmp787:
	.size	_ZNSt20__uninitialized_copyILb1EE13__uninit_copyIPP12netlist_elemS4_EET0_T_S6_S5_, .Ltmp787-_ZNSt20__uninitialized_copyILb1EE13__uninit_copyIPP12netlist_elemS4_EET0_T_S6_S5_
.Lfunc_end83:
	.cfi_endproc

	.section	.text._ZSt4copyIPP12netlist_elemS2_ET0_T_S4_S3_,"axG",@progbits,_ZSt4copyIPP12netlist_elemS2_ET0_T_S4_S3_,comdat
	.weak	_ZSt4copyIPP12netlist_elemS2_ET0_T_S4_S3_
	.align	16, 0x90
	.type	_ZSt4copyIPP12netlist_elemS2_ET0_T_S4_S3_,@function
_ZSt4copyIPP12netlist_elemS2_ET0_T_S4_S3_: # @_ZSt4copyIPP12netlist_elemS2_ET0_T_S4_S3_
	.cfi_startproc
.Lfunc_begin84:
	.loc	32 451 0                # /usr/lib/gcc/x86_64-linux-gnu/4.8/../../../../include/c++/4.8/bits/stl_algobase.h:451:0
# BB#0:                                 # %entry
	pushq	%rbx
.Ltmp790:
	.cfi_def_cfa_offset 16
	subq	$32, %rsp
.Ltmp791:
	.cfi_def_cfa_offset 48
.Ltmp792:
	.cfi_offset %rbx, -16
	movq	%rdi, 24(%rsp)
	movq	%rsi, 16(%rsp)
	movq	%rdx, 8(%rsp)
	.loc	32 459 0 prologue_end   # /usr/lib/gcc/x86_64-linux-gnu/4.8/../../../../include/c++/4.8/bits/stl_algobase.h:459:0
.Ltmp793:
	movq	24(%rsp), %rdi
	callq	_ZSt12__miter_baseIPP12netlist_elemENSt11_Miter_baseIT_E13iterator_typeES4_
	movq	%rax, %rbx
	movq	16(%rsp), %rdi
	callq	_ZSt12__miter_baseIPP12netlist_elemENSt11_Miter_baseIT_E13iterator_typeES4_
	movq	8(%rsp), %rdx
	movq	%rbx, %rdi
	movq	%rax, %rsi
	callq	_ZSt14__copy_move_a2ILb0EPP12netlist_elemS2_ET1_T0_S4_S3_
	addq	$32, %rsp
	popq	%rbx
	ret
.Ltmp794:
.Ltmp795:
	.size	_ZSt4copyIPP12netlist_elemS2_ET0_T_S4_S3_, .Ltmp795-_ZSt4copyIPP12netlist_elemS2_ET0_T_S4_S3_
.Lfunc_end84:
	.cfi_endproc

	.section	.text._ZSt14__copy_move_a2ILb0EPP12netlist_elemS2_ET1_T0_S4_S3_,"axG",@progbits,_ZSt14__copy_move_a2ILb0EPP12netlist_elemS2_ET1_T0_S4_S3_,comdat
	.weak	_ZSt14__copy_move_a2ILb0EPP12netlist_elemS2_ET1_T0_S4_S3_
	.align	16, 0x90
	.type	_ZSt14__copy_move_a2ILb0EPP12netlist_elemS2_ET1_T0_S4_S3_,@function
_ZSt14__copy_move_a2ILb0EPP12netlist_elemS2_ET1_T0_S4_S3_: # @_ZSt14__copy_move_a2ILb0EPP12netlist_elemS2_ET1_T0_S4_S3_
	.cfi_startproc
.Lfunc_begin85:
	.loc	32 425 0                # /usr/lib/gcc/x86_64-linux-gnu/4.8/../../../../include/c++/4.8/bits/stl_algobase.h:425:0
# BB#0:                                 # %entry
	pushq	%r14
.Ltmp799:
	.cfi_def_cfa_offset 16
	pushq	%rbx
.Ltmp800:
	.cfi_def_cfa_offset 24
	subq	$24, %rsp
.Ltmp801:
	.cfi_def_cfa_offset 48
.Ltmp802:
	.cfi_offset %rbx, -24
.Ltmp803:
	.cfi_offset %r14, -16
	movq	%rdi, 16(%rsp)
	movq	%rsi, 8(%rsp)
	movq	%rdx, (%rsp)
	.loc	32 426 0 prologue_end   # /usr/lib/gcc/x86_64-linux-gnu/4.8/../../../../include/c++/4.8/bits/stl_algobase.h:426:0
.Ltmp804:
	movq	16(%rsp), %rdi
	callq	_ZSt12__niter_baseIPP12netlist_elemENSt11_Niter_baseIT_E13iterator_typeES4_
	movq	%rax, %r14
	.loc	32 427 0                # /usr/lib/gcc/x86_64-linux-gnu/4.8/../../../../include/c++/4.8/bits/stl_algobase.h:427:0
	movq	8(%rsp), %rdi
	callq	_ZSt12__niter_baseIPP12netlist_elemENSt11_Niter_baseIT_E13iterator_typeES4_
	movq	%rax, %rbx
	.loc	32 428 0                # /usr/lib/gcc/x86_64-linux-gnu/4.8/../../../../include/c++/4.8/bits/stl_algobase.h:428:0
	movq	(%rsp), %rdi
	callq	_ZSt12__niter_baseIPP12netlist_elemENSt11_Niter_baseIT_E13iterator_typeES4_
	movq	%r14, %rdi
	movq	%rbx, %rsi
	movq	%rax, %rdx
	callq	_ZSt13__copy_move_aILb0EPP12netlist_elemS2_ET1_T0_S4_S3_
	addq	$24, %rsp
	popq	%rbx
	popq	%r14
	ret
.Ltmp805:
.Ltmp806:
	.size	_ZSt14__copy_move_a2ILb0EPP12netlist_elemS2_ET1_T0_S4_S3_, .Ltmp806-_ZSt14__copy_move_a2ILb0EPP12netlist_elemS2_ET1_T0_S4_S3_
.Lfunc_end85:
	.cfi_endproc

	.section	.text._ZSt12__miter_baseIPP12netlist_elemENSt11_Miter_baseIT_E13iterator_typeES4_,"axG",@progbits,_ZSt12__miter_baseIPP12netlist_elemENSt11_Miter_baseIT_E13iterator_typeES4_,comdat
	.weak	_ZSt12__miter_baseIPP12netlist_elemENSt11_Miter_baseIT_E13iterator_typeES4_
	.align	16, 0x90
	.type	_ZSt12__miter_baseIPP12netlist_elemENSt11_Miter_baseIT_E13iterator_typeES4_,@function
_ZSt12__miter_baseIPP12netlist_elemENSt11_Miter_baseIT_E13iterator_typeES4_: # @_ZSt12__miter_baseIPP12netlist_elemENSt11_Miter_baseIT_E13iterator_typeES4_
	.cfi_startproc
.Lfunc_begin86:
	.loc	32 289 0                # /usr/lib/gcc/x86_64-linux-gnu/4.8/../../../../include/c++/4.8/bits/stl_algobase.h:289:0
# BB#0:                                 # %entry
	pushq	%rax
.Ltmp808:
	.cfi_def_cfa_offset 16
	movq	%rdi, (%rsp)
	.loc	32 289 0 prologue_end   # /usr/lib/gcc/x86_64-linux-gnu/4.8/../../../../include/c++/4.8/bits/stl_algobase.h:289:0
.Ltmp809:
	callq	_ZNSt10_Iter_baseIPP12netlist_elemLb0EE7_S_baseES2_
	popq	%rdx
	ret
.Ltmp810:
.Ltmp811:
	.size	_ZSt12__miter_baseIPP12netlist_elemENSt11_Miter_baseIT_E13iterator_typeES4_, .Ltmp811-_ZSt12__miter_baseIPP12netlist_elemENSt11_Miter_baseIT_E13iterator_typeES4_
.Lfunc_end86:
	.cfi_endproc

	.section	.text._ZNSt10_Iter_baseIPP12netlist_elemLb0EE7_S_baseES2_,"axG",@progbits,_ZNSt10_Iter_baseIPP12netlist_elemLb0EE7_S_baseES2_,comdat
	.weak	_ZNSt10_Iter_baseIPP12netlist_elemLb0EE7_S_baseES2_
	.align	16, 0x90
	.type	_ZNSt10_Iter_baseIPP12netlist_elemLb0EE7_S_baseES2_,@function
_ZNSt10_Iter_baseIPP12netlist_elemLb0EE7_S_baseES2_: # @_ZNSt10_Iter_baseIPP12netlist_elemLb0EE7_S_baseES2_
	.cfi_startproc
.Lfunc_begin87:
	.loc	22 212 0                # /usr/lib/gcc/x86_64-linux-gnu/4.8/../../../../include/c++/4.8/bits/stl_iterator_base_types.h:212:0
# BB#0:                                 # %entry
	movq	%rdi, -8(%rsp)
	.loc	22 212 0 prologue_end   # /usr/lib/gcc/x86_64-linux-gnu/4.8/../../../../include/c++/4.8/bits/stl_iterator_base_types.h:212:0
.Ltmp812:
	movq	%rdi, %rax
	ret
.Ltmp813:
.Ltmp814:
	.size	_ZNSt10_Iter_baseIPP12netlist_elemLb0EE7_S_baseES2_, .Ltmp814-_ZNSt10_Iter_baseIPP12netlist_elemLb0EE7_S_baseES2_
.Lfunc_end87:
	.cfi_endproc

	.section	.text._ZSt13__copy_move_aILb0EPP12netlist_elemS2_ET1_T0_S4_S3_,"axG",@progbits,_ZSt13__copy_move_aILb0EPP12netlist_elemS2_ET1_T0_S4_S3_,comdat
	.weak	_ZSt13__copy_move_aILb0EPP12netlist_elemS2_ET1_T0_S4_S3_
	.align	16, 0x90
	.type	_ZSt13__copy_move_aILb0EPP12netlist_elemS2_ET1_T0_S4_S3_,@function
_ZSt13__copy_move_aILb0EPP12netlist_elemS2_ET1_T0_S4_S3_: # @_ZSt13__copy_move_aILb0EPP12netlist_elemS2_ET1_T0_S4_S3_
	.cfi_startproc
.Lfunc_begin88:
	.loc	32 380 0                # /usr/lib/gcc/x86_64-linux-gnu/4.8/../../../../include/c++/4.8/bits/stl_algobase.h:380:0
# BB#0:                                 # %entry
	subq	$40, %rsp
.Ltmp816:
	.cfi_def_cfa_offset 48
	movq	%rdi, 32(%rsp)
	movq	%rsi, 24(%rsp)
	movq	%rdx, 16(%rsp)
	.loc	32 387 0 prologue_end   # /usr/lib/gcc/x86_64-linux-gnu/4.8/../../../../include/c++/4.8/bits/stl_algobase.h:387:0
.Ltmp817:
	movb	$1, 15(%rsp)
	.loc	32 389 0                # /usr/lib/gcc/x86_64-linux-gnu/4.8/../../../../include/c++/4.8/bits/stl_algobase.h:389:0
	movq	16(%rsp), %rdx
	movq	24(%rsp), %rsi
	movq	32(%rsp), %rdi
	callq	_ZNSt11__copy_moveILb0ELb1ESt26random_access_iterator_tagE8__copy_mIP12netlist_elemEEPT_PKS5_S8_S6_
	addq	$40, %rsp
	ret
.Ltmp818:
.Ltmp819:
	.size	_ZSt13__copy_move_aILb0EPP12netlist_elemS2_ET1_T0_S4_S3_, .Ltmp819-_ZSt13__copy_move_aILb0EPP12netlist_elemS2_ET1_T0_S4_S3_
.Lfunc_end88:
	.cfi_endproc

	.section	.text._ZSt12__niter_baseIPP12netlist_elemENSt11_Niter_baseIT_E13iterator_typeES4_,"axG",@progbits,_ZSt12__niter_baseIPP12netlist_elemENSt11_Niter_baseIT_E13iterator_typeES4_,comdat
	.weak	_ZSt12__niter_baseIPP12netlist_elemENSt11_Niter_baseIT_E13iterator_typeES4_
	.align	16, 0x90
	.type	_ZSt12__niter_baseIPP12netlist_elemENSt11_Niter_baseIT_E13iterator_typeES4_,@function
_ZSt12__niter_baseIPP12netlist_elemENSt11_Niter_baseIT_E13iterator_typeES4_: # @_ZSt12__niter_baseIPP12netlist_elemENSt11_Niter_baseIT_E13iterator_typeES4_
	.cfi_startproc
.Lfunc_begin89:
	.loc	32 278 0                # /usr/lib/gcc/x86_64-linux-gnu/4.8/../../../../include/c++/4.8/bits/stl_algobase.h:278:0
# BB#0:                                 # %entry
	pushq	%rax
.Ltmp821:
	.cfi_def_cfa_offset 16
	movq	%rdi, (%rsp)
	.loc	32 278 0 prologue_end   # /usr/lib/gcc/x86_64-linux-gnu/4.8/../../../../include/c++/4.8/bits/stl_algobase.h:278:0
.Ltmp822:
	callq	_ZNSt10_Iter_baseIPP12netlist_elemLb0EE7_S_baseES2_
	popq	%rdx
	ret
.Ltmp823:
.Ltmp824:
	.size	_ZSt12__niter_baseIPP12netlist_elemENSt11_Niter_baseIT_E13iterator_typeES4_, .Ltmp824-_ZSt12__niter_baseIPP12netlist_elemENSt11_Niter_baseIT_E13iterator_typeES4_
.Lfunc_end89:
	.cfi_endproc

	.section	.text._ZNSt11__copy_moveILb0ELb1ESt26random_access_iterator_tagE8__copy_mIP12netlist_elemEEPT_PKS5_S8_S6_,"axG",@progbits,_ZNSt11__copy_moveILb0ELb1ESt26random_access_iterator_tagE8__copy_mIP12netlist_elemEEPT_PKS5_S8_S6_,comdat
	.weak	_ZNSt11__copy_moveILb0ELb1ESt26random_access_iterator_tagE8__copy_mIP12netlist_elemEEPT_PKS5_S8_S6_
	.align	16, 0x90
	.type	_ZNSt11__copy_moveILb0ELb1ESt26random_access_iterator_tagE8__copy_mIP12netlist_elemEEPT_PKS5_S8_S6_,@function
_ZNSt11__copy_moveILb0ELb1ESt26random_access_iterator_tagE8__copy_mIP12netlist_elemEEPT_PKS5_S8_S6_: # @_ZNSt11__copy_moveILb0ELb1ESt26random_access_iterator_tagE8__copy_mIP12netlist_elemEEPT_PKS5_S8_S6_
	.cfi_startproc
.Lfunc_begin90:
	.loc	32 369 0                # /usr/lib/gcc/x86_64-linux-gnu/4.8/../../../../include/c++/4.8/bits/stl_algobase.h:369:0
# BB#0:                                 # %entry
	subq	$40, %rsp
.Ltmp826:
	.cfi_def_cfa_offset 48
	movq	%rdi, 32(%rsp)
	movq	%rsi, 24(%rsp)
	movq	%rdx, 16(%rsp)
	.loc	32 370 0 prologue_end   # /usr/lib/gcc/x86_64-linux-gnu/4.8/../../../../include/c++/4.8/bits/stl_algobase.h:370:0
.Ltmp827:
	movq	24(%rsp), %rax
	subq	32(%rsp), %rax
	sarq	$3, %rax
	movq	%rax, 8(%rsp)
	testq	%rax, %rax
	je	.LBB90_2
# BB#1:                                 # %if.then
	.loc	32 372 0                # /usr/lib/gcc/x86_64-linux-gnu/4.8/../../../../include/c++/4.8/bits/stl_algobase.h:372:0
	movq	8(%rsp), %rdx
	shlq	$3, %rdx
	movq	32(%rsp), %rsi
	movq	16(%rsp), %rdi
	callq	memmove
.LBB90_2:                               # %if.end
	.loc	32 373 0                # /usr/lib/gcc/x86_64-linux-gnu/4.8/../../../../include/c++/4.8/bits/stl_algobase.h:373:0
	movq	8(%rsp), %rax
	shlq	$3, %rax
	addq	16(%rsp), %rax
	addq	$40, %rsp
	ret
.Ltmp828:
.Ltmp829:
	.size	_ZNSt11__copy_moveILb0ELb1ESt26random_access_iterator_tagE8__copy_mIP12netlist_elemEEPT_PKS5_S8_S6_, .Ltmp829-_ZNSt11__copy_moveILb0ELb1ESt26random_access_iterator_tagE8__copy_mIP12netlist_elemEEPT_PKS5_S8_S6_
.Lfunc_end90:
	.cfi_endproc

	.section	.text._ZN9__gnu_cxx13new_allocatorIP12netlist_elemE8allocateEmPKv,"axG",@progbits,_ZN9__gnu_cxx13new_allocatorIP12netlist_elemE8allocateEmPKv,comdat
	.weak	_ZN9__gnu_cxx13new_allocatorIP12netlist_elemE8allocateEmPKv
	.align	16, 0x90
	.type	_ZN9__gnu_cxx13new_allocatorIP12netlist_elemE8allocateEmPKv,@function
_ZN9__gnu_cxx13new_allocatorIP12netlist_elemE8allocateEmPKv: # @_ZN9__gnu_cxx13new_allocatorIP12netlist_elemE8allocateEmPKv
	.cfi_startproc
.Lfunc_begin91:
	.loc	9 100 0                 # /usr/lib/gcc/x86_64-linux-gnu/4.8/../../../../include/c++/4.8/ext/new_allocator.h:100:0
# BB#0:                                 # %entry
	pushq	%rbx
.Ltmp832:
	.cfi_def_cfa_offset 16
	subq	$32, %rsp
.Ltmp833:
	.cfi_def_cfa_offset 48
.Ltmp834:
	.cfi_offset %rbx, -16
	movq	%rdi, 24(%rsp)
	movq	%rsi, 16(%rsp)
	movq	%rdx, 8(%rsp)
	.loc	9 101 0 prologue_end    # /usr/lib/gcc/x86_64-linux-gnu/4.8/../../../../include/c++/4.8/ext/new_allocator.h:101:0
.Ltmp835:
	movq	16(%rsp), %rbx
	movq	24(%rsp), %rdi
	callq	_ZNK9__gnu_cxx13new_allocatorIP12netlist_elemE8max_sizeEv
	cmpq	%rax, %rbx
	ja	.LBB91_2
# BB#1:                                 # %if.end
	.loc	9 104 0                 # /usr/lib/gcc/x86_64-linux-gnu/4.8/../../../../include/c++/4.8/ext/new_allocator.h:104:0
	movq	16(%rsp), %rdi
	shlq	$3, %rdi
	callq	_Znwm
	addq	$32, %rsp
	popq	%rbx
	ret
.LBB91_2:                               # %if.then
	.loc	9 102 0                 # /usr/lib/gcc/x86_64-linux-gnu/4.8/../../../../include/c++/4.8/ext/new_allocator.h:102:0
	callq	_ZSt17__throw_bad_allocv
.Ltmp836:
.Ltmp837:
	.size	_ZN9__gnu_cxx13new_allocatorIP12netlist_elemE8allocateEmPKv, .Ltmp837-_ZN9__gnu_cxx13new_allocatorIP12netlist_elemE8allocateEmPKv
.Lfunc_end91:
	.cfi_endproc

	.section	.text._ZNK9__gnu_cxx13new_allocatorIP12netlist_elemE8max_sizeEv,"axG",@progbits,_ZNK9__gnu_cxx13new_allocatorIP12netlist_elemE8max_sizeEv,comdat
	.weak	_ZNK9__gnu_cxx13new_allocatorIP12netlist_elemE8max_sizeEv
	.align	16, 0x90
	.type	_ZNK9__gnu_cxx13new_allocatorIP12netlist_elemE8max_sizeEv,@function
_ZNK9__gnu_cxx13new_allocatorIP12netlist_elemE8max_sizeEv: # @_ZNK9__gnu_cxx13new_allocatorIP12netlist_elemE8max_sizeEv
	.cfi_startproc
.Lfunc_begin92:
	.loc	9 114 0                 # /usr/lib/gcc/x86_64-linux-gnu/4.8/../../../../include/c++/4.8/ext/new_allocator.h:114:0
# BB#0:                                 # %entry
	movq	%rdi, -8(%rsp)
	movabsq	$2305843009213693951, %rax # imm = 0x1FFFFFFFFFFFFFFF
	.loc	9 114 0 prologue_end    # /usr/lib/gcc/x86_64-linux-gnu/4.8/../../../../include/c++/4.8/ext/new_allocator.h:114:0
.Ltmp838:
	ret
.Ltmp839:
.Ltmp840:
	.size	_ZNK9__gnu_cxx13new_allocatorIP12netlist_elemE8max_sizeEv, .Ltmp840-_ZNK9__gnu_cxx13new_allocatorIP12netlist_elemE8max_sizeEv
.Lfunc_end92:
	.cfi_endproc

	.section	.text._ZNKSt6vectorIP12netlist_elemSaIS1_EE8max_sizeEv,"axG",@progbits,_ZNKSt6vectorIP12netlist_elemSaIS1_EE8max_sizeEv,comdat
	.weak	_ZNKSt6vectorIP12netlist_elemSaIS1_EE8max_sizeEv
	.align	16, 0x90
	.type	_ZNKSt6vectorIP12netlist_elemSaIS1_EE8max_sizeEv,@function
_ZNKSt6vectorIP12netlist_elemSaIS1_EE8max_sizeEv: # @_ZNKSt6vectorIP12netlist_elemSaIS1_EE8max_sizeEv
	.cfi_startproc
.Lfunc_begin93:
	.loc	20 651 0                # /usr/lib/gcc/x86_64-linux-gnu/4.8/../../../../include/c++/4.8/bits/stl_vector.h:651:0
# BB#0:                                 # %entry
	pushq	%rax
.Ltmp842:
	.cfi_def_cfa_offset 16
	movq	%rdi, (%rsp)
	.loc	20 651 0 prologue_end   # /usr/lib/gcc/x86_64-linux-gnu/4.8/../../../../include/c++/4.8/bits/stl_vector.h:651:0
.Ltmp843:
	callq	_ZNKSt12_Vector_baseIP12netlist_elemSaIS1_EE19_M_get_Tp_allocatorEv
	movq	%rax, %rdi
	callq	_ZN9__gnu_cxx14__alloc_traitsISaIP12netlist_elemEE8max_sizeERKS3_
	popq	%rdx
	ret
.Ltmp844:
.Ltmp845:
	.size	_ZNKSt6vectorIP12netlist_elemSaIS1_EE8max_sizeEv, .Ltmp845-_ZNKSt6vectorIP12netlist_elemSaIS1_EE8max_sizeEv
.Lfunc_end93:
	.cfi_endproc

	.section	.text._ZNKSt6vectorIP12netlist_elemSaIS1_EE4sizeEv,"axG",@progbits,_ZNKSt6vectorIP12netlist_elemSaIS1_EE4sizeEv,comdat
	.weak	_ZNKSt6vectorIP12netlist_elemSaIS1_EE4sizeEv
	.align	16, 0x90
	.type	_ZNKSt6vectorIP12netlist_elemSaIS1_EE4sizeEv,@function
_ZNKSt6vectorIP12netlist_elemSaIS1_EE4sizeEv: # @_ZNKSt6vectorIP12netlist_elemSaIS1_EE4sizeEv
	.cfi_startproc
.Lfunc_begin94:
	.loc	20 646 0                # /usr/lib/gcc/x86_64-linux-gnu/4.8/../../../../include/c++/4.8/bits/stl_vector.h:646:0
# BB#0:                                 # %entry
	movq	%rdi, -8(%rsp)
	.loc	20 646 0 prologue_end   # /usr/lib/gcc/x86_64-linux-gnu/4.8/../../../../include/c++/4.8/bits/stl_vector.h:646:0
.Ltmp846:
	movq	8(%rdi), %rax
	subq	(%rdi), %rax
	sarq	$3, %rax
	ret
.Ltmp847:
.Ltmp848:
	.size	_ZNKSt6vectorIP12netlist_elemSaIS1_EE4sizeEv, .Ltmp848-_ZNKSt6vectorIP12netlist_elemSaIS1_EE4sizeEv
.Lfunc_end94:
	.cfi_endproc

	.section	.text._ZSt3maxImERKT_S2_S2_,"axG",@progbits,_ZSt3maxImERKT_S2_S2_,comdat
	.weak	_ZSt3maxImERKT_S2_S2_
	.align	16, 0x90
	.type	_ZSt3maxImERKT_S2_S2_,@function
_ZSt3maxImERKT_S2_S2_:                  # @_ZSt3maxImERKT_S2_S2_
	.cfi_startproc
.Lfunc_begin95:
	.loc	32 217 0                # /usr/lib/gcc/x86_64-linux-gnu/4.8/../../../../include/c++/4.8/bits/stl_algobase.h:217:0
# BB#0:                                 # %entry
	movq	%rdi, -16(%rsp)
	movq	%rsi, -24(%rsp)
	.loc	32 221 0 prologue_end   # /usr/lib/gcc/x86_64-linux-gnu/4.8/../../../../include/c++/4.8/bits/stl_algobase.h:221:0
.Ltmp849:
	movq	-16(%rsp), %rax
	movq	(%rax), %rax
	cmpq	(%rsi), %rax
	jae	.LBB95_2
# BB#1:                                 # %if.then
	.loc	32 222 0                # /usr/lib/gcc/x86_64-linux-gnu/4.8/../../../../include/c++/4.8/bits/stl_algobase.h:222:0
	movq	-24(%rsp), %rax
	jmp	.LBB95_3
.LBB95_2:                               # %if.end
	.loc	32 223 0                # /usr/lib/gcc/x86_64-linux-gnu/4.8/../../../../include/c++/4.8/bits/stl_algobase.h:223:0
	movq	-16(%rsp), %rax
.LBB95_3:                               # %if.end
	movq	%rax, -8(%rsp)
	.loc	32 224 0                # /usr/lib/gcc/x86_64-linux-gnu/4.8/../../../../include/c++/4.8/bits/stl_algobase.h:224:0
	movq	-8(%rsp), %rax
	ret
.Ltmp850:
.Ltmp851:
	.size	_ZSt3maxImERKT_S2_S2_, .Ltmp851-_ZSt3maxImERKT_S2_S2_
.Lfunc_end95:
	.cfi_endproc

	.section	.text._ZN9__gnu_cxx14__alloc_traitsISaIP12netlist_elemEE8max_sizeERKS3_,"axG",@progbits,_ZN9__gnu_cxx14__alloc_traitsISaIP12netlist_elemEE8max_sizeERKS3_,comdat
	.weak	_ZN9__gnu_cxx14__alloc_traitsISaIP12netlist_elemEE8max_sizeERKS3_
	.align	16, 0x90
	.type	_ZN9__gnu_cxx14__alloc_traitsISaIP12netlist_elemEE8max_sizeERKS3_,@function
_ZN9__gnu_cxx14__alloc_traitsISaIP12netlist_elemEE8max_sizeERKS3_: # @_ZN9__gnu_cxx14__alloc_traitsISaIP12netlist_elemEE8max_sizeERKS3_
	.cfi_startproc
.Lfunc_begin96:
	.loc	21 221 0                # /usr/lib/gcc/x86_64-linux-gnu/4.8/../../../../include/c++/4.8/ext/alloc_traits.h:221:0
# BB#0:                                 # %entry
	pushq	%rax
.Ltmp853:
	.cfi_def_cfa_offset 16
	movq	%rdi, (%rsp)
	.loc	21 221 0 prologue_end   # /usr/lib/gcc/x86_64-linux-gnu/4.8/../../../../include/c++/4.8/ext/alloc_traits.h:221:0
.Ltmp854:
	callq	_ZNK9__gnu_cxx13new_allocatorIP12netlist_elemE8max_sizeEv
	popq	%rdx
	ret
.Ltmp855:
.Ltmp856:
	.size	_ZN9__gnu_cxx14__alloc_traitsISaIP12netlist_elemEE8max_sizeERKS3_, .Ltmp856-_ZN9__gnu_cxx14__alloc_traitsISaIP12netlist_elemEE8max_sizeERKS3_
.Lfunc_end96:
	.cfi_endproc

	.section	.text._ZNKSt12_Vector_baseIP12netlist_elemSaIS1_EE19_M_get_Tp_allocatorEv,"axG",@progbits,_ZNKSt12_Vector_baseIP12netlist_elemSaIS1_EE19_M_get_Tp_allocatorEv,comdat
	.weak	_ZNKSt12_Vector_baseIP12netlist_elemSaIS1_EE19_M_get_Tp_allocatorEv
	.align	16, 0x90
	.type	_ZNKSt12_Vector_baseIP12netlist_elemSaIS1_EE19_M_get_Tp_allocatorEv,@function
_ZNKSt12_Vector_baseIP12netlist_elemSaIS1_EE19_M_get_Tp_allocatorEv: # @_ZNKSt12_Vector_baseIP12netlist_elemSaIS1_EE19_M_get_Tp_allocatorEv
	.cfi_startproc
.Lfunc_begin97:
	.loc	20 118 0                # /usr/lib/gcc/x86_64-linux-gnu/4.8/../../../../include/c++/4.8/bits/stl_vector.h:118:0
# BB#0:                                 # %entry
	movq	%rdi, -8(%rsp)
	.loc	20 118 0 prologue_end   # /usr/lib/gcc/x86_64-linux-gnu/4.8/../../../../include/c++/4.8/bits/stl_vector.h:118:0
.Ltmp857:
	movq	%rdi, %rax
	ret
.Ltmp858:
.Ltmp859:
	.size	_ZNKSt12_Vector_baseIP12netlist_elemSaIS1_EE19_M_get_Tp_allocatorEv, .Ltmp859-_ZNKSt12_Vector_baseIP12netlist_elemSaIS1_EE19_M_get_Tp_allocatorEv
.Lfunc_end97:
	.cfi_endproc

	.section	.text._ZSt23__copy_move_backward_a2ILb0EPP12netlist_elemS2_ET1_T0_S4_S3_,"axG",@progbits,_ZSt23__copy_move_backward_a2ILb0EPP12netlist_elemS2_ET1_T0_S4_S3_,comdat
	.weak	_ZSt23__copy_move_backward_a2ILb0EPP12netlist_elemS2_ET1_T0_S4_S3_
	.align	16, 0x90
	.type	_ZSt23__copy_move_backward_a2ILb0EPP12netlist_elemS2_ET1_T0_S4_S3_,@function
_ZSt23__copy_move_backward_a2ILb0EPP12netlist_elemS2_ET1_T0_S4_S3_: # @_ZSt23__copy_move_backward_a2ILb0EPP12netlist_elemS2_ET1_T0_S4_S3_
	.cfi_startproc
.Lfunc_begin98:
	.loc	32 593 0                # /usr/lib/gcc/x86_64-linux-gnu/4.8/../../../../include/c++/4.8/bits/stl_algobase.h:593:0
# BB#0:                                 # %entry
	pushq	%r14
.Ltmp863:
	.cfi_def_cfa_offset 16
	pushq	%rbx
.Ltmp864:
	.cfi_def_cfa_offset 24
	subq	$24, %rsp
.Ltmp865:
	.cfi_def_cfa_offset 48
.Ltmp866:
	.cfi_offset %rbx, -24
.Ltmp867:
	.cfi_offset %r14, -16
	movq	%rdi, 16(%rsp)
	movq	%rsi, 8(%rsp)
	movq	%rdx, (%rsp)
	.loc	32 595 0 prologue_end   # /usr/lib/gcc/x86_64-linux-gnu/4.8/../../../../include/c++/4.8/bits/stl_algobase.h:595:0
.Ltmp868:
	movq	16(%rsp), %rdi
	callq	_ZSt12__niter_baseIPP12netlist_elemENSt11_Niter_baseIT_E13iterator_typeES4_
	movq	%rax, %r14
	movq	8(%rsp), %rdi
	callq	_ZSt12__niter_baseIPP12netlist_elemENSt11_Niter_baseIT_E13iterator_typeES4_
	movq	%rax, %rbx
	.loc	32 596 0                # /usr/lib/gcc/x86_64-linux-gnu/4.8/../../../../include/c++/4.8/bits/stl_algobase.h:596:0
	movq	(%rsp), %rdi
	callq	_ZSt12__niter_baseIPP12netlist_elemENSt11_Niter_baseIT_E13iterator_typeES4_
	movq	%r14, %rdi
	movq	%rbx, %rsi
	movq	%rax, %rdx
	callq	_ZSt22__copy_move_backward_aILb0EPP12netlist_elemS2_ET1_T0_S4_S3_
	addq	$24, %rsp
	popq	%rbx
	popq	%r14
	ret
.Ltmp869:
.Ltmp870:
	.size	_ZSt23__copy_move_backward_a2ILb0EPP12netlist_elemS2_ET1_T0_S4_S3_, .Ltmp870-_ZSt23__copy_move_backward_a2ILb0EPP12netlist_elemS2_ET1_T0_S4_S3_
.Lfunc_end98:
	.cfi_endproc

	.section	.text._ZSt22__copy_move_backward_aILb0EPP12netlist_elemS2_ET1_T0_S4_S3_,"axG",@progbits,_ZSt22__copy_move_backward_aILb0EPP12netlist_elemS2_ET1_T0_S4_S3_,comdat
	.weak	_ZSt22__copy_move_backward_aILb0EPP12netlist_elemS2_ET1_T0_S4_S3_
	.align	16, 0x90
	.type	_ZSt22__copy_move_backward_aILb0EPP12netlist_elemS2_ET1_T0_S4_S3_,@function
_ZSt22__copy_move_backward_aILb0EPP12netlist_elemS2_ET1_T0_S4_S3_: # @_ZSt22__copy_move_backward_aILb0EPP12netlist_elemS2_ET1_T0_S4_S3_
	.cfi_startproc
.Lfunc_begin99:
	.loc	32 575 0                # /usr/lib/gcc/x86_64-linux-gnu/4.8/../../../../include/c++/4.8/bits/stl_algobase.h:575:0
# BB#0:                                 # %entry
	subq	$40, %rsp
.Ltmp872:
	.cfi_def_cfa_offset 48
	movq	%rdi, 32(%rsp)
	movq	%rsi, 24(%rsp)
	movq	%rdx, 16(%rsp)
	.loc	32 582 0 prologue_end   # /usr/lib/gcc/x86_64-linux-gnu/4.8/../../../../include/c++/4.8/bits/stl_algobase.h:582:0
.Ltmp873:
	movb	$1, 15(%rsp)
	.loc	32 584 0                # /usr/lib/gcc/x86_64-linux-gnu/4.8/../../../../include/c++/4.8/bits/stl_algobase.h:584:0
	movq	16(%rsp), %rdx
	movq	24(%rsp), %rsi
	movq	32(%rsp), %rdi
	callq	_ZNSt20__copy_move_backwardILb0ELb1ESt26random_access_iterator_tagE13__copy_move_bIP12netlist_elemEEPT_PKS5_S8_S6_
	addq	$40, %rsp
	ret
.Ltmp874:
.Ltmp875:
	.size	_ZSt22__copy_move_backward_aILb0EPP12netlist_elemS2_ET1_T0_S4_S3_, .Ltmp875-_ZSt22__copy_move_backward_aILb0EPP12netlist_elemS2_ET1_T0_S4_S3_
.Lfunc_end99:
	.cfi_endproc

	.section	.text._ZNSt20__copy_move_backwardILb0ELb1ESt26random_access_iterator_tagE13__copy_move_bIP12netlist_elemEEPT_PKS5_S8_S6_,"axG",@progbits,_ZNSt20__copy_move_backwardILb0ELb1ESt26random_access_iterator_tagE13__copy_move_bIP12netlist_elemEEPT_PKS5_S8_S6_,comdat
	.weak	_ZNSt20__copy_move_backwardILb0ELb1ESt26random_access_iterator_tagE13__copy_move_bIP12netlist_elemEEPT_PKS5_S8_S6_
	.align	16, 0x90
	.type	_ZNSt20__copy_move_backwardILb0ELb1ESt26random_access_iterator_tagE13__copy_move_bIP12netlist_elemEEPT_PKS5_S8_S6_,@function
_ZNSt20__copy_move_backwardILb0ELb1ESt26random_access_iterator_tagE13__copy_move_bIP12netlist_elemEEPT_PKS5_S8_S6_: # @_ZNSt20__copy_move_backwardILb0ELb1ESt26random_access_iterator_tagE13__copy_move_bIP12netlist_elemEEPT_PKS5_S8_S6_
	.cfi_startproc
.Lfunc_begin100:
	.loc	32 564 0                # /usr/lib/gcc/x86_64-linux-gnu/4.8/../../../../include/c++/4.8/bits/stl_algobase.h:564:0
# BB#0:                                 # %entry
	subq	$40, %rsp
.Ltmp877:
	.cfi_def_cfa_offset 48
	movq	%rdi, 32(%rsp)
	movq	%rsi, 24(%rsp)
	movq	%rdx, 16(%rsp)
	.loc	32 565 0 prologue_end   # /usr/lib/gcc/x86_64-linux-gnu/4.8/../../../../include/c++/4.8/bits/stl_algobase.h:565:0
.Ltmp878:
	movq	24(%rsp), %rax
	subq	32(%rsp), %rax
	sarq	$3, %rax
	movq	%rax, 8(%rsp)
	testq	%rax, %rax
	je	.LBB100_2
# BB#1:                                 # %if.then
	.loc	32 567 0                # /usr/lib/gcc/x86_64-linux-gnu/4.8/../../../../include/c++/4.8/bits/stl_algobase.h:567:0
	movq	8(%rsp), %rdx
	shlq	$3, %rdx
	movq	16(%rsp), %rdi
	subq	%rdx, %rdi
	movq	32(%rsp), %rsi
	callq	memmove
.LBB100_2:                              # %if.end
	.loc	32 568 0                # /usr/lib/gcc/x86_64-linux-gnu/4.8/../../../../include/c++/4.8/bits/stl_algobase.h:568:0
	movq	8(%rsp), %rcx
	shlq	$3, %rcx
	movq	16(%rsp), %rax
	subq	%rcx, %rax
	addq	$40, %rsp
	ret
.Ltmp879:
.Ltmp880:
	.size	_ZNSt20__copy_move_backwardILb0ELb1ESt26random_access_iterator_tagE13__copy_move_bIP12netlist_elemEEPT_PKS5_S8_S6_, .Ltmp880-_ZNSt20__copy_move_backwardILb0ELb1ESt26random_access_iterator_tagE13__copy_move_bIP12netlist_elemEEPT_PKS5_S8_S6_
.Lfunc_end100:
	.cfi_endproc

	.section	.text._ZN9__gnu_cxx13new_allocatorIP12netlist_elemE9constructEPS2_RKS2_,"axG",@progbits,_ZN9__gnu_cxx13new_allocatorIP12netlist_elemE9constructEPS2_RKS2_,comdat
	.weak	_ZN9__gnu_cxx13new_allocatorIP12netlist_elemE9constructEPS2_RKS2_
	.align	16, 0x90
	.type	_ZN9__gnu_cxx13new_allocatorIP12netlist_elemE9constructEPS2_RKS2_,@function
_ZN9__gnu_cxx13new_allocatorIP12netlist_elemE9constructEPS2_RKS2_: # @_ZN9__gnu_cxx13new_allocatorIP12netlist_elemE9constructEPS2_RKS2_
	.cfi_startproc
.Lfunc_begin101:
	.loc	9 130 0                 # /usr/lib/gcc/x86_64-linux-gnu/4.8/../../../../include/c++/4.8/ext/new_allocator.h:130:0
# BB#0:                                 # %entry
	movq	%rdi, -8(%rsp)
	movq	%rsi, -16(%rsp)
	movq	%rdx, -24(%rsp)
	.loc	9 130 0 prologue_end    # /usr/lib/gcc/x86_64-linux-gnu/4.8/../../../../include/c++/4.8/ext/new_allocator.h:130:0
.Ltmp881:
	movq	-16(%rsp), %rax
	testq	%rax, %rax
	je	.LBB101_2
# BB#1:                                 # %new.notnull
	movq	-24(%rsp), %rcx
	movq	(%rcx), %rcx
	movq	%rcx, (%rax)
.LBB101_2:                              # %new.cont
	ret
.Ltmp882:
.Ltmp883:
	.size	_ZN9__gnu_cxx13new_allocatorIP12netlist_elemE9constructEPS2_RKS2_, .Ltmp883-_ZN9__gnu_cxx13new_allocatorIP12netlist_elemE9constructEPS2_RKS2_
.Lfunc_end101:
	.cfi_endproc

	.section	.text._ZN7threads9AtomicPtrI10location_tE10PrivateSetEPS1_,"axG",@progbits,_ZN7threads9AtomicPtrI10location_tE10PrivateSetEPS1_,comdat
	.weak	_ZN7threads9AtomicPtrI10location_tE10PrivateSetEPS1_
	.align	16, 0x90
	.type	_ZN7threads9AtomicPtrI10location_tE10PrivateSetEPS1_,@function
_ZN7threads9AtomicPtrI10location_tE10PrivateSetEPS1_: # @_ZN7threads9AtomicPtrI10location_tE10PrivateSetEPS1_
	.cfi_startproc
.Lfunc_begin102:
	.loc	24 119 0                # src/AtomicPtr.h:119:0
# BB#0:                                 # %entry
	pushq	%rbx
.Ltmp886:
	.cfi_def_cfa_offset 16
	subq	$32, %rsp
.Ltmp887:
	.cfi_def_cfa_offset 48
.Ltmp888:
	.cfi_offset %rbx, -16
	movq	%rdi, 24(%rsp)
	movq	%rsi, 16(%rsp)
	movq	24(%rsp), %rbx
	.align	16, 0x90
.LBB102_1:                              # %do.cond
                                        # =>This Inner Loop Header: Depth=1
	.loc	24 123 0 prologue_end   # src/AtomicPtr.h:123:0
.Ltmp889:
	movq	%rbx, %rdi
	callq	_ZNK7threads9AtomicPtrI10location_tE3GetEv
	movq	%rax, 8(%rsp)
.Ltmp890:
	.loc	24 124 0                # src/AtomicPtr.h:124:0
	movq	16(%rsp), %rdx
	movq	%rbx, %rdi
	movq	%rax, %rsi
	callq	_ZL18atomic_cmpset_longPVmmm
	testl	%eax, %eax
	je	.LBB102_1
# BB#2:                                 # %do.end
	.loc	24 126 0                # src/AtomicPtr.h:126:0
	movq	8(%rsp), %rax
	addq	$32, %rsp
	popq	%rbx
	ret
.Ltmp891:
.Ltmp892:
	.size	_ZN7threads9AtomicPtrI10location_tE10PrivateSetEPS1_, .Ltmp892-_ZN7threads9AtomicPtrI10location_tE10PrivateSetEPS1_
.Lfunc_end102:
	.cfi_endproc

	.text
	.align	16, 0x90
	.type	_ZL18atomic_cmpset_longPVmmm,@function
_ZL18atomic_cmpset_longPVmmm:           # @_ZL18atomic_cmpset_longPVmmm
	.cfi_startproc
.Lfunc_begin103:
	.loc	33 110 0                # src/atomic/amd64/atomic.h:110:0
# BB#0:                                 # %entry
	movq	%rdi, -8(%rsp)
	movq	%rsi, -16(%rsp)
	movq	%rdx, -24(%rsp)
	.loc	33 111 0 prologue_end   # src/atomic/amd64/atomic.h:111:0
.Ltmp893:
	movq	-16(%rsp), %rax
	movq	%rax, -32(%rsp)
	.loc	33 113 0                # src/atomic/amd64/atomic.h:113:0
	movq	-24(%rsp), %rcx
	movq	-8(%rsp), %rdx
	#APP
		lock ;		cmpxchgq %rcx,(%rdx) ;	       setz	%al ;			movzbq	%al,%rax ;	1:				# atomic_cmpset_long
	#NO_APP
	movq	%rax, -32(%rsp)
	.loc	33 126 0                # src/atomic/amd64/atomic.h:126:0
	movl	-32(%rsp), %eax
	ret
.Ltmp894:
.Ltmp895:
	.size	_ZL18atomic_cmpset_longPVmmm, .Ltmp895-_ZL18atomic_cmpset_longPVmmm
.Lfunc_end103:
	.cfi_endproc

	.section	.text._ZNKSt6vectorI12netlist_elemSaIS0_EE14_M_range_checkEm,"axG",@progbits,_ZNKSt6vectorI12netlist_elemSaIS0_EE14_M_range_checkEm,comdat
	.weak	_ZNKSt6vectorI12netlist_elemSaIS0_EE14_M_range_checkEm
	.align	16, 0x90
	.type	_ZNKSt6vectorI12netlist_elemSaIS0_EE14_M_range_checkEm,@function
_ZNKSt6vectorI12netlist_elemSaIS0_EE14_M_range_checkEm: # @_ZNKSt6vectorI12netlist_elemSaIS0_EE14_M_range_checkEm
	.cfi_startproc
.Lfunc_begin104:
	.loc	20 792 0                # /usr/lib/gcc/x86_64-linux-gnu/4.8/../../../../include/c++/4.8/bits/stl_vector.h:792:0
# BB#0:                                 # %entry
	pushq	%rbx
.Ltmp898:
	.cfi_def_cfa_offset 16
	subq	$16, %rsp
.Ltmp899:
	.cfi_def_cfa_offset 32
.Ltmp900:
	.cfi_offset %rbx, -16
	movq	%rsi, %rbx
	movq	%rdi, 8(%rsp)
	movq	%rbx, (%rsp)
	movq	8(%rsp), %rdi
	.loc	20 793 0 prologue_end   # /usr/lib/gcc/x86_64-linux-gnu/4.8/../../../../include/c++/4.8/bits/stl_vector.h:793:0
.Ltmp901:
	callq	_ZNKSt6vectorI12netlist_elemSaIS0_EE4sizeEv
	cmpq	%rax, %rbx
	jae	.LBB104_2
# BB#1:                                 # %if.end
	.loc	20 795 0                # /usr/lib/gcc/x86_64-linux-gnu/4.8/../../../../include/c++/4.8/bits/stl_vector.h:795:0
	addq	$16, %rsp
	popq	%rbx
	ret
.LBB104_2:                              # %if.then
	.loc	20 794 0                # /usr/lib/gcc/x86_64-linux-gnu/4.8/../../../../include/c++/4.8/bits/stl_vector.h:794:0
	movl	$.L.str8, %edi
	callq	_ZSt20__throw_out_of_rangePKc
.Ltmp902:
.Ltmp903:
	.size	_ZNKSt6vectorI12netlist_elemSaIS0_EE14_M_range_checkEm, .Ltmp903-_ZNKSt6vectorI12netlist_elemSaIS0_EE14_M_range_checkEm
.Lfunc_end104:
	.cfi_endproc

	.section	.text._ZNKSt6vectorI12netlist_elemSaIS0_EE4sizeEv,"axG",@progbits,_ZNKSt6vectorI12netlist_elemSaIS0_EE4sizeEv,comdat
	.weak	_ZNKSt6vectorI12netlist_elemSaIS0_EE4sizeEv
	.align	16, 0x90
	.type	_ZNKSt6vectorI12netlist_elemSaIS0_EE4sizeEv,@function
_ZNKSt6vectorI12netlist_elemSaIS0_EE4sizeEv: # @_ZNKSt6vectorI12netlist_elemSaIS0_EE4sizeEv
	.cfi_startproc
.Lfunc_begin105:
	.loc	20 646 0                # /usr/lib/gcc/x86_64-linux-gnu/4.8/../../../../include/c++/4.8/bits/stl_vector.h:646:0
# BB#0:                                 # %entry
	movq	%rdi, -8(%rsp)
	.loc	20 646 0 prologue_end   # /usr/lib/gcc/x86_64-linux-gnu/4.8/../../../../include/c++/4.8/bits/stl_vector.h:646:0
.Ltmp904:
	movq	8(%rdi), %rax
	subq	(%rdi), %rax
	sarq	$6, %rax
	ret
.Ltmp905:
.Ltmp906:
	.size	_ZNKSt6vectorI12netlist_elemSaIS0_EE4sizeEv, .Ltmp906-_ZNKSt6vectorI12netlist_elemSaIS0_EE4sizeEv
.Lfunc_end105:
	.cfi_endproc

	.section	.text._ZNKSt6vectorI10location_tSaIS0_EE14_M_range_checkEm,"axG",@progbits,_ZNKSt6vectorI10location_tSaIS0_EE14_M_range_checkEm,comdat
	.weak	_ZNKSt6vectorI10location_tSaIS0_EE14_M_range_checkEm
	.align	16, 0x90
	.type	_ZNKSt6vectorI10location_tSaIS0_EE14_M_range_checkEm,@function
_ZNKSt6vectorI10location_tSaIS0_EE14_M_range_checkEm: # @_ZNKSt6vectorI10location_tSaIS0_EE14_M_range_checkEm
	.cfi_startproc
.Lfunc_begin106:
	.loc	20 792 0                # /usr/lib/gcc/x86_64-linux-gnu/4.8/../../../../include/c++/4.8/bits/stl_vector.h:792:0
# BB#0:                                 # %entry
	pushq	%rbx
.Ltmp909:
	.cfi_def_cfa_offset 16
	subq	$16, %rsp
.Ltmp910:
	.cfi_def_cfa_offset 32
.Ltmp911:
	.cfi_offset %rbx, -16
	movq	%rsi, %rbx
	movq	%rdi, 8(%rsp)
	movq	%rbx, (%rsp)
	movq	8(%rsp), %rdi
	.loc	20 793 0 prologue_end   # /usr/lib/gcc/x86_64-linux-gnu/4.8/../../../../include/c++/4.8/bits/stl_vector.h:793:0
.Ltmp912:
	callq	_ZNKSt6vectorI10location_tSaIS0_EE4sizeEv
	cmpq	%rax, %rbx
	jae	.LBB106_2
# BB#1:                                 # %if.end
	.loc	20 795 0                # /usr/lib/gcc/x86_64-linux-gnu/4.8/../../../../include/c++/4.8/bits/stl_vector.h:795:0
	addq	$16, %rsp
	popq	%rbx
	ret
.LBB106_2:                              # %if.then
	.loc	20 794 0                # /usr/lib/gcc/x86_64-linux-gnu/4.8/../../../../include/c++/4.8/bits/stl_vector.h:794:0
	movl	$.L.str8, %edi
	callq	_ZSt20__throw_out_of_rangePKc
.Ltmp913:
.Ltmp914:
	.size	_ZNKSt6vectorI10location_tSaIS0_EE14_M_range_checkEm, .Ltmp914-_ZNKSt6vectorI10location_tSaIS0_EE14_M_range_checkEm
.Lfunc_end106:
	.cfi_endproc

	.section	.text._ZNSt6vectorI10location_tSaIS0_EEixEm,"axG",@progbits,_ZNSt6vectorI10location_tSaIS0_EEixEm,comdat
	.weak	_ZNSt6vectorI10location_tSaIS0_EEixEm
	.align	16, 0x90
	.type	_ZNSt6vectorI10location_tSaIS0_EEixEm,@function
_ZNSt6vectorI10location_tSaIS0_EEixEm:  # @_ZNSt6vectorI10location_tSaIS0_EEixEm
	.cfi_startproc
.Lfunc_begin107:
	.loc	20 771 0                # /usr/lib/gcc/x86_64-linux-gnu/4.8/../../../../include/c++/4.8/bits/stl_vector.h:771:0
# BB#0:                                 # %entry
	movq	%rdi, -8(%rsp)
	movq	%rsi, -16(%rsp)
	.loc	20 771 0 prologue_end   # /usr/lib/gcc/x86_64-linux-gnu/4.8/../../../../include/c++/4.8/bits/stl_vector.h:771:0
.Ltmp915:
	leaq	(,%rsi,8), %rax
	movq	-8(%rsp), %rcx
	addq	(%rcx), %rax
	ret
.Ltmp916:
.Ltmp917:
	.size	_ZNSt6vectorI10location_tSaIS0_EEixEm, .Ltmp917-_ZNSt6vectorI10location_tSaIS0_EEixEm
.Lfunc_end107:
	.cfi_endproc

	.section	.text._ZNKSt6vectorI10location_tSaIS0_EE4sizeEv,"axG",@progbits,_ZNKSt6vectorI10location_tSaIS0_EE4sizeEv,comdat
	.weak	_ZNKSt6vectorI10location_tSaIS0_EE4sizeEv
	.align	16, 0x90
	.type	_ZNKSt6vectorI10location_tSaIS0_EE4sizeEv,@function
_ZNKSt6vectorI10location_tSaIS0_EE4sizeEv: # @_ZNKSt6vectorI10location_tSaIS0_EE4sizeEv
	.cfi_startproc
.Lfunc_begin108:
	.loc	20 646 0                # /usr/lib/gcc/x86_64-linux-gnu/4.8/../../../../include/c++/4.8/bits/stl_vector.h:646:0
# BB#0:                                 # %entry
	movq	%rdi, -8(%rsp)
	.loc	20 646 0 prologue_end   # /usr/lib/gcc/x86_64-linux-gnu/4.8/../../../../include/c++/4.8/bits/stl_vector.h:646:0
.Ltmp918:
	movq	8(%rdi), %rax
	subq	(%rdi), %rax
	sarq	$3, %rax
	ret
.Ltmp919:
.Ltmp920:
	.size	_ZNKSt6vectorI10location_tSaIS0_EE4sizeEv, .Ltmp920-_ZNKSt6vectorI10location_tSaIS0_EE4sizeEv
.Lfunc_end108:
	.cfi_endproc

	.section	.text._ZNKSt6vectorIS_I10location_tSaIS0_EESaIS2_EE14_M_range_checkEm,"axG",@progbits,_ZNKSt6vectorIS_I10location_tSaIS0_EESaIS2_EE14_M_range_checkEm,comdat
	.weak	_ZNKSt6vectorIS_I10location_tSaIS0_EESaIS2_EE14_M_range_checkEm
	.align	16, 0x90
	.type	_ZNKSt6vectorIS_I10location_tSaIS0_EESaIS2_EE14_M_range_checkEm,@function
_ZNKSt6vectorIS_I10location_tSaIS0_EESaIS2_EE14_M_range_checkEm: # @_ZNKSt6vectorIS_I10location_tSaIS0_EESaIS2_EE14_M_range_checkEm
	.cfi_startproc
.Lfunc_begin109:
	.loc	20 792 0                # /usr/lib/gcc/x86_64-linux-gnu/4.8/../../../../include/c++/4.8/bits/stl_vector.h:792:0
# BB#0:                                 # %entry
	pushq	%rbx
.Ltmp923:
	.cfi_def_cfa_offset 16
	subq	$16, %rsp
.Ltmp924:
	.cfi_def_cfa_offset 32
.Ltmp925:
	.cfi_offset %rbx, -16
	movq	%rsi, %rbx
	movq	%rdi, 8(%rsp)
	movq	%rbx, (%rsp)
	movq	8(%rsp), %rdi
	.loc	20 793 0 prologue_end   # /usr/lib/gcc/x86_64-linux-gnu/4.8/../../../../include/c++/4.8/bits/stl_vector.h:793:0
.Ltmp926:
	callq	_ZNKSt6vectorIS_I10location_tSaIS0_EESaIS2_EE4sizeEv
	cmpq	%rax, %rbx
	jae	.LBB109_2
# BB#1:                                 # %if.end
	.loc	20 795 0                # /usr/lib/gcc/x86_64-linux-gnu/4.8/../../../../include/c++/4.8/bits/stl_vector.h:795:0
	addq	$16, %rsp
	popq	%rbx
	ret
.LBB109_2:                              # %if.then
	.loc	20 794 0                # /usr/lib/gcc/x86_64-linux-gnu/4.8/../../../../include/c++/4.8/bits/stl_vector.h:794:0
	movl	$.L.str8, %edi
	callq	_ZSt20__throw_out_of_rangePKc
.Ltmp927:
.Ltmp928:
	.size	_ZNKSt6vectorIS_I10location_tSaIS0_EESaIS2_EE14_M_range_checkEm, .Ltmp928-_ZNKSt6vectorIS_I10location_tSaIS0_EESaIS2_EE14_M_range_checkEm
.Lfunc_end109:
	.cfi_endproc

	.section	.text._ZNSt6vectorIS_I10location_tSaIS0_EESaIS2_EEixEm,"axG",@progbits,_ZNSt6vectorIS_I10location_tSaIS0_EESaIS2_EEixEm,comdat
	.weak	_ZNSt6vectorIS_I10location_tSaIS0_EESaIS2_EEixEm
	.align	16, 0x90
	.type	_ZNSt6vectorIS_I10location_tSaIS0_EESaIS2_EEixEm,@function
_ZNSt6vectorIS_I10location_tSaIS0_EESaIS2_EEixEm: # @_ZNSt6vectorIS_I10location_tSaIS0_EESaIS2_EEixEm
	.cfi_startproc
.Lfunc_begin110:
	.loc	20 771 0                # /usr/lib/gcc/x86_64-linux-gnu/4.8/../../../../include/c++/4.8/bits/stl_vector.h:771:0
# BB#0:                                 # %entry
	movq	%rdi, -8(%rsp)
	movq	%rsi, -16(%rsp)
	.loc	20 771 0 prologue_end   # /usr/lib/gcc/x86_64-linux-gnu/4.8/../../../../include/c++/4.8/bits/stl_vector.h:771:0
.Ltmp929:
	leaq	(%rsi,%rsi,2), %rax
	shlq	$3, %rax
	movq	-8(%rsp), %rcx
	addq	(%rcx), %rax
	ret
.Ltmp930:
.Ltmp931:
	.size	_ZNSt6vectorIS_I10location_tSaIS0_EESaIS2_EEixEm, .Ltmp931-_ZNSt6vectorIS_I10location_tSaIS0_EESaIS2_EEixEm
.Lfunc_end110:
	.cfi_endproc

	.section	.text._ZNKSt6vectorIS_I10location_tSaIS0_EESaIS2_EE4sizeEv,"axG",@progbits,_ZNKSt6vectorIS_I10location_tSaIS0_EESaIS2_EE4sizeEv,comdat
	.weak	_ZNKSt6vectorIS_I10location_tSaIS0_EESaIS2_EE4sizeEv
	.align	16, 0x90
	.type	_ZNKSt6vectorIS_I10location_tSaIS0_EESaIS2_EE4sizeEv,@function
_ZNKSt6vectorIS_I10location_tSaIS0_EESaIS2_EE4sizeEv: # @_ZNKSt6vectorIS_I10location_tSaIS0_EESaIS2_EE4sizeEv
	.cfi_startproc
.Lfunc_begin111:
	.loc	20 646 0                # /usr/lib/gcc/x86_64-linux-gnu/4.8/../../../../include/c++/4.8/bits/stl_vector.h:646:0
# BB#0:                                 # %entry
	movq	%rdi, -8(%rsp)
	.loc	20 646 0 prologue_end   # /usr/lib/gcc/x86_64-linux-gnu/4.8/../../../../include/c++/4.8/bits/stl_vector.h:646:0
.Ltmp932:
	movq	8(%rdi), %rcx
	subq	(%rdi), %rcx
	sarq	$3, %rcx
	movabsq	$-6148914691236517205, %rax # imm = 0xAAAAAAAAAAAAAAAB
	imulq	%rcx, %rax
	ret
.Ltmp933:
.Ltmp934:
	.size	_ZNKSt6vectorIS_I10location_tSaIS0_EESaIS2_EE4sizeEv, .Ltmp934-_ZNKSt6vectorIS_I10location_tSaIS0_EESaIS2_EE4sizeEv
.Lfunc_end111:
	.cfi_endproc

	.section	.text._ZNSt6vectorI10location_tSaIS0_EEC2ERKS2_,"axG",@progbits,_ZNSt6vectorI10location_tSaIS0_EEC2ERKS2_,comdat
	.weak	_ZNSt6vectorI10location_tSaIS0_EEC2ERKS2_
	.align	16, 0x90
	.type	_ZNSt6vectorI10location_tSaIS0_EEC2ERKS2_,@function
_ZNSt6vectorI10location_tSaIS0_EEC2ERKS2_: # @_ZNSt6vectorI10location_tSaIS0_EEC2ERKS2_
	.cfi_startproc
	.cfi_personality 3, __gxx_personality_v0
.Leh_func_begin112:
	.cfi_lsda 3, .Lexception112
.Lfunc_begin112:
	.loc	20 313 0                # /usr/lib/gcc/x86_64-linux-gnu/4.8/../../../../include/c++/4.8/bits/stl_vector.h:313:0
# BB#0:                                 # %entry
	pushq	%r14
.Ltmp950:
	.cfi_def_cfa_offset 16
	pushq	%rbx
.Ltmp951:
	.cfi_def_cfa_offset 24
	subq	$56, %rsp
.Ltmp952:
	.cfi_def_cfa_offset 80
.Ltmp953:
	.cfi_offset %rbx, -24
.Ltmp954:
	.cfi_offset %r14, -16
	movq	%rdi, 48(%rsp)
	movq	%rsi, 40(%rsp)
	movq	48(%rsp), %rbx
	.loc	20 311 0 prologue_end   # /usr/lib/gcc/x86_64-linux-gnu/4.8/../../../../include/c++/4.8/bits/stl_vector.h:311:0
.Ltmp955:
	movq	%rsi, %rdi
	callq	_ZNKSt6vectorI10location_tSaIS0_EE4sizeEv
	movq	%rax, %r14
	.loc	20 312 0                # /usr/lib/gcc/x86_64-linux-gnu/4.8/../../../../include/c++/4.8/bits/stl_vector.h:312:0
	movq	40(%rsp), %rdi
	callq	_ZNKSt12_Vector_baseI10location_tSaIS0_EE19_M_get_Tp_allocatorEv
	movq	%rax, %rdi
	callq	_ZN9__gnu_cxx14__alloc_traitsISaI10location_tEE17_S_select_on_copyERKS2_
	movq	%rbx, %rdi
	movq	%r14, %rsi
	movq	%rax, %rdx
	callq	_ZNSt12_Vector_baseI10location_tSaIS0_EEC2EmRKS1_
	.loc	20 314 0                # /usr/lib/gcc/x86_64-linux-gnu/4.8/../../../../include/c++/4.8/bits/stl_vector.h:314:0
.Ltmp956:
	movq	40(%rsp), %rdi
.Ltmp935:
	callq	_ZNKSt6vectorI10location_tSaIS0_EE5beginEv
.Ltmp936:
# BB#1:                                 # %invoke.cont
	movq	%rax, 32(%rsp)
	movq	40(%rsp), %rdi
.Ltmp937:
	callq	_ZNKSt6vectorI10location_tSaIS0_EE3endEv
.Ltmp938:
# BB#2:                                 # %invoke.cont6
	movq	%rax, 8(%rsp)
	movq	(%rbx), %r14
	.loc	20 316 0                # /usr/lib/gcc/x86_64-linux-gnu/4.8/../../../../include/c++/4.8/bits/stl_vector.h:316:0
.Ltmp939:
	movq	%rbx, %rdi
	callq	_ZNSt12_Vector_baseI10location_tSaIS0_EE19_M_get_Tp_allocatorEv
.Ltmp940:
# BB#3:                                 # %invoke.cont9
	movq	8(%rsp), %rsi
	movq	32(%rsp), %rdi
.Ltmp941:
	movq	%r14, %rdx
	movq	%rax, %rcx
	callq	_ZSt22__uninitialized_copy_aIN9__gnu_cxx17__normal_iteratorIPK10location_tSt6vectorIS2_SaIS2_EEEEPS2_S2_ET0_T_SB_SA_RSaIT1_E
.Ltmp942:
# BB#4:                                 # %invoke.cont13
	movq	%rax, 8(%rbx)
	.loc	20 317 0                # /usr/lib/gcc/x86_64-linux-gnu/4.8/../../../../include/c++/4.8/bits/stl_vector.h:317:0
	addq	$56, %rsp
	popq	%rbx
	popq	%r14
	ret
.LBB112_5:                              # %lpad
.Ltmp943:
	.loc	20 314 0                # /usr/lib/gcc/x86_64-linux-gnu/4.8/../../../../include/c++/4.8/bits/stl_vector.h:314:0
	movq	%rax, 24(%rsp)
	movl	%edx, 20(%rsp)
	.loc	20 317 0                # /usr/lib/gcc/x86_64-linux-gnu/4.8/../../../../include/c++/4.8/bits/stl_vector.h:317:0
.Ltmp944:
	movq	%rbx, %rdi
	callq	_ZNSt12_Vector_baseI10location_tSaIS0_EED2Ev
.Ltmp945:
# BB#6:                                 # %eh.resume
	movq	24(%rsp), %rdi
	callq	_Unwind_Resume
.LBB112_7:                              # %terminate.lpad
.Ltmp946:
	callq	_ZSt9terminatev
.Ltmp957:
.Ltmp958:
	.size	_ZNSt6vectorI10location_tSaIS0_EEC2ERKS2_, .Ltmp958-_ZNSt6vectorI10location_tSaIS0_EEC2ERKS2_
.Lfunc_end112:
	.cfi_endproc
.Leh_func_end112:
	.section	.gcc_except_table,"a",@progbits
	.align	4
GCC_except_table112:
.Lexception112:
	.byte	255                     # @LPStart Encoding = omit
	.byte	3                       # @TType Encoding = udata4
	.asciz	 "\274"                 # @TType base offset
	.byte	3                       # Call site Encoding = udata4
	.byte	52                      # Call site table length
.Lset109 = .Leh_func_begin112-.Leh_func_begin112 # >> Call Site 1 <<
	.long	.Lset109
.Lset110 = .Ltmp935-.Leh_func_begin112  #   Call between .Leh_func_begin112 and .Ltmp935
	.long	.Lset110
	.long	0                       #     has no landing pad
	.byte	0                       #   On action: cleanup
.Lset111 = .Ltmp935-.Leh_func_begin112  # >> Call Site 2 <<
	.long	.Lset111
.Lset112 = .Ltmp942-.Ltmp935            #   Call between .Ltmp935 and .Ltmp942
	.long	.Lset112
.Lset113 = .Ltmp943-.Leh_func_begin112  #     jumps to .Ltmp943
	.long	.Lset113
	.byte	0                       #   On action: cleanup
.Lset114 = .Ltmp944-.Leh_func_begin112  # >> Call Site 3 <<
	.long	.Lset114
.Lset115 = .Ltmp945-.Ltmp944            #   Call between .Ltmp944 and .Ltmp945
	.long	.Lset115
.Lset116 = .Ltmp946-.Leh_func_begin112  #     jumps to .Ltmp946
	.long	.Lset116
	.byte	1                       #   On action: 1
.Lset117 = .Ltmp945-.Leh_func_begin112  # >> Call Site 4 <<
	.long	.Lset117
.Lset118 = .Leh_func_end112-.Ltmp945    #   Call between .Ltmp945 and .Leh_func_end112
	.long	.Lset118
	.long	0                       #     has no landing pad
	.byte	0                       #   On action: cleanup
	.byte	1                       # >> Action Record 1 <<
                                        #   Catch TypeInfo 1
	.byte	0                       #   No further actions
                                        # >> Catch TypeInfos <<
	.long	0                       # TypeInfo 1
	.align	4

	.section	.text._ZNSt12_Vector_baseI10location_tSaIS0_EEC2EmRKS1_,"axG",@progbits,_ZNSt12_Vector_baseI10location_tSaIS0_EEC2EmRKS1_,comdat
	.weak	_ZNSt12_Vector_baseI10location_tSaIS0_EEC2EmRKS1_
	.align	16, 0x90
	.type	_ZNSt12_Vector_baseI10location_tSaIS0_EEC2EmRKS1_,@function
_ZNSt12_Vector_baseI10location_tSaIS0_EEC2EmRKS1_: # @_ZNSt12_Vector_baseI10location_tSaIS0_EEC2EmRKS1_
	.cfi_startproc
	.cfi_personality 3, __gxx_personality_v0
.Leh_func_begin113:
	.cfi_lsda 3, .Lexception113
.Lfunc_begin113:
	.loc	20 136 0                # /usr/lib/gcc/x86_64-linux-gnu/4.8/../../../../include/c++/4.8/bits/stl_vector.h:136:0
# BB#0:                                 # %entry
	pushq	%rbx
.Ltmp964:
	.cfi_def_cfa_offset 16
	subq	$48, %rsp
.Ltmp965:
	.cfi_def_cfa_offset 64
.Ltmp966:
	.cfi_offset %rbx, -16
	movq	%rdi, 40(%rsp)
	movq	%rsi, 32(%rsp)
	movq	%rdx, 24(%rsp)
	movq	40(%rsp), %rbx
	.loc	20 136 0 prologue_end   # /usr/lib/gcc/x86_64-linux-gnu/4.8/../../../../include/c++/4.8/bits/stl_vector.h:136:0
.Ltmp967:
	movq	%rbx, %rdi
	movq	%rdx, %rsi
	callq	_ZNSt12_Vector_baseI10location_tSaIS0_EE12_Vector_implC1ERKS1_
	.loc	20 136 0                # /usr/lib/gcc/x86_64-linux-gnu/4.8/../../../../include/c++/4.8/bits/stl_vector.h:136:0
.Ltmp968:
	movq	32(%rsp), %rsi
.Ltmp959:
	movq	%rbx, %rdi
	callq	_ZNSt12_Vector_baseI10location_tSaIS0_EE17_M_create_storageEm
.Ltmp960:
# BB#1:                                 # %invoke.cont
	addq	$48, %rsp
	popq	%rbx
	ret
.LBB113_2:                              # %eh.resume
.Ltmp961:
	movq	%rax, 16(%rsp)
	movl	%edx, 12(%rsp)
	movq	%rbx, %rdi
	callq	_ZNSt12_Vector_baseI10location_tSaIS0_EE12_Vector_implD1Ev
	movq	16(%rsp), %rdi
	callq	_Unwind_Resume
.Ltmp969:
.Ltmp970:
	.size	_ZNSt12_Vector_baseI10location_tSaIS0_EEC2EmRKS1_, .Ltmp970-_ZNSt12_Vector_baseI10location_tSaIS0_EEC2EmRKS1_
.Lfunc_end113:
	.cfi_endproc
.Leh_func_end113:
	.section	.gcc_except_table,"a",@progbits
	.align	4
GCC_except_table113:
.Lexception113:
	.byte	255                     # @LPStart Encoding = omit
	.byte	3                       # @TType Encoding = udata4
	.byte	41                      # @TType base offset
	.byte	3                       # Call site Encoding = udata4
	.byte	39                      # Call site table length
.Lset119 = .Leh_func_begin113-.Leh_func_begin113 # >> Call Site 1 <<
	.long	.Lset119
.Lset120 = .Ltmp959-.Leh_func_begin113  #   Call between .Leh_func_begin113 and .Ltmp959
	.long	.Lset120
	.long	0                       #     has no landing pad
	.byte	0                       #   On action: cleanup
.Lset121 = .Ltmp959-.Leh_func_begin113  # >> Call Site 2 <<
	.long	.Lset121
.Lset122 = .Ltmp960-.Ltmp959            #   Call between .Ltmp959 and .Ltmp960
	.long	.Lset122
.Lset123 = .Ltmp961-.Leh_func_begin113  #     jumps to .Ltmp961
	.long	.Lset123
	.byte	0                       #   On action: cleanup
.Lset124 = .Ltmp960-.Leh_func_begin113  # >> Call Site 3 <<
	.long	.Lset124
.Lset125 = .Leh_func_end113-.Ltmp960    #   Call between .Ltmp960 and .Leh_func_end113
	.long	.Lset125
	.long	0                       #     has no landing pad
	.byte	0                       #   On action: cleanup
	.align	4

	.section	.text._ZN9__gnu_cxx14__alloc_traitsISaI10location_tEE17_S_select_on_copyERKS2_,"axG",@progbits,_ZN9__gnu_cxx14__alloc_traitsISaI10location_tEE17_S_select_on_copyERKS2_,comdat
	.weak	_ZN9__gnu_cxx14__alloc_traitsISaI10location_tEE17_S_select_on_copyERKS2_
	.align	16, 0x90
	.type	_ZN9__gnu_cxx14__alloc_traitsISaI10location_tEE17_S_select_on_copyERKS2_,@function
_ZN9__gnu_cxx14__alloc_traitsISaI10location_tEE17_S_select_on_copyERKS2_: # @_ZN9__gnu_cxx14__alloc_traitsISaI10location_tEE17_S_select_on_copyERKS2_
	.cfi_startproc
.Lfunc_begin114:
	.loc	21 223 0                # /usr/lib/gcc/x86_64-linux-gnu/4.8/../../../../include/c++/4.8/ext/alloc_traits.h:223:0
# BB#0:                                 # %entry
	movq	%rdi, -8(%rsp)
	.loc	21 223 0 prologue_end   # /usr/lib/gcc/x86_64-linux-gnu/4.8/../../../../include/c++/4.8/ext/alloc_traits.h:223:0
.Ltmp971:
	movq	%rdi, %rax
	ret
.Ltmp972:
.Ltmp973:
	.size	_ZN9__gnu_cxx14__alloc_traitsISaI10location_tEE17_S_select_on_copyERKS2_, .Ltmp973-_ZN9__gnu_cxx14__alloc_traitsISaI10location_tEE17_S_select_on_copyERKS2_
.Lfunc_end114:
	.cfi_endproc

	.section	.text._ZNKSt12_Vector_baseI10location_tSaIS0_EE19_M_get_Tp_allocatorEv,"axG",@progbits,_ZNKSt12_Vector_baseI10location_tSaIS0_EE19_M_get_Tp_allocatorEv,comdat
	.weak	_ZNKSt12_Vector_baseI10location_tSaIS0_EE19_M_get_Tp_allocatorEv
	.align	16, 0x90
	.type	_ZNKSt12_Vector_baseI10location_tSaIS0_EE19_M_get_Tp_allocatorEv,@function
_ZNKSt12_Vector_baseI10location_tSaIS0_EE19_M_get_Tp_allocatorEv: # @_ZNKSt12_Vector_baseI10location_tSaIS0_EE19_M_get_Tp_allocatorEv
	.cfi_startproc
.Lfunc_begin115:
	.loc	20 118 0                # /usr/lib/gcc/x86_64-linux-gnu/4.8/../../../../include/c++/4.8/bits/stl_vector.h:118:0
# BB#0:                                 # %entry
	movq	%rdi, -8(%rsp)
	.loc	20 118 0 prologue_end   # /usr/lib/gcc/x86_64-linux-gnu/4.8/../../../../include/c++/4.8/bits/stl_vector.h:118:0
.Ltmp974:
	movq	%rdi, %rax
	ret
.Ltmp975:
.Ltmp976:
	.size	_ZNKSt12_Vector_baseI10location_tSaIS0_EE19_M_get_Tp_allocatorEv, .Ltmp976-_ZNKSt12_Vector_baseI10location_tSaIS0_EE19_M_get_Tp_allocatorEv
.Lfunc_end115:
	.cfi_endproc

	.section	.text._ZSt22__uninitialized_copy_aIN9__gnu_cxx17__normal_iteratorIPK10location_tSt6vectorIS2_SaIS2_EEEEPS2_S2_ET0_T_SB_SA_RSaIT1_E,"axG",@progbits,_ZSt22__uninitialized_copy_aIN9__gnu_cxx17__normal_iteratorIPK10location_tSt6vectorIS2_SaIS2_EEEEPS2_S2_ET0_T_SB_SA_RSaIT1_E,comdat
	.weak	_ZSt22__uninitialized_copy_aIN9__gnu_cxx17__normal_iteratorIPK10location_tSt6vectorIS2_SaIS2_EEEEPS2_S2_ET0_T_SB_SA_RSaIT1_E
	.align	16, 0x90
	.type	_ZSt22__uninitialized_copy_aIN9__gnu_cxx17__normal_iteratorIPK10location_tSt6vectorIS2_SaIS2_EEEEPS2_S2_ET0_T_SB_SA_RSaIT1_E,@function
_ZSt22__uninitialized_copy_aIN9__gnu_cxx17__normal_iteratorIPK10location_tSt6vectorIS2_SaIS2_EEEEPS2_S2_ET0_T_SB_SA_RSaIT1_E: # @_ZSt22__uninitialized_copy_aIN9__gnu_cxx17__normal_iteratorIPK10location_tSt6vectorIS2_SaIS2_EEEEPS2_S2_ET0_T_SB_SA_RSaIT1_E
	.cfi_startproc
.Lfunc_begin116:
	.loc	31 258 0                # /usr/lib/gcc/x86_64-linux-gnu/4.8/../../../../include/c++/4.8/bits/stl_uninitialized.h:258:0
# BB#0:                                 # %entry
	subq	$56, %rsp
.Ltmp978:
	.cfi_def_cfa_offset 64
	movq	%rdi, 48(%rsp)
	movq	%rsi, 40(%rsp)
	movq	%rdx, 32(%rsp)
	movq	%rcx, 24(%rsp)
	.loc	31 258 0 prologue_end   # /usr/lib/gcc/x86_64-linux-gnu/4.8/../../../../include/c++/4.8/bits/stl_uninitialized.h:258:0
.Ltmp979:
	movq	48(%rsp), %rax
	movq	%rax, 16(%rsp)
	movq	40(%rsp), %rsi
	movq	%rsi, 8(%rsp)
	movq	16(%rsp), %rdi
	movq	32(%rsp), %rdx
	callq	_ZSt18uninitialized_copyIN9__gnu_cxx17__normal_iteratorIPK10location_tSt6vectorIS2_SaIS2_EEEEPS2_ET0_T_SB_SA_
	addq	$56, %rsp
	ret
.Ltmp980:
.Ltmp981:
	.size	_ZSt22__uninitialized_copy_aIN9__gnu_cxx17__normal_iteratorIPK10location_tSt6vectorIS2_SaIS2_EEEEPS2_S2_ET0_T_SB_SA_RSaIT1_E, .Ltmp981-_ZSt22__uninitialized_copy_aIN9__gnu_cxx17__normal_iteratorIPK10location_tSt6vectorIS2_SaIS2_EEEEPS2_S2_ET0_T_SB_SA_RSaIT1_E
.Lfunc_end116:
	.cfi_endproc

	.section	.text._ZNKSt6vectorI10location_tSaIS0_EE5beginEv,"axG",@progbits,_ZNKSt6vectorI10location_tSaIS0_EE5beginEv,comdat
	.weak	_ZNKSt6vectorI10location_tSaIS0_EE5beginEv
	.align	16, 0x90
	.type	_ZNKSt6vectorI10location_tSaIS0_EE5beginEv,@function
_ZNKSt6vectorI10location_tSaIS0_EE5beginEv: # @_ZNKSt6vectorI10location_tSaIS0_EE5beginEv
	.cfi_startproc
.Lfunc_begin117:
	.loc	20 548 0                # /usr/lib/gcc/x86_64-linux-gnu/4.8/../../../../include/c++/4.8/bits/stl_vector.h:548:0
# BB#0:                                 # %entry
	subq	$24, %rsp
.Ltmp983:
	.cfi_def_cfa_offset 32
	movq	%rdi, 8(%rsp)
	.loc	20 548 0 prologue_end   # /usr/lib/gcc/x86_64-linux-gnu/4.8/../../../../include/c++/4.8/bits/stl_vector.h:548:0
.Ltmp984:
	movq	(%rdi), %rax
	movq	%rax, (%rsp)
	leaq	16(%rsp), %rdi
	leaq	(%rsp), %rsi
	callq	_ZN9__gnu_cxx17__normal_iteratorIPK10location_tSt6vectorIS1_SaIS1_EEEC1ERKS3_
	movq	16(%rsp), %rax
	addq	$24, %rsp
	ret
.Ltmp985:
.Ltmp986:
	.size	_ZNKSt6vectorI10location_tSaIS0_EE5beginEv, .Ltmp986-_ZNKSt6vectorI10location_tSaIS0_EE5beginEv
.Lfunc_end117:
	.cfi_endproc

	.section	.text._ZNKSt6vectorI10location_tSaIS0_EE3endEv,"axG",@progbits,_ZNKSt6vectorI10location_tSaIS0_EE3endEv,comdat
	.weak	_ZNKSt6vectorI10location_tSaIS0_EE3endEv
	.align	16, 0x90
	.type	_ZNKSt6vectorI10location_tSaIS0_EE3endEv,@function
_ZNKSt6vectorI10location_tSaIS0_EE3endEv: # @_ZNKSt6vectorI10location_tSaIS0_EE3endEv
	.cfi_startproc
.Lfunc_begin118:
	.loc	20 566 0                # /usr/lib/gcc/x86_64-linux-gnu/4.8/../../../../include/c++/4.8/bits/stl_vector.h:566:0
# BB#0:                                 # %entry
	subq	$24, %rsp
.Ltmp988:
	.cfi_def_cfa_offset 32
	movq	%rdi, 8(%rsp)
	.loc	20 566 0 prologue_end   # /usr/lib/gcc/x86_64-linux-gnu/4.8/../../../../include/c++/4.8/bits/stl_vector.h:566:0
.Ltmp989:
	movq	8(%rdi), %rax
	movq	%rax, (%rsp)
	leaq	16(%rsp), %rdi
	leaq	(%rsp), %rsi
	callq	_ZN9__gnu_cxx17__normal_iteratorIPK10location_tSt6vectorIS1_SaIS1_EEEC1ERKS3_
	movq	16(%rsp), %rax
	addq	$24, %rsp
	ret
.Ltmp990:
.Ltmp991:
	.size	_ZNKSt6vectorI10location_tSaIS0_EE3endEv, .Ltmp991-_ZNKSt6vectorI10location_tSaIS0_EE3endEv
.Lfunc_end118:
	.cfi_endproc

	.section	.text._ZNSt12_Vector_baseI10location_tSaIS0_EE19_M_get_Tp_allocatorEv,"axG",@progbits,_ZNSt12_Vector_baseI10location_tSaIS0_EE19_M_get_Tp_allocatorEv,comdat
	.weak	_ZNSt12_Vector_baseI10location_tSaIS0_EE19_M_get_Tp_allocatorEv
	.align	16, 0x90
	.type	_ZNSt12_Vector_baseI10location_tSaIS0_EE19_M_get_Tp_allocatorEv,@function
_ZNSt12_Vector_baseI10location_tSaIS0_EE19_M_get_Tp_allocatorEv: # @_ZNSt12_Vector_baseI10location_tSaIS0_EE19_M_get_Tp_allocatorEv
	.cfi_startproc
.Lfunc_begin119:
	.loc	20 114 0                # /usr/lib/gcc/x86_64-linux-gnu/4.8/../../../../include/c++/4.8/bits/stl_vector.h:114:0
# BB#0:                                 # %entry
	movq	%rdi, -8(%rsp)
	.loc	20 114 0 prologue_end   # /usr/lib/gcc/x86_64-linux-gnu/4.8/../../../../include/c++/4.8/bits/stl_vector.h:114:0
.Ltmp992:
	movq	%rdi, %rax
	ret
.Ltmp993:
.Ltmp994:
	.size	_ZNSt12_Vector_baseI10location_tSaIS0_EE19_M_get_Tp_allocatorEv, .Ltmp994-_ZNSt12_Vector_baseI10location_tSaIS0_EE19_M_get_Tp_allocatorEv
.Lfunc_end119:
	.cfi_endproc

	.section	.text._ZNSt12_Vector_baseI10location_tSaIS0_EED2Ev,"axG",@progbits,_ZNSt12_Vector_baseI10location_tSaIS0_EED2Ev,comdat
	.weak	_ZNSt12_Vector_baseI10location_tSaIS0_EED2Ev
	.align	16, 0x90
	.type	_ZNSt12_Vector_baseI10location_tSaIS0_EED2Ev,@function
_ZNSt12_Vector_baseI10location_tSaIS0_EED2Ev: # @_ZNSt12_Vector_baseI10location_tSaIS0_EED2Ev
	.cfi_startproc
	.cfi_personality 3, __gxx_personality_v0
.Leh_func_begin120:
	.cfi_lsda 3, .Lexception120
.Lfunc_begin120:
	.loc	20 160 0                # /usr/lib/gcc/x86_64-linux-gnu/4.8/../../../../include/c++/4.8/bits/stl_vector.h:160:0
# BB#0:                                 # %entry
	pushq	%rbx
.Ltmp1000:
	.cfi_def_cfa_offset 16
	subq	$32, %rsp
.Ltmp1001:
	.cfi_def_cfa_offset 48
.Ltmp1002:
	.cfi_offset %rbx, -16
	movq	%rdi, %rbx
	movq	%rbx, 24(%rsp)
	.loc	20 160 0 prologue_end   # /usr/lib/gcc/x86_64-linux-gnu/4.8/../../../../include/c++/4.8/bits/stl_vector.h:160:0
.Ltmp1003:
	movq	(%rbx), %rsi
	movq	16(%rbx), %rdx
.Ltmp995:
	subq	%rsi, %rdx
	sarq	$3, %rdx
	callq	_ZNSt12_Vector_baseI10location_tSaIS0_EE13_M_deallocateEPS0_m
.Ltmp996:
# BB#1:                                 # %invoke.cont
	.loc	20 161 0                # /usr/lib/gcc/x86_64-linux-gnu/4.8/../../../../include/c++/4.8/bits/stl_vector.h:161:0
	movq	%rbx, %rdi
	callq	_ZNSt12_Vector_baseI10location_tSaIS0_EE12_Vector_implD1Ev
	addq	$32, %rsp
	popq	%rbx
	ret
.LBB120_2:                              # %eh.resume
.Ltmp997:
	.loc	20 160 0                # /usr/lib/gcc/x86_64-linux-gnu/4.8/../../../../include/c++/4.8/bits/stl_vector.h:160:0
	movq	%rax, 16(%rsp)
	movl	%edx, 12(%rsp)
	.loc	20 161 0                # /usr/lib/gcc/x86_64-linux-gnu/4.8/../../../../include/c++/4.8/bits/stl_vector.h:161:0
	movq	%rbx, %rdi
	callq	_ZNSt12_Vector_baseI10location_tSaIS0_EE12_Vector_implD1Ev
	movq	16(%rsp), %rdi
	callq	_Unwind_Resume
.Ltmp1004:
.Ltmp1005:
	.size	_ZNSt12_Vector_baseI10location_tSaIS0_EED2Ev, .Ltmp1005-_ZNSt12_Vector_baseI10location_tSaIS0_EED2Ev
.Lfunc_end120:
	.cfi_endproc
.Leh_func_end120:
	.section	.gcc_except_table,"a",@progbits
	.align	4
GCC_except_table120:
.Lexception120:
	.byte	255                     # @LPStart Encoding = omit
	.byte	3                       # @TType Encoding = udata4
	.asciz	 "\234"                 # @TType base offset
	.byte	3                       # Call site Encoding = udata4
	.byte	26                      # Call site table length
.Lset126 = .Ltmp995-.Leh_func_begin120  # >> Call Site 1 <<
	.long	.Lset126
.Lset127 = .Ltmp996-.Ltmp995            #   Call between .Ltmp995 and .Ltmp996
	.long	.Lset127
.Lset128 = .Ltmp997-.Leh_func_begin120  #     jumps to .Ltmp997
	.long	.Lset128
	.byte	0                       #   On action: cleanup
.Lset129 = .Ltmp996-.Leh_func_begin120  # >> Call Site 2 <<
	.long	.Lset129
.Lset130 = .Leh_func_end120-.Ltmp996    #   Call between .Ltmp996 and .Leh_func_end120
	.long	.Lset130
	.long	0                       #     has no landing pad
	.byte	0                       #   On action: cleanup
	.align	4

	.section	.text._ZNSt12_Vector_baseI10location_tSaIS0_EE13_M_deallocateEPS0_m,"axG",@progbits,_ZNSt12_Vector_baseI10location_tSaIS0_EE13_M_deallocateEPS0_m,comdat
	.weak	_ZNSt12_Vector_baseI10location_tSaIS0_EE13_M_deallocateEPS0_m
	.align	16, 0x90
	.type	_ZNSt12_Vector_baseI10location_tSaIS0_EE13_M_deallocateEPS0_m,@function
_ZNSt12_Vector_baseI10location_tSaIS0_EE13_M_deallocateEPS0_m: # @_ZNSt12_Vector_baseI10location_tSaIS0_EE13_M_deallocateEPS0_m
	.cfi_startproc
.Lfunc_begin121:
	.loc	20 172 0                # /usr/lib/gcc/x86_64-linux-gnu/4.8/../../../../include/c++/4.8/bits/stl_vector.h:172:0
# BB#0:                                 # %entry
	subq	$24, %rsp
.Ltmp1007:
	.cfi_def_cfa_offset 32
	movq	%rdi, 16(%rsp)
	movq	%rsi, 8(%rsp)
	movq	%rdx, (%rsp)
	.loc	20 173 0 prologue_end   # /usr/lib/gcc/x86_64-linux-gnu/4.8/../../../../include/c++/4.8/bits/stl_vector.h:173:0
.Ltmp1008:
	cmpq	$0, 8(%rsp)
	je	.LBB121_2
# BB#1:                                 # %if.then
	movq	16(%rsp), %rdi
	.loc	20 174 0                # /usr/lib/gcc/x86_64-linux-gnu/4.8/../../../../include/c++/4.8/bits/stl_vector.h:174:0
	movq	(%rsp), %rdx
	movq	8(%rsp), %rsi
	callq	_ZN9__gnu_cxx13new_allocatorI10location_tE10deallocateEPS1_m
.LBB121_2:                              # %if.end
	.loc	20 175 0                # /usr/lib/gcc/x86_64-linux-gnu/4.8/../../../../include/c++/4.8/bits/stl_vector.h:175:0
	addq	$24, %rsp
	ret
.Ltmp1009:
.Ltmp1010:
	.size	_ZNSt12_Vector_baseI10location_tSaIS0_EE13_M_deallocateEPS0_m, .Ltmp1010-_ZNSt12_Vector_baseI10location_tSaIS0_EE13_M_deallocateEPS0_m
.Lfunc_end121:
	.cfi_endproc

	.section	.text._ZNSt12_Vector_baseI10location_tSaIS0_EE12_Vector_implD1Ev,"axG",@progbits,_ZNSt12_Vector_baseI10location_tSaIS0_EE12_Vector_implD1Ev,comdat
	.weak	_ZNSt12_Vector_baseI10location_tSaIS0_EE12_Vector_implD1Ev
	.align	16, 0x90
	.type	_ZNSt12_Vector_baseI10location_tSaIS0_EE12_Vector_implD1Ev,@function
_ZNSt12_Vector_baseI10location_tSaIS0_EE12_Vector_implD1Ev: # @_ZNSt12_Vector_baseI10location_tSaIS0_EE12_Vector_implD1Ev
	.cfi_startproc
.Lfunc_begin122:
	.loc	20 79 0                 # /usr/lib/gcc/x86_64-linux-gnu/4.8/../../../../include/c++/4.8/bits/stl_vector.h:79:0
# BB#0:                                 # %entry
	pushq	%rax
.Ltmp1012:
	.cfi_def_cfa_offset 16
	movq	%rdi, (%rsp)
	.loc	20 79 0 prologue_end    # /usr/lib/gcc/x86_64-linux-gnu/4.8/../../../../include/c++/4.8/bits/stl_vector.h:79:0
.Ltmp1013:
	callq	_ZNSt12_Vector_baseI10location_tSaIS0_EE12_Vector_implD2Ev
	popq	%rax
	ret
.Ltmp1014:
.Ltmp1015:
	.size	_ZNSt12_Vector_baseI10location_tSaIS0_EE12_Vector_implD1Ev, .Ltmp1015-_ZNSt12_Vector_baseI10location_tSaIS0_EE12_Vector_implD1Ev
.Lfunc_end122:
	.cfi_endproc

	.section	.text._ZNSt12_Vector_baseI10location_tSaIS0_EE12_Vector_implD2Ev,"axG",@progbits,_ZNSt12_Vector_baseI10location_tSaIS0_EE12_Vector_implD2Ev,comdat
	.weak	_ZNSt12_Vector_baseI10location_tSaIS0_EE12_Vector_implD2Ev
	.align	16, 0x90
	.type	_ZNSt12_Vector_baseI10location_tSaIS0_EE12_Vector_implD2Ev,@function
_ZNSt12_Vector_baseI10location_tSaIS0_EE12_Vector_implD2Ev: # @_ZNSt12_Vector_baseI10location_tSaIS0_EE12_Vector_implD2Ev
	.cfi_startproc
.Lfunc_begin123:
	.loc	20 79 0                 # /usr/lib/gcc/x86_64-linux-gnu/4.8/../../../../include/c++/4.8/bits/stl_vector.h:79:0
# BB#0:                                 # %entry
	pushq	%rax
.Ltmp1017:
	.cfi_def_cfa_offset 16
	movq	%rdi, (%rsp)
	.loc	20 79 0 prologue_end    # /usr/lib/gcc/x86_64-linux-gnu/4.8/../../../../include/c++/4.8/bits/stl_vector.h:79:0
.Ltmp1018:
	callq	_ZNSaI10location_tED2Ev
	popq	%rax
	ret
.Ltmp1019:
.Ltmp1020:
	.size	_ZNSt12_Vector_baseI10location_tSaIS0_EE12_Vector_implD2Ev, .Ltmp1020-_ZNSt12_Vector_baseI10location_tSaIS0_EE12_Vector_implD2Ev
.Lfunc_end123:
	.cfi_endproc

	.section	.text._ZNSaI10location_tED2Ev,"axG",@progbits,_ZNSaI10location_tED2Ev,comdat
	.weak	_ZNSaI10location_tED2Ev
	.align	16, 0x90
	.type	_ZNSaI10location_tED2Ev,@function
_ZNSaI10location_tED2Ev:                # @_ZNSaI10location_tED2Ev
	.cfi_startproc
.Lfunc_begin124:
	.loc	10 121 0                # /usr/lib/gcc/x86_64-linux-gnu/4.8/../../../../include/c++/4.8/bits/allocator.h:121:0
# BB#0:                                 # %entry
	pushq	%rax
.Ltmp1022:
	.cfi_def_cfa_offset 16
	movq	%rdi, (%rsp)
	.loc	10 121 0 prologue_end   # /usr/lib/gcc/x86_64-linux-gnu/4.8/../../../../include/c++/4.8/bits/allocator.h:121:0
.Ltmp1023:
	callq	_ZN9__gnu_cxx13new_allocatorI10location_tED2Ev
	popq	%rax
	ret
.Ltmp1024:
.Ltmp1025:
	.size	_ZNSaI10location_tED2Ev, .Ltmp1025-_ZNSaI10location_tED2Ev
.Lfunc_end124:
	.cfi_endproc

	.section	.text._ZN9__gnu_cxx13new_allocatorI10location_tED2Ev,"axG",@progbits,_ZN9__gnu_cxx13new_allocatorI10location_tED2Ev,comdat
	.weak	_ZN9__gnu_cxx13new_allocatorI10location_tED2Ev
	.align	16, 0x90
	.type	_ZN9__gnu_cxx13new_allocatorI10location_tED2Ev,@function
_ZN9__gnu_cxx13new_allocatorI10location_tED2Ev: # @_ZN9__gnu_cxx13new_allocatorI10location_tED2Ev
	.cfi_startproc
.Lfunc_begin125:
	.loc	9 86 0                  # /usr/lib/gcc/x86_64-linux-gnu/4.8/../../../../include/c++/4.8/ext/new_allocator.h:86:0
# BB#0:                                 # %entry
	movq	%rdi, -8(%rsp)
	.loc	9 86 0 prologue_end     # /usr/lib/gcc/x86_64-linux-gnu/4.8/../../../../include/c++/4.8/ext/new_allocator.h:86:0
.Ltmp1026:
	ret
.Ltmp1027:
.Ltmp1028:
	.size	_ZN9__gnu_cxx13new_allocatorI10location_tED2Ev, .Ltmp1028-_ZN9__gnu_cxx13new_allocatorI10location_tED2Ev
.Lfunc_end125:
	.cfi_endproc

	.section	.text._ZN9__gnu_cxx13new_allocatorI10location_tE10deallocateEPS1_m,"axG",@progbits,_ZN9__gnu_cxx13new_allocatorI10location_tE10deallocateEPS1_m,comdat
	.weak	_ZN9__gnu_cxx13new_allocatorI10location_tE10deallocateEPS1_m
	.align	16, 0x90
	.type	_ZN9__gnu_cxx13new_allocatorI10location_tE10deallocateEPS1_m,@function
_ZN9__gnu_cxx13new_allocatorI10location_tE10deallocateEPS1_m: # @_ZN9__gnu_cxx13new_allocatorI10location_tE10deallocateEPS1_m
	.cfi_startproc
.Lfunc_begin126:
	.loc	9 110 0                 # /usr/lib/gcc/x86_64-linux-gnu/4.8/../../../../include/c++/4.8/ext/new_allocator.h:110:0
# BB#0:                                 # %entry
	subq	$24, %rsp
.Ltmp1030:
	.cfi_def_cfa_offset 32
	movq	%rdi, 16(%rsp)
	movq	%rsi, 8(%rsp)
	movq	%rdx, (%rsp)
	.loc	9 110 0 prologue_end    # /usr/lib/gcc/x86_64-linux-gnu/4.8/../../../../include/c++/4.8/ext/new_allocator.h:110:0
.Ltmp1031:
	movq	8(%rsp), %rdi
	callq	_ZdlPv
	addq	$24, %rsp
	ret
.Ltmp1032:
.Ltmp1033:
	.size	_ZN9__gnu_cxx13new_allocatorI10location_tE10deallocateEPS1_m, .Ltmp1033-_ZN9__gnu_cxx13new_allocatorI10location_tE10deallocateEPS1_m
.Lfunc_end126:
	.cfi_endproc

	.section	.text._ZN9__gnu_cxx17__normal_iteratorIPK10location_tSt6vectorIS1_SaIS1_EEEC1ERKS3_,"axG",@progbits,_ZN9__gnu_cxx17__normal_iteratorIPK10location_tSt6vectorIS1_SaIS1_EEEC1ERKS3_,comdat
	.weak	_ZN9__gnu_cxx17__normal_iteratorIPK10location_tSt6vectorIS1_SaIS1_EEEC1ERKS3_
	.align	16, 0x90
	.type	_ZN9__gnu_cxx17__normal_iteratorIPK10location_tSt6vectorIS1_SaIS1_EEEC1ERKS3_,@function
_ZN9__gnu_cxx17__normal_iteratorIPK10location_tSt6vectorIS1_SaIS1_EEEC1ERKS3_: # @_ZN9__gnu_cxx17__normal_iteratorIPK10location_tSt6vectorIS1_SaIS1_EEEC1ERKS3_
	.cfi_startproc
.Lfunc_begin127:
	.loc	11 726 0                # /usr/lib/gcc/x86_64-linux-gnu/4.8/../../../../include/c++/4.8/bits/stl_iterator.h:726:0
# BB#0:                                 # %entry
	subq	$24, %rsp
.Ltmp1035:
	.cfi_def_cfa_offset 32
	movq	%rdi, 16(%rsp)
	movq	%rsi, 8(%rsp)
	movq	16(%rsp), %rdi
	.loc	11 726 0 prologue_end   # /usr/lib/gcc/x86_64-linux-gnu/4.8/../../../../include/c++/4.8/bits/stl_iterator.h:726:0
.Ltmp1036:
	callq	_ZN9__gnu_cxx17__normal_iteratorIPK10location_tSt6vectorIS1_SaIS1_EEEC2ERKS3_
	addq	$24, %rsp
	ret
.Ltmp1037:
.Ltmp1038:
	.size	_ZN9__gnu_cxx17__normal_iteratorIPK10location_tSt6vectorIS1_SaIS1_EEEC1ERKS3_, .Ltmp1038-_ZN9__gnu_cxx17__normal_iteratorIPK10location_tSt6vectorIS1_SaIS1_EEEC1ERKS3_
.Lfunc_end127:
	.cfi_endproc

	.section	.text._ZN9__gnu_cxx17__normal_iteratorIPK10location_tSt6vectorIS1_SaIS1_EEEC2ERKS3_,"axG",@progbits,_ZN9__gnu_cxx17__normal_iteratorIPK10location_tSt6vectorIS1_SaIS1_EEEC2ERKS3_,comdat
	.weak	_ZN9__gnu_cxx17__normal_iteratorIPK10location_tSt6vectorIS1_SaIS1_EEEC2ERKS3_
	.align	16, 0x90
	.type	_ZN9__gnu_cxx17__normal_iteratorIPK10location_tSt6vectorIS1_SaIS1_EEEC2ERKS3_,@function
_ZN9__gnu_cxx17__normal_iteratorIPK10location_tSt6vectorIS1_SaIS1_EEEC2ERKS3_: # @_ZN9__gnu_cxx17__normal_iteratorIPK10location_tSt6vectorIS1_SaIS1_EEEC2ERKS3_
	.cfi_startproc
.Lfunc_begin128:
	.loc	11 726 0                # /usr/lib/gcc/x86_64-linux-gnu/4.8/../../../../include/c++/4.8/bits/stl_iterator.h:726:0
# BB#0:                                 # %entry
	movq	%rdi, -8(%rsp)
	movq	%rsi, -16(%rsp)
	.loc	11 726 0 prologue_end   # /usr/lib/gcc/x86_64-linux-gnu/4.8/../../../../include/c++/4.8/bits/stl_iterator.h:726:0
.Ltmp1039:
	movq	(%rsi), %rax
	movq	-8(%rsp), %rcx
	movq	%rax, (%rcx)
	.loc	11 726 0                # /usr/lib/gcc/x86_64-linux-gnu/4.8/../../../../include/c++/4.8/bits/stl_iterator.h:726:0
.Ltmp1040:
	ret
.Ltmp1041:
.Ltmp1042:
	.size	_ZN9__gnu_cxx17__normal_iteratorIPK10location_tSt6vectorIS1_SaIS1_EEEC2ERKS3_, .Ltmp1042-_ZN9__gnu_cxx17__normal_iteratorIPK10location_tSt6vectorIS1_SaIS1_EEEC2ERKS3_
.Lfunc_end128:
	.cfi_endproc

	.section	.text._ZSt18uninitialized_copyIN9__gnu_cxx17__normal_iteratorIPK10location_tSt6vectorIS2_SaIS2_EEEEPS2_ET0_T_SB_SA_,"axG",@progbits,_ZSt18uninitialized_copyIN9__gnu_cxx17__normal_iteratorIPK10location_tSt6vectorIS2_SaIS2_EEEEPS2_ET0_T_SB_SA_,comdat
	.weak	_ZSt18uninitialized_copyIN9__gnu_cxx17__normal_iteratorIPK10location_tSt6vectorIS2_SaIS2_EEEEPS2_ET0_T_SB_SA_
	.align	16, 0x90
	.type	_ZSt18uninitialized_copyIN9__gnu_cxx17__normal_iteratorIPK10location_tSt6vectorIS2_SaIS2_EEEEPS2_ET0_T_SB_SA_,@function
_ZSt18uninitialized_copyIN9__gnu_cxx17__normal_iteratorIPK10location_tSt6vectorIS2_SaIS2_EEEEPS2_ET0_T_SB_SA_: # @_ZSt18uninitialized_copyIN9__gnu_cxx17__normal_iteratorIPK10location_tSt6vectorIS2_SaIS2_EEEEPS2_ET0_T_SB_SA_
	.cfi_startproc
.Lfunc_begin129:
	.loc	31 109 0                # /usr/lib/gcc/x86_64-linux-gnu/4.8/../../../../include/c++/4.8/bits/stl_uninitialized.h:109:0
# BB#0:                                 # %entry
	subq	$40, %rsp
.Ltmp1044:
	.cfi_def_cfa_offset 48
	movq	%rdi, 32(%rsp)
	movq	%rsi, 24(%rsp)
	movq	%rdx, 16(%rsp)
	.loc	31 115 0 prologue_end   # /usr/lib/gcc/x86_64-linux-gnu/4.8/../../../../include/c++/4.8/bits/stl_uninitialized.h:115:0
.Ltmp1045:
	movq	32(%rsp), %rax
	movq	%rax, 8(%rsp)
	movq	24(%rsp), %rsi
	movq	%rsi, (%rsp)
	movq	8(%rsp), %rdi
	movq	16(%rsp), %rdx
	callq	_ZNSt20__uninitialized_copyILb1EE13__uninit_copyIN9__gnu_cxx17__normal_iteratorIPK10location_tSt6vectorIS4_SaIS4_EEEEPS4_EET0_T_SD_SC_
	addq	$40, %rsp
	ret
.Ltmp1046:
.Ltmp1047:
	.size	_ZSt18uninitialized_copyIN9__gnu_cxx17__normal_iteratorIPK10location_tSt6vectorIS2_SaIS2_EEEEPS2_ET0_T_SB_SA_, .Ltmp1047-_ZSt18uninitialized_copyIN9__gnu_cxx17__normal_iteratorIPK10location_tSt6vectorIS2_SaIS2_EEEEPS2_ET0_T_SB_SA_
.Lfunc_end129:
	.cfi_endproc

	.section	.text._ZNSt20__uninitialized_copyILb1EE13__uninit_copyIN9__gnu_cxx17__normal_iteratorIPK10location_tSt6vectorIS4_SaIS4_EEEEPS4_EET0_T_SD_SC_,"axG",@progbits,_ZNSt20__uninitialized_copyILb1EE13__uninit_copyIN9__gnu_cxx17__normal_iteratorIPK10location_tSt6vectorIS4_SaIS4_EEEEPS4_EET0_T_SD_SC_,comdat
	.weak	_ZNSt20__uninitialized_copyILb1EE13__uninit_copyIN9__gnu_cxx17__normal_iteratorIPK10location_tSt6vectorIS4_SaIS4_EEEEPS4_EET0_T_SD_SC_
	.align	16, 0x90
	.type	_ZNSt20__uninitialized_copyILb1EE13__uninit_copyIN9__gnu_cxx17__normal_iteratorIPK10location_tSt6vectorIS4_SaIS4_EEEEPS4_EET0_T_SD_SC_,@function
_ZNSt20__uninitialized_copyILb1EE13__uninit_copyIN9__gnu_cxx17__normal_iteratorIPK10location_tSt6vectorIS4_SaIS4_EEEEPS4_EET0_T_SD_SC_: # @_ZNSt20__uninitialized_copyILb1EE13__uninit_copyIN9__gnu_cxx17__normal_iteratorIPK10location_tSt6vectorIS4_SaIS4_EEEEPS4_EET0_T_SD_SC_
	.cfi_startproc
.Lfunc_begin130:
	.loc	31 93 0                 # /usr/lib/gcc/x86_64-linux-gnu/4.8/../../../../include/c++/4.8/bits/stl_uninitialized.h:93:0
# BB#0:                                 # %entry
	subq	$40, %rsp
.Ltmp1049:
	.cfi_def_cfa_offset 48
	movq	%rdi, 32(%rsp)
	movq	%rsi, 24(%rsp)
	movq	%rdx, 16(%rsp)
	.loc	31 93 0 prologue_end    # /usr/lib/gcc/x86_64-linux-gnu/4.8/../../../../include/c++/4.8/bits/stl_uninitialized.h:93:0
.Ltmp1050:
	movq	32(%rsp), %rax
	movq	%rax, 8(%rsp)
	movq	24(%rsp), %rsi
	movq	%rsi, (%rsp)
	movq	8(%rsp), %rdi
	movq	16(%rsp), %rdx
	callq	_ZSt4copyIN9__gnu_cxx17__normal_iteratorIPK10location_tSt6vectorIS2_SaIS2_EEEEPS2_ET0_T_SB_SA_
	addq	$40, %rsp
	ret
.Ltmp1051:
.Ltmp1052:
	.size	_ZNSt20__uninitialized_copyILb1EE13__uninit_copyIN9__gnu_cxx17__normal_iteratorIPK10location_tSt6vectorIS4_SaIS4_EEEEPS4_EET0_T_SD_SC_, .Ltmp1052-_ZNSt20__uninitialized_copyILb1EE13__uninit_copyIN9__gnu_cxx17__normal_iteratorIPK10location_tSt6vectorIS4_SaIS4_EEEEPS4_EET0_T_SD_SC_
.Lfunc_end130:
	.cfi_endproc

	.section	.text._ZSt4copyIN9__gnu_cxx17__normal_iteratorIPK10location_tSt6vectorIS2_SaIS2_EEEEPS2_ET0_T_SB_SA_,"axG",@progbits,_ZSt4copyIN9__gnu_cxx17__normal_iteratorIPK10location_tSt6vectorIS2_SaIS2_EEEEPS2_ET0_T_SB_SA_,comdat
	.weak	_ZSt4copyIN9__gnu_cxx17__normal_iteratorIPK10location_tSt6vectorIS2_SaIS2_EEEEPS2_ET0_T_SB_SA_
	.align	16, 0x90
	.type	_ZSt4copyIN9__gnu_cxx17__normal_iteratorIPK10location_tSt6vectorIS2_SaIS2_EEEEPS2_ET0_T_SB_SA_,@function
_ZSt4copyIN9__gnu_cxx17__normal_iteratorIPK10location_tSt6vectorIS2_SaIS2_EEEEPS2_ET0_T_SB_SA_: # @_ZSt4copyIN9__gnu_cxx17__normal_iteratorIPK10location_tSt6vectorIS2_SaIS2_EEEEPS2_ET0_T_SB_SA_
	.cfi_startproc
.Lfunc_begin131:
	.loc	32 451 0                # /usr/lib/gcc/x86_64-linux-gnu/4.8/../../../../include/c++/4.8/bits/stl_algobase.h:451:0
# BB#0:                                 # %entry
	subq	$56, %rsp
.Ltmp1054:
	.cfi_def_cfa_offset 64
	movq	%rdi, 48(%rsp)
	movq	%rsi, 40(%rsp)
	movq	%rdx, 32(%rsp)
	.loc	32 459 0 prologue_end   # /usr/lib/gcc/x86_64-linux-gnu/4.8/../../../../include/c++/4.8/bits/stl_algobase.h:459:0
.Ltmp1055:
	movq	48(%rsp), %rdi
	movq	%rdi, 16(%rsp)
	callq	_ZSt12__miter_baseIN9__gnu_cxx17__normal_iteratorIPK10location_tSt6vectorIS2_SaIS2_EEEEENSt11_Miter_baseIT_E13iterator_typeESA_
	movq	%rax, 24(%rsp)
	movq	40(%rsp), %rdi
	movq	%rdi, (%rsp)
	callq	_ZSt12__miter_baseIN9__gnu_cxx17__normal_iteratorIPK10location_tSt6vectorIS2_SaIS2_EEEEENSt11_Miter_baseIT_E13iterator_typeESA_
	movq	%rax, 8(%rsp)
	movq	24(%rsp), %rdi
	movq	32(%rsp), %rdx
	movq	%rax, %rsi
	callq	_ZSt14__copy_move_a2ILb0EN9__gnu_cxx17__normal_iteratorIPK10location_tSt6vectorIS2_SaIS2_EEEEPS2_ET1_T0_SB_SA_
	addq	$56, %rsp
	ret
.Ltmp1056:
.Ltmp1057:
	.size	_ZSt4copyIN9__gnu_cxx17__normal_iteratorIPK10location_tSt6vectorIS2_SaIS2_EEEEPS2_ET0_T_SB_SA_, .Ltmp1057-_ZSt4copyIN9__gnu_cxx17__normal_iteratorIPK10location_tSt6vectorIS2_SaIS2_EEEEPS2_ET0_T_SB_SA_
.Lfunc_end131:
	.cfi_endproc

	.section	.text._ZSt14__copy_move_a2ILb0EN9__gnu_cxx17__normal_iteratorIPK10location_tSt6vectorIS2_SaIS2_EEEEPS2_ET1_T0_SB_SA_,"axG",@progbits,_ZSt14__copy_move_a2ILb0EN9__gnu_cxx17__normal_iteratorIPK10location_tSt6vectorIS2_SaIS2_EEEEPS2_ET1_T0_SB_SA_,comdat
	.weak	_ZSt14__copy_move_a2ILb0EN9__gnu_cxx17__normal_iteratorIPK10location_tSt6vectorIS2_SaIS2_EEEEPS2_ET1_T0_SB_SA_
	.align	16, 0x90
	.type	_ZSt14__copy_move_a2ILb0EN9__gnu_cxx17__normal_iteratorIPK10location_tSt6vectorIS2_SaIS2_EEEEPS2_ET1_T0_SB_SA_,@function
_ZSt14__copy_move_a2ILb0EN9__gnu_cxx17__normal_iteratorIPK10location_tSt6vectorIS2_SaIS2_EEEEPS2_ET1_T0_SB_SA_: # @_ZSt14__copy_move_a2ILb0EN9__gnu_cxx17__normal_iteratorIPK10location_tSt6vectorIS2_SaIS2_EEEEPS2_ET1_T0_SB_SA_
	.cfi_startproc
.Lfunc_begin132:
	.loc	32 425 0                # /usr/lib/gcc/x86_64-linux-gnu/4.8/../../../../include/c++/4.8/bits/stl_algobase.h:425:0
# BB#0:                                 # %entry
	pushq	%r14
.Ltmp1061:
	.cfi_def_cfa_offset 16
	pushq	%rbx
.Ltmp1062:
	.cfi_def_cfa_offset 24
	subq	$40, %rsp
.Ltmp1063:
	.cfi_def_cfa_offset 64
.Ltmp1064:
	.cfi_offset %rbx, -24
.Ltmp1065:
	.cfi_offset %r14, -16
	movq	%rdi, 32(%rsp)
	movq	%rsi, 24(%rsp)
	movq	%rdx, 16(%rsp)
	.loc	32 426 0 prologue_end   # /usr/lib/gcc/x86_64-linux-gnu/4.8/../../../../include/c++/4.8/bits/stl_algobase.h:426:0
.Ltmp1066:
	movq	32(%rsp), %rdi
	movq	%rdi, 8(%rsp)
	callq	_ZSt12__niter_baseIN9__gnu_cxx17__normal_iteratorIPK10location_tSt6vectorIS2_SaIS2_EEEEENSt11_Niter_baseIT_E13iterator_typeESA_
	movq	%rax, %r14
	.loc	32 427 0                # /usr/lib/gcc/x86_64-linux-gnu/4.8/../../../../include/c++/4.8/bits/stl_algobase.h:427:0
	movq	24(%rsp), %rdi
	movq	%rdi, (%rsp)
	callq	_ZSt12__niter_baseIN9__gnu_cxx17__normal_iteratorIPK10location_tSt6vectorIS2_SaIS2_EEEEENSt11_Niter_baseIT_E13iterator_typeESA_
	movq	%rax, %rbx
	.loc	32 428 0                # /usr/lib/gcc/x86_64-linux-gnu/4.8/../../../../include/c++/4.8/bits/stl_algobase.h:428:0
	movq	16(%rsp), %rdi
	callq	_ZSt12__niter_baseIP10location_tENSt11_Niter_baseIT_E13iterator_typeES3_
	movq	%r14, %rdi
	movq	%rbx, %rsi
	movq	%rax, %rdx
	callq	_ZSt13__copy_move_aILb0EPK10location_tPS0_ET1_T0_S5_S4_
	addq	$40, %rsp
	popq	%rbx
	popq	%r14
	ret
.Ltmp1067:
.Ltmp1068:
	.size	_ZSt14__copy_move_a2ILb0EN9__gnu_cxx17__normal_iteratorIPK10location_tSt6vectorIS2_SaIS2_EEEEPS2_ET1_T0_SB_SA_, .Ltmp1068-_ZSt14__copy_move_a2ILb0EN9__gnu_cxx17__normal_iteratorIPK10location_tSt6vectorIS2_SaIS2_EEEEPS2_ET1_T0_SB_SA_
.Lfunc_end132:
	.cfi_endproc

	.section	.text._ZSt12__miter_baseIN9__gnu_cxx17__normal_iteratorIPK10location_tSt6vectorIS2_SaIS2_EEEEENSt11_Miter_baseIT_E13iterator_typeESA_,"axG",@progbits,_ZSt12__miter_baseIN9__gnu_cxx17__normal_iteratorIPK10location_tSt6vectorIS2_SaIS2_EEEEENSt11_Miter_baseIT_E13iterator_typeESA_,comdat
	.weak	_ZSt12__miter_baseIN9__gnu_cxx17__normal_iteratorIPK10location_tSt6vectorIS2_SaIS2_EEEEENSt11_Miter_baseIT_E13iterator_typeESA_
	.align	16, 0x90
	.type	_ZSt12__miter_baseIN9__gnu_cxx17__normal_iteratorIPK10location_tSt6vectorIS2_SaIS2_EEEEENSt11_Miter_baseIT_E13iterator_typeESA_,@function
_ZSt12__miter_baseIN9__gnu_cxx17__normal_iteratorIPK10location_tSt6vectorIS2_SaIS2_EEEEENSt11_Miter_baseIT_E13iterator_typeESA_: # @_ZSt12__miter_baseIN9__gnu_cxx17__normal_iteratorIPK10location_tSt6vectorIS2_SaIS2_EEEEENSt11_Miter_baseIT_E13iterator_typeESA_
	.cfi_startproc
.Lfunc_begin133:
	.loc	32 289 0                # /usr/lib/gcc/x86_64-linux-gnu/4.8/../../../../include/c++/4.8/bits/stl_algobase.h:289:0
# BB#0:                                 # %entry
	subq	$24, %rsp
.Ltmp1070:
	.cfi_def_cfa_offset 32
	movq	%rdi, 8(%rsp)
	.loc	32 289 0 prologue_end   # /usr/lib/gcc/x86_64-linux-gnu/4.8/../../../../include/c++/4.8/bits/stl_algobase.h:289:0
.Ltmp1071:
	movq	%rdi, (%rsp)
	callq	_ZNSt10_Iter_baseIN9__gnu_cxx17__normal_iteratorIPK10location_tSt6vectorIS2_SaIS2_EEEELb0EE7_S_baseES8_
	movq	%rax, 16(%rsp)
	addq	$24, %rsp
	ret
.Ltmp1072:
.Ltmp1073:
	.size	_ZSt12__miter_baseIN9__gnu_cxx17__normal_iteratorIPK10location_tSt6vectorIS2_SaIS2_EEEEENSt11_Miter_baseIT_E13iterator_typeESA_, .Ltmp1073-_ZSt12__miter_baseIN9__gnu_cxx17__normal_iteratorIPK10location_tSt6vectorIS2_SaIS2_EEEEENSt11_Miter_baseIT_E13iterator_typeESA_
.Lfunc_end133:
	.cfi_endproc

	.section	.text._ZNSt10_Iter_baseIN9__gnu_cxx17__normal_iteratorIPK10location_tSt6vectorIS2_SaIS2_EEEELb0EE7_S_baseES8_,"axG",@progbits,_ZNSt10_Iter_baseIN9__gnu_cxx17__normal_iteratorIPK10location_tSt6vectorIS2_SaIS2_EEEELb0EE7_S_baseES8_,comdat
	.weak	_ZNSt10_Iter_baseIN9__gnu_cxx17__normal_iteratorIPK10location_tSt6vectorIS2_SaIS2_EEEELb0EE7_S_baseES8_
	.align	16, 0x90
	.type	_ZNSt10_Iter_baseIN9__gnu_cxx17__normal_iteratorIPK10location_tSt6vectorIS2_SaIS2_EEEELb0EE7_S_baseES8_,@function
_ZNSt10_Iter_baseIN9__gnu_cxx17__normal_iteratorIPK10location_tSt6vectorIS2_SaIS2_EEEELb0EE7_S_baseES8_: # @_ZNSt10_Iter_baseIN9__gnu_cxx17__normal_iteratorIPK10location_tSt6vectorIS2_SaIS2_EEEELb0EE7_S_baseES8_
	.cfi_startproc
.Lfunc_begin134:
	.loc	22 212 0                # /usr/lib/gcc/x86_64-linux-gnu/4.8/../../../../include/c++/4.8/bits/stl_iterator_base_types.h:212:0
# BB#0:                                 # %entry
	movq	%rdi, -16(%rsp)
	.loc	22 212 0 prologue_end   # /usr/lib/gcc/x86_64-linux-gnu/4.8/../../../../include/c++/4.8/bits/stl_iterator_base_types.h:212:0
.Ltmp1074:
	movq	%rdi, -8(%rsp)
	movq	%rdi, %rax
	ret
.Ltmp1075:
.Ltmp1076:
	.size	_ZNSt10_Iter_baseIN9__gnu_cxx17__normal_iteratorIPK10location_tSt6vectorIS2_SaIS2_EEEELb0EE7_S_baseES8_, .Ltmp1076-_ZNSt10_Iter_baseIN9__gnu_cxx17__normal_iteratorIPK10location_tSt6vectorIS2_SaIS2_EEEELb0EE7_S_baseES8_
.Lfunc_end134:
	.cfi_endproc

	.section	.text._ZSt13__copy_move_aILb0EPK10location_tPS0_ET1_T0_S5_S4_,"axG",@progbits,_ZSt13__copy_move_aILb0EPK10location_tPS0_ET1_T0_S5_S4_,comdat
	.weak	_ZSt13__copy_move_aILb0EPK10location_tPS0_ET1_T0_S5_S4_
	.align	16, 0x90
	.type	_ZSt13__copy_move_aILb0EPK10location_tPS0_ET1_T0_S5_S4_,@function
_ZSt13__copy_move_aILb0EPK10location_tPS0_ET1_T0_S5_S4_: # @_ZSt13__copy_move_aILb0EPK10location_tPS0_ET1_T0_S5_S4_
	.cfi_startproc
.Lfunc_begin135:
	.loc	32 380 0                # /usr/lib/gcc/x86_64-linux-gnu/4.8/../../../../include/c++/4.8/bits/stl_algobase.h:380:0
# BB#0:                                 # %entry
	subq	$40, %rsp
.Ltmp1078:
	.cfi_def_cfa_offset 48
	movq	%rdi, 32(%rsp)
	movq	%rsi, 24(%rsp)
	movq	%rdx, 16(%rsp)
	.loc	32 387 0 prologue_end   # /usr/lib/gcc/x86_64-linux-gnu/4.8/../../../../include/c++/4.8/bits/stl_algobase.h:387:0
.Ltmp1079:
	movb	$1, 15(%rsp)
	.loc	32 389 0                # /usr/lib/gcc/x86_64-linux-gnu/4.8/../../../../include/c++/4.8/bits/stl_algobase.h:389:0
	movq	16(%rsp), %rdx
	movq	24(%rsp), %rsi
	movq	32(%rsp), %rdi
	callq	_ZNSt11__copy_moveILb0ELb1ESt26random_access_iterator_tagE8__copy_mI10location_tEEPT_PKS4_S7_S5_
	addq	$40, %rsp
	ret
.Ltmp1080:
.Ltmp1081:
	.size	_ZSt13__copy_move_aILb0EPK10location_tPS0_ET1_T0_S5_S4_, .Ltmp1081-_ZSt13__copy_move_aILb0EPK10location_tPS0_ET1_T0_S5_S4_
.Lfunc_end135:
	.cfi_endproc

	.section	.text._ZSt12__niter_baseIN9__gnu_cxx17__normal_iteratorIPK10location_tSt6vectorIS2_SaIS2_EEEEENSt11_Niter_baseIT_E13iterator_typeESA_,"axG",@progbits,_ZSt12__niter_baseIN9__gnu_cxx17__normal_iteratorIPK10location_tSt6vectorIS2_SaIS2_EEEEENSt11_Niter_baseIT_E13iterator_typeESA_,comdat
