	.file	"<stdin>"
	.file	1 "src/rng.cpp"
	.file	2 "/usr/lib/gcc/x86_64-linux-gnu/4.8/../../../../include/c++/4.8/bits/ios_base.h"
	.file	3 "/usr/lib/gcc/x86_64-linux-gnu/4.8/../../../../include/c++/4.8/bits/c++config.h"
	.file	4 "/usr/lib/gcc/x86_64-linux-gnu/4.8/../../../../include/c++/4.8/bits/postypes.h"
	.file	5 "/usr/lib/gcc/x86_64-linux-gnu/4.8/../../../../include/c++/4.8/bits/locale_classes.h"
	.file	6 "/usr/lib/gcc/x86_64-linux-gnu/4.8/../../../../include/c++/4.8/bits/basic_string.h"
	.file	7 "/usr/include/xlocale.h"
	.file	8 "/usr/lib/gcc/x86_64-linux-gnu/4.8/../../../../include/c++/4.8/bits/c++locale.h"
	.file	9 "/usr/lib/gcc/x86_64-linux-gnu/4.8/../../../../include/c++/4.8/ext/new_allocator.h"
	.file	10 "/usr/lib/gcc/x86_64-linux-gnu/4.8/../../../../include/c++/4.8/bits/allocator.h"
	.file	11 "/usr/lib/gcc/x86_64-linux-gnu/4.8/../../../../include/c++/4.8/bits/stl_iterator.h"
	.file	12 "/usr/lib/gcc/x86_64-linux-gnu/4.8/../../../../include/c++/4.8/bits/basic_string.tcc"
	.file	13 "/usr/lib/gcc/x86_64-linux-gnu/4.8/../../../../include/c++/4.8/bits/stringfwd.h"
	.file	14 "/usr/lib/gcc/x86_64-linux-gnu/4.8/../../../../include/c++/4.8/bits/char_traits.h"
	.file	15 "/usr/lib/gcc/x86_64-linux-gnu/4.8/../../../../include/c++/4.8/iostream"
	.file	16 "src/MersenneTwister.h"
	.file	17 "src/rng.h"
	.file	18 "/usr/include/x86_64-linux-gnu/bits/pthreadtypes.h"
	.text
.Ltext_begin:
	.data
	.section	.text.startup,"ax",@progbits
	.align	16, 0x90
	.type	__cxx_global_var_init,@function
__cxx_global_var_init:                  # @__cxx_global_var_init
	.cfi_startproc
.Lfunc_begin0:
	.loc	15 73 0                 # /usr/lib/gcc/x86_64-linux-gnu/4.8/../../../../include/c++/4.8/iostream:73:0
# BB#0:                                 # %entry
	.loc	15 73 0 prologue_end    # /usr/lib/gcc/x86_64-linux-gnu/4.8/../../../../include/c++/4.8/iostream:73:0
	pushq	%rax
.Ltmp1:
	.cfi_def_cfa_offset 16
	movl	$_ZStL8__ioinit, %edi
	callq	_ZNSt8ios_base4InitC1Ev
	movl	$_ZNSt8ios_base4InitD1Ev, %edi
	movl	$_ZStL8__ioinit, %esi
	movl	$__dso_handle, %edx
	callq	__cxa_atexit
	popq	%rax
	ret
.Ltmp2:
.Ltmp3:
	.size	__cxx_global_var_init, .Ltmp3-__cxx_global_var_init
.Lfunc_end0:
	.cfi_endproc

	.text
	.globl	_ZN3Rng4randEi
	.align	16, 0x90
	.type	_ZN3Rng4randEi,@function
_ZN3Rng4randEi:                         # @_ZN3Rng4randEi
	.cfi_startproc
.Lfunc_begin1:
	.loc	1 43 0                  # src/rng.cpp:43:0
# BB#0:                                 # %entry
	subq	$24, %rsp
.Ltmp5:
	.cfi_def_cfa_offset 32
	movq	%rdi, 16(%rsp)
	movl	%esi, 12(%rsp)
	movq	16(%rsp), %rax
	.loc	1 44 0 prologue_end     # src/rng.cpp:44:0
.Ltmp6:
	movq	(%rax), %rdi
	decl	%esi
	movslq	%esi, %rax
	movq	%rax, (%rsp)
	leaq	(%rsp), %rsi
	callq	_ZN6MTRand7randIntERKm
	addq	$24, %rsp
	ret
.Ltmp7:
.Ltmp8:
	.size	_ZN3Rng4randEi, .Ltmp8-_ZN3Rng4randEi
.Lfunc_end1:
	.cfi_endproc

	.section	.text._ZN6MTRand7randIntERKm,"axG",@progbits,_ZN6MTRand7randIntERKm,comdat
	.weak	_ZN6MTRand7randIntERKm
	.align	16, 0x90
	.type	_ZN6MTRand7randIntERKm,@function
_ZN6MTRand7randIntERKm:                 # @_ZN6MTRand7randIntERKm
	.cfi_startproc
.Lfunc_begin2:
	.loc	16 196 0                # src/MersenneTwister.h:196:0
# BB#0:                                 # %entry
	pushq	%rbx
.Ltmp11:
	.cfi_def_cfa_offset 16
	subq	$32, %rsp
.Ltmp12:
	.cfi_def_cfa_offset 48
.Ltmp13:
	.cfi_offset %rbx, -16
	movq	%rdi, 24(%rsp)
	movq	%rsi, 16(%rsp)
	.loc	16 199 0 prologue_end   # src/MersenneTwister.h:199:0
.Ltmp14:
	movq	(%rsi), %rcx
	movq	24(%rsp), %rbx
	movq	%rcx, 8(%rsp)
	.loc	16 200 0                # src/MersenneTwister.h:200:0
	movq	%rcx, %rax
	shrq	%rax
	orq	%rcx, %rax
	movq	%rax, 8(%rsp)
	.loc	16 201 0                # src/MersenneTwister.h:201:0
	movq	%rax, %rcx
	shrq	$2, %rcx
	orq	%rax, %rcx
	movq	%rcx, 8(%rsp)
	.loc	16 202 0                # src/MersenneTwister.h:202:0
	movq	%rcx, %rax
	shrq	$4, %rax
	orq	%rcx, %rax
	movq	%rax, 8(%rsp)
	.loc	16 203 0                # src/MersenneTwister.h:203:0
	movq	%rax, %rcx
	shrq	$8, %rcx
	orq	%rax, %rcx
	movq	%rcx, 8(%rsp)
	.loc	16 204 0                # src/MersenneTwister.h:204:0
	movq	%rcx, %rax
	shrq	$16, %rax
	orq	%rcx, %rax
	movq	%rax, 8(%rsp)
	.align	16, 0x90
.LBB2_1:                                # %do.body
                                        # =>This Inner Loop Header: Depth=1
	.loc	16 209 0                # src/MersenneTwister.h:209:0
	movq	%rbx, %rdi
	callq	_ZN6MTRand7randIntEv
	andq	8(%rsp), %rax
	movq	%rax, (%rsp)
	movq	16(%rsp), %rax
	movq	(%rsp), %rcx
	cmpq	(%rax), %rcx
	ja	.LBB2_1
# BB#2:                                 # %do.end
	.loc	16 211 0                # src/MersenneTwister.h:211:0
	movq	(%rsp), %rax
	addq	$32, %rsp
	popq	%rbx
	ret
.Ltmp15:
.Ltmp16:
	.size	_ZN6MTRand7randIntERKm, .Ltmp16-_ZN6MTRand7randIntERKm
.Lfunc_end2:
	.cfi_endproc

	.text
	.globl	_ZN3Rng4randEv
	.align	16, 0x90
	.type	_ZN3Rng4randEv,@function
_ZN3Rng4randEv:                         # @_ZN3Rng4randEv
	.cfi_startproc
.Lfunc_begin3:
	.loc	1 49 0                  # src/rng.cpp:49:0
# BB#0:                                 # %entry
	pushq	%rax
.Ltmp18:
	.cfi_def_cfa_offset 16
	movq	%rdi, (%rsp)
	.loc	1 50 0 prologue_end     # src/rng.cpp:50:0
.Ltmp19:
	movq	(%rdi), %rdi
	callq	_ZN6MTRand7randIntEv
	popq	%rdx
	ret
.Ltmp20:
.Ltmp21:
	.size	_ZN3Rng4randEv, .Ltmp21-_ZN3Rng4randEv
.Lfunc_end3:
	.cfi_endproc

	.section	.text._ZN6MTRand7randIntEv,"axG",@progbits,_ZN6MTRand7randIntEv,comdat
	.weak	_ZN6MTRand7randIntEv
	.align	16, 0x90
	.type	_ZN6MTRand7randIntEv,@function
_ZN6MTRand7randIntEv:                   # @_ZN6MTRand7randIntEv
	.cfi_startproc
.Lfunc_begin4:
	.loc	16 180 0                # src/MersenneTwister.h:180:0
# BB#0:                                 # %entry
	pushq	%rbx
.Ltmp24:
	.cfi_def_cfa_offset 16
	subq	$16, %rsp
.Ltmp25:
	.cfi_def_cfa_offset 32
.Ltmp26:
	.cfi_offset %rbx, -16
	movq	%rdi, %rbx
	movq	%rbx, 8(%rsp)
	.loc	16 184 0 prologue_end   # src/MersenneTwister.h:184:0
.Ltmp27:
	cmpl	$0, 5000(%rbx)
	jne	.LBB4_2
# BB#1:                                 # %if.then
	movq	%rbx, %rdi
	callq	_ZN6MTRand6reloadEv
.LBB4_2:                                # %if.end
	.loc	16 185 0                # src/MersenneTwister.h:185:0
	decl	5000(%rbx)
	.loc	16 188 0                # src/MersenneTwister.h:188:0
	movq	4992(%rbx), %rax
.Ltmp28:
	#DEBUG_VALUE: s1 <- [%rsp+$0]+$0
	leaq	8(%rax), %rcx
	movq	%rcx, 4992(%rbx)
	movq	(%rax), %rax
	movq	%rax, (%rsp)
	.loc	16 189 0                # src/MersenneTwister.h:189:0
	movq	%rax, %rcx
	shrq	$11, %rcx
	xorq	%rax, %rcx
	movq	%rcx, (%rsp)
	.loc	16 190 0                # src/MersenneTwister.h:190:0
	movq	%rcx, %rax
	andq	$20601005, %rax         # imm = 0x13A58AD
	shlq	$7, %rax
	xorq	%rcx, %rax
	movq	%rax, (%rsp)
	.loc	16 191 0                # src/MersenneTwister.h:191:0
	movq	%rax, %rcx
	andq	$122764, %rcx           # imm = 0x1DF8C
	shlq	$15, %rcx
	xorq	%rax, %rcx
	movq	%rcx, (%rsp)
	.loc	16 192 0                # src/MersenneTwister.h:192:0
	movq	%rcx, %rax
	shrq	$18, %rax
	xorq	%rcx, %rax
	addq	$16, %rsp
	popq	%rbx
	ret
.Ltmp29:
.Ltmp30:
	.size	_ZN6MTRand7randIntEv, .Ltmp30-_ZN6MTRand7randIntEv
.Lfunc_end4:
	.cfi_endproc

	.text
	.globl	_ZN3Rng5drandEv
	.align	16, 0x90
	.type	_ZN3Rng5drandEv,@function
_ZN3Rng5drandEv:                        # @_ZN3Rng5drandEv
	.cfi_startproc
.Lfunc_begin5:
	.loc	1 54 0                  # src/rng.cpp:54:0
# BB#0:                                 # %entry
	pushq	%rax
.Ltmp32:
	.cfi_def_cfa_offset 16
	movq	%rdi, (%rsp)
	.loc	1 55 0 prologue_end     # src/rng.cpp:55:0
.Ltmp33:
	movq	(%rdi), %rdi
	callq	_ZN6MTRand4randEv
	popq	%rax
	ret
.Ltmp34:
.Ltmp35:
	.size	_ZN3Rng5drandEv, .Ltmp35-_ZN3Rng5drandEv
.Lfunc_end5:
	.cfi_endproc

	.section	.rodata.cst16,"aM",@progbits,16
	.align	16
.LCPI6_0:
	.long	1127219200              # 0x43300000
	.long	1160773632              # 0x45300000
	.long	0                       # 0x0
	.long	0                       # 0x0
.LCPI6_1:
	.quad	4841369599423283200     # double 4.503600e+15
	.quad	4985484787499139072     # double 1.934281e+25
	.section	.rodata.cst8,"aM",@progbits,8
	.align	8
.LCPI6_2:
	.quad	4463067230725210112     # double 2.328306e-10
                                        #  (0x3df0000000100000)
	.section	.text._ZN6MTRand4randEv,"axG",@progbits,_ZN6MTRand4randEv,comdat
	.weak	_ZN6MTRand4randEv
	.align	16, 0x90
	.type	_ZN6MTRand4randEv,@function
_ZN6MTRand4randEv:                      # @_ZN6MTRand4randEv
	.cfi_startproc
.Lfunc_begin6:
	.loc	16 147 0                # src/MersenneTwister.h:147:0
# BB#0:                                 # %entry
	pushq	%rax
.Ltmp37:
	.cfi_def_cfa_offset 16
	movq	%rdi, (%rsp)
	.loc	16 147 0 prologue_end   # src/MersenneTwister.h:147:0
.Ltmp38:
	callq	_ZN6MTRand7randIntEv
	vmovd	%rax, %xmm0
	vpunpckldq	.LCPI6_0(%rip), %xmm0, %xmm0 # xmm0 = xmm0[0],mem[0],xmm0[1],mem[1]
	vsubpd	.LCPI6_1(%rip), %xmm0, %xmm0
	vhaddpd	%xmm0, %xmm0, %xmm0
	vmulsd	.LCPI6_2(%rip), %xmm0, %xmm0
	popq	%rax
	ret
.Ltmp39:
.Ltmp40:
	.size	_ZN6MTRand4randEv, .Ltmp40-_ZN6MTRand4randEv
.Lfunc_end6:
	.cfi_endproc

	.section	.text._ZN6MTRand6reloadEv,"axG",@progbits,_ZN6MTRand6reloadEv,comdat
	.weak	_ZN6MTRand6reloadEv
	.align	16, 0x90
	.type	_ZN6MTRand6reloadEv,@function
_ZN6MTRand6reloadEv:                    # @_ZN6MTRand6reloadEv
	.cfi_startproc
.Lfunc_begin7:
	.loc	16 302 0                # src/MersenneTwister.h:302:0
# BB#0:                                 # %entry
	pushq	%rbx
.Ltmp43:
	.cfi_def_cfa_offset 16
	subq	$32, %rsp
.Ltmp44:
	.cfi_def_cfa_offset 48
.Ltmp45:
	.cfi_offset %rbx, -16
	movq	%rdi, %rbx
	movq	%rbx, 24(%rsp)
	.loc	16 305 0 prologue_end   # src/MersenneTwister.h:305:0
.Ltmp46:
	movq	%rbx, 16(%rsp)
	.loc	16 307 0                # src/MersenneTwister.h:307:0
.Ltmp47:
	movl	$227, 12(%rsp)
	jmp	.LBB7_1
	.align	16, 0x90
.LBB7_2:                                # %for.inc
                                        #   in Loop: Header=BB7_1 Depth=1
	.loc	16 308 0                # src/MersenneTwister.h:308:0
	movq	16(%rsp), %rdx
	leaq	3176(%rdx), %rsi
	movq	%rbx, %rdi
	leaq	8(%rdx), %rcx
	callq	_ZNK6MTRand5twistERKmS1_S1_
	movq	16(%rsp), %rcx
	movq	%rax, (%rcx)
	.loc	16 307 0                # src/MersenneTwister.h:307:0
	addq	$8, 16(%rsp)
.LBB7_1:                                # %for.cond
                                        # =>This Inner Loop Header: Depth=1
	movl	12(%rsp), %eax
	leal	-1(%rax), %ecx
	movl	%ecx, 12(%rsp)
	testl	%eax, %eax
	jne	.LBB7_2
.Ltmp48:
# BB#3:                                 # %for.end
	.loc	16 309 0                # src/MersenneTwister.h:309:0
	movl	$397, 12(%rsp)          # imm = 0x18D
	jmp	.LBB7_4
	.align	16, 0x90
.LBB7_5:                                # %for.inc12
                                        #   in Loop: Header=BB7_4 Depth=1
	.loc	16 310 0                # src/MersenneTwister.h:310:0
	movq	16(%rsp), %rdx
	leaq	-1816(%rdx), %rsi
	movq	%rbx, %rdi
	leaq	8(%rdx), %rcx
	callq	_ZNK6MTRand5twistERKmS1_S1_
	movq	16(%rsp), %rcx
	movq	%rax, (%rcx)
	.loc	16 309 0                # src/MersenneTwister.h:309:0
	addq	$8, 16(%rsp)
.LBB7_4:                                # %for.cond4
                                        # =>This Inner Loop Header: Depth=1
	decl	12(%rsp)
	jne	.LBB7_5
.Ltmp49:
# BB#6:                                 # %for.end14
	.loc	16 311 0                # src/MersenneTwister.h:311:0
	movq	16(%rsp), %rdx
	leaq	-1816(%rdx), %rsi
	movq	%rbx, %rdi
	movq	%rbx, %rcx
	callq	_ZNK6MTRand5twistERKmS1_S1_
	movq	16(%rsp), %rcx
	movq	%rax, (%rcx)
	.loc	16 313 0                # src/MersenneTwister.h:313:0
	movl	$624, 5000(%rbx)        # imm = 0x270
	movq	%rbx, 4992(%rbx)
	.loc	16 314 0                # src/MersenneTwister.h:314:0
	addq	$32, %rsp
	popq	%rbx
	ret
.Ltmp50:
.Ltmp51:
	.size	_ZN6MTRand6reloadEv, .Ltmp51-_ZN6MTRand6reloadEv
.Lfunc_end7:
	.cfi_endproc

	.section	.text._ZNK6MTRand5twistERKmS1_S1_,"axG",@progbits,_ZNK6MTRand5twistERKmS1_S1_,comdat
	.weak	_ZNK6MTRand5twistERKmS1_S1_
	.align	16, 0x90
	.type	_ZNK6MTRand5twistERKmS1_S1_,@function
_ZNK6MTRand5twistERKmS1_S1_:            # @_ZNK6MTRand5twistERKmS1_S1_
	.cfi_startproc
.Lfunc_begin8:
	.loc	16 132 0                # src/MersenneTwister.h:132:0
# BB#0:                                 # %entry
	pushq	%r15
.Ltmp56:
	.cfi_def_cfa_offset 16
	pushq	%r14
.Ltmp57:
	.cfi_def_cfa_offset 24
	pushq	%rbx
.Ltmp58:
	.cfi_def_cfa_offset 32
	subq	$32, %rsp
.Ltmp59:
	.cfi_def_cfa_offset 64
.Ltmp60:
	.cfi_offset %rbx, -32
.Ltmp61:
	.cfi_offset %r14, -24
.Ltmp62:
	.cfi_offset %r15, -16
	movq	%rdi, 24(%rsp)
	movq	%rsi, 16(%rsp)
	movq	%rdx, 8(%rsp)
	movq	%rcx, (%rsp)
	.loc	16 132 0 prologue_end   # src/MersenneTwister.h:132:0
.Ltmp63:
	movq	16(%rsp), %rax
	movq	(%rax), %r15
	movq	8(%rsp), %rsi
	movq	24(%rsp), %r14
	movq	%r14, %rdi
	movq	%rcx, %rdx
	callq	_ZNK6MTRand7mixBitsERKmS1_
	movq	%rax, %rbx
	shrq	%rbx
	movq	(%rsp), %rsi
	xorq	%r15, %rbx
	movq	%r14, %rdi
	callq	_ZNK6MTRand5loBitERKm
	negl	%eax
	andl	$-1727483681, %eax      # imm = 0xFFFFFFFF9908B0DF
	xorq	%rbx, %rax
	addq	$32, %rsp
	popq	%rbx
	popq	%r14
	popq	%r15
	ret
.Ltmp64:
.Ltmp65:
	.size	_ZNK6MTRand5twistERKmS1_S1_, .Ltmp65-_ZNK6MTRand5twistERKmS1_S1_
.Lfunc_end8:
	.cfi_endproc

	.section	.text._ZNK6MTRand7mixBitsERKmS1_,"axG",@progbits,_ZNK6MTRand7mixBitsERKmS1_,comdat
	.weak	_ZNK6MTRand7mixBitsERKmS1_
	.align	16, 0x90
	.type	_ZNK6MTRand7mixBitsERKmS1_,@function
_ZNK6MTRand7mixBitsERKmS1_:             # @_ZNK6MTRand7mixBitsERKmS1_
	.cfi_startproc
.Lfunc_begin9:
	.loc	16 130 0                # src/MersenneTwister.h:130:0
# BB#0:                                 # %entry
	pushq	%r14
.Ltmp69:
	.cfi_def_cfa_offset 16
	pushq	%rbx
.Ltmp70:
	.cfi_def_cfa_offset 24
	subq	$24, %rsp
.Ltmp71:
	.cfi_def_cfa_offset 48
.Ltmp72:
	.cfi_offset %rbx, -24
.Ltmp73:
	.cfi_offset %r14, -16
	movq	%rdi, 16(%rsp)
	movq	%rsi, 8(%rsp)
	movq	%rdx, (%rsp)
	.loc	16 130 0 prologue_end   # src/MersenneTwister.h:130:0
.Ltmp74:
	movq	8(%rsp), %rsi
	movq	16(%rsp), %rbx
	movq	%rbx, %rdi
	callq	_ZNK6MTRand5hiBitERKm
	movq	%rax, %r14
	movq	(%rsp), %rsi
	movq	%rbx, %rdi
	callq	_ZNK6MTRand6loBitsERKm
	orq	%r14, %rax
	addq	$24, %rsp
	popq	%rbx
	popq	%r14
	ret
.Ltmp75:
.Ltmp76:
	.size	_ZNK6MTRand7mixBitsERKmS1_, .Ltmp76-_ZNK6MTRand7mixBitsERKmS1_
.Lfunc_end9:
	.cfi_endproc

	.section	.text._ZNK6MTRand5loBitERKm,"axG",@progbits,_ZNK6MTRand5loBitERKm,comdat
	.weak	_ZNK6MTRand5loBitERKm
	.align	16, 0x90
	.type	_ZNK6MTRand5loBitERKm,@function
_ZNK6MTRand5loBitERKm:                  # @_ZNK6MTRand5loBitERKm
	.cfi_startproc
.Lfunc_begin10:
	.loc	16 127 0                # src/MersenneTwister.h:127:0
# BB#0:                                 # %entry
	movq	%rdi, -8(%rsp)
	movq	%rsi, -16(%rsp)
	.loc	16 127 0 prologue_end   # src/MersenneTwister.h:127:0
.Ltmp77:
	movq	(%rsi), %rax
	andq	$1, %rax
	ret
.Ltmp78:
.Ltmp79:
	.size	_ZNK6MTRand5loBitERKm, .Ltmp79-_ZNK6MTRand5loBitERKm
.Lfunc_end10:
	.cfi_endproc

	.section	.text._ZNK6MTRand5hiBitERKm,"axG",@progbits,_ZNK6MTRand5hiBitERKm,comdat
	.weak	_ZNK6MTRand5hiBitERKm
	.align	16, 0x90
	.type	_ZNK6MTRand5hiBitERKm,@function
_ZNK6MTRand5hiBitERKm:                  # @_ZNK6MTRand5hiBitERKm
	.cfi_startproc
.Lfunc_begin11:
	.loc	16 126 0                # src/MersenneTwister.h:126:0
# BB#0:                                 # %entry
	movq	%rdi, -8(%rsp)
	movq	%rsi, -16(%rsp)
	movl	$2147483648, %eax       # imm = 0x80000000
	.loc	16 126 0 prologue_end   # src/MersenneTwister.h:126:0
.Ltmp80:
	andq	(%rsi), %rax
	ret
.Ltmp81:
.Ltmp82:
	.size	_ZNK6MTRand5hiBitERKm, .Ltmp82-_ZNK6MTRand5hiBitERKm
.Lfunc_end11:
	.cfi_endproc

	.section	.text._ZNK6MTRand6loBitsERKm,"axG",@progbits,_ZNK6MTRand6loBitsERKm,comdat
	.weak	_ZNK6MTRand6loBitsERKm
	.align	16, 0x90
	.type	_ZNK6MTRand6loBitsERKm,@function
_ZNK6MTRand6loBitsERKm:                 # @_ZNK6MTRand6loBitsERKm
	.cfi_startproc
.Lfunc_begin12:
	.loc	16 128 0                # src/MersenneTwister.h:128:0
# BB#0:                                 # %entry
	movq	%rdi, -8(%rsp)
	movq	%rsi, -16(%rsp)
	movl	$2147483647, %eax       # imm = 0x7FFFFFFF
	.loc	16 128 0 prologue_end   # src/MersenneTwister.h:128:0
.Ltmp83:
	andq	(%rsi), %rax
	ret
.Ltmp84:
.Ltmp85:
	.size	_ZNK6MTRand6loBitsERKm, .Ltmp85-_ZNK6MTRand6loBitsERKm
.Lfunc_end12:
	.cfi_endproc

	.section	.text.startup,"ax",@progbits
	.align	16, 0x90
	.type	_GLOBAL__I_a,@function
_GLOBAL__I_a:                           # @_GLOBAL__I_a
	.cfi_startproc
.Lfunc_begin13:
	.loc	1 212 0                 # src/rng.cpp:212:0
# BB#0:                                 # %entry
	.loc	1 212 0 prologue_end    # src/rng.cpp:212:0
	pushq	%rax
.Ltmp87:
	.cfi_def_cfa_offset 16
	callq	__cxx_global_var_init
	popq	%rax
	ret
.Ltmp88:
.Ltmp89:
	.size	_GLOBAL__I_a, .Ltmp89-_GLOBAL__I_a
.Lfunc_end13:
	.cfi_endproc

	.type	_ZStL8__ioinit,@object  # @_ZStL8__ioinit
	.lcomm	_ZStL8__ioinit,1
	.type	_ZN3Rng4seedE,@object   # @_ZN3Rng4seedE
	.bss
	.globl	_ZN3Rng4seedE
	.align	4
_ZN3Rng4seedE:
	.long	0                       # 0x0
	.size	_ZN3Rng4seedE, 4

	.type	_ZN3Rng9seed_lockE,@object # @_ZN3Rng9seed_lockE
	.globl	_ZN3Rng9seed_lockE
	.align	8
_ZN3Rng9seed_lockE:
	.zero	40
	.size	_ZN3Rng9seed_lockE, 40

	.section	.ctors,"aw",@progbits
	.align	8
	.quad	_GLOBAL__I_a
	.text
.Ltext_end:
	.data
.Ldata_end:
	.text
.Lsection_end1:
	.section	".note.GNU-stack","",@progbits
